
ECE385_src.elf:     file format elf32-littlenios2
ECE385_src.elf
architecture: nios2:r1, flags 0x00000112:
EXEC_P, HAS_SYMS, D_PAGED
start address 0x00420184

Program Header:
    LOAD off    0x00001000 vaddr 0x00420000 paddr 0x00420000 align 2**12
         filesz 0x00000020 memsz 0x00000020 flags r-x
    LOAD off    0x00001020 vaddr 0x00420020 paddr 0x00420020 align 2**12
         filesz 0x00004274 memsz 0x00004274 flags r-x
    LOAD off    0x00005294 vaddr 0x00424294 paddr 0x00424a94 align 2**12
         filesz 0x00000800 memsz 0x00000800 flags rw-
    LOAD off    0x00006294 vaddr 0x00425294 paddr 0x00425294 align 2**12
         filesz 0x00000000 memsz 0x00001844 flags rw-
    LOAD off    0x00006000 vaddr 0x08000000 paddr 0x08000000 align 2**12
         filesz 0x00098880 memsz 0x00098880 flags r--

Sections:
Idx Name          Size      VMA       LMA       File off  Algn
  0 .entry        00000020  00420000  00420000  00001000  2**5
                  CONTENTS, ALLOC, LOAD, READONLY, CODE
  1 .exceptions   00000164  00420020  00420020  00001020  2**2
                  CONTENTS, ALLOC, LOAD, READONLY, CODE
  2 .resources    00098880  08000000  08000000  00006000  2**1
                  CONTENTS, ALLOC, LOAD, READONLY, DATA
  3 .text         00003fe4  00420184  00420184  00001184  2**2
                  CONTENTS, ALLOC, LOAD, READONLY, CODE
  4 .rodata       0000012c  00424168  00424168  00005168  2**2
                  CONTENTS, ALLOC, LOAD, READONLY, DATA
  5 .rwdata       00000800  00424294  00424a94  00005294  2**2
                  CONTENTS, ALLOC, LOAD, DATA, SMALL_DATA
  6 .bss          00001844  00425294  00425294  00006294  2**2
                  ALLOC, SMALL_DATA
  7 .audio_mem    00000000  00410000  00410000  0009e880  2**0
                  CONTENTS
  8 .nios2_onchip_mem 00000000  00426ad8  00426ad8  0009e880  2**0
                  CONTENTS
  9 .vga_sprite_7 00000000  00430000  00430000  0009e880  2**0
                  CONTENTS
 10 .vga_sprite_6 00000000  00432000  00432000  0009e880  2**0
                  CONTENTS
 11 .vga_sprite_5 00000000  00434000  00434000  0009e880  2**0
                  CONTENTS
 12 .vga_sprite_4 00000000  00436000  00436000  0009e880  2**0
                  CONTENTS
 13 .vga_sprite_3 00000000  00438000  00438000  0009e880  2**0
                  CONTENTS
 14 .vga_sprite_2 00000000  0043a000  0043a000  0009e880  2**0
                  CONTENTS
 15 .vga_sprite_1 00000000  0043c000  0043c000  0009e880  2**0
                  CONTENTS
 16 .vga_sprite_0 00000000  0043e000  0043e000  0009e880  2**0
                  CONTENTS
 17 .usb_keycode  00000000  00441000  00441000  0009e880  2**0
                  CONTENTS
 18 .sdram        00000000  08098880  08098880  0009e880  2**0
                  CONTENTS
 19 .comment      00000023  00000000  00000000  0009e880  2**0
                  CONTENTS, READONLY
 20 .debug_aranges 00000268  00000000  00000000  0009e8a8  2**3
                  CONTENTS, READONLY, DEBUGGING
 21 .debug_info   00003f18  00000000  00000000  0009eb10  2**0
                  CONTENTS, READONLY, DEBUGGING
 22 .debug_abbrev 00001237  00000000  00000000  000a2a28  2**0
                  CONTENTS, READONLY, DEBUGGING
 23 .debug_line   0000183e  00000000  00000000  000a3c5f  2**0
                  CONTENTS, READONLY, DEBUGGING
 24 .debug_frame  00000328  00000000  00000000  000a54a0  2**2
                  CONTENTS, READONLY, DEBUGGING
 25 .debug_str    00000d57  00000000  00000000  000a57c8  2**0
                  CONTENTS, READONLY, DEBUGGING
 26 .debug_loc    000014b4  00000000  00000000  000a651f  2**0
                  CONTENTS, READONLY, DEBUGGING
 27 .debug_alt_sim_info 00000040  00000000  00000000  000a79d4  2**2
                  CONTENTS, READONLY, DEBUGGING
 28 .debug_ranges 00000278  00000000  00000000  000a7a18  2**3
                  CONTENTS, READONLY, DEBUGGING
 29 .thread_model 00000003  00000000  00000000  000aa7d6  2**0
                  CONTENTS, READONLY
 30 .cpu          00000009  00000000  00000000  000aa7d9  2**0
                  CONTENTS, READONLY
 31 .qsys         00000001  00000000  00000000  000aa7e2  2**0
                  CONTENTS, READONLY
 32 .simulation_enabled 00000001  00000000  00000000  000aa7e3  2**0
                  CONTENTS, READONLY
 33 .sysid_hash   00000004  00000000  00000000  000aa7e4  2**0
                  CONTENTS, READONLY
 34 .sysid_base   00000004  00000000  00000000  000aa7e8  2**0
                  CONTENTS, READONLY
 35 .sysid_time   00000004  00000000  00000000  000aa7ec  2**0
                  CONTENTS, READONLY
 36 .stderr_dev   0000000f  00000000  00000000  000aa7f0  2**0
                  CONTENTS, READONLY
 37 .stdin_dev    0000000f  00000000  00000000  000aa7ff  2**0
                  CONTENTS, READONLY
 38 .stdout_dev   0000000f  00000000  00000000  000aa80e  2**0
                  CONTENTS, READONLY
 39 .sopc_system_name 00000006  00000000  00000000  000aa81d  2**0
                  CONTENTS, READONLY
 40 .quartus_project_dir 00000028  00000000  00000000  000aa823  2**0
                  CONTENTS, READONLY
 41 .jdi          00009cf0  00000000  00000000  000aa84b  2**0
                  CONTENTS, READONLY
 42 .sopcinfo     001cd555  00000000  00000000  000b453b  2**0
                  CONTENTS, READONLY
SYMBOL TABLE:
00420000 l    d  .entry	00000000 .entry
00420020 l    d  .exceptions	00000000 .exceptions
08000000 l    d  .resources	00000000 .resources
00420184 l    d  .text	00000000 .text
00424168 l    d  .rodata	00000000 .rodata
00424294 l    d  .rwdata	00000000 .rwdata
00425294 l    d  .bss	00000000 .bss
00410000 l    d  .audio_mem	00000000 .audio_mem
00426ad8 l    d  .nios2_onchip_mem	00000000 .nios2_onchip_mem
00430000 l    d  .vga_sprite_7	00000000 .vga_sprite_7
00432000 l    d  .vga_sprite_6	00000000 .vga_sprite_6
00434000 l    d  .vga_sprite_5	00000000 .vga_sprite_5
00436000 l    d  .vga_sprite_4	00000000 .vga_sprite_4
00438000 l    d  .vga_sprite_3	00000000 .vga_sprite_3
0043a000 l    d  .vga_sprite_2	00000000 .vga_sprite_2
0043c000 l    d  .vga_sprite_1	00000000 .vga_sprite_1
0043e000 l    d  .vga_sprite_0	00000000 .vga_sprite_0
00441000 l    d  .usb_keycode	00000000 .usb_keycode
08098880 l    d  .sdram	00000000 .sdram
00000000 l    d  .comment	00000000 .comment
00000000 l    d  .debug_aranges	00000000 .debug_aranges
00000000 l    d  .debug_info	00000000 .debug_info
00000000 l    d  .debug_abbrev	00000000 .debug_abbrev
00000000 l    d  .debug_line	00000000 .debug_line
00000000 l    d  .debug_frame	00000000 .debug_frame
00000000 l    d  .debug_str	00000000 .debug_str
00000000 l    d  .debug_loc	00000000 .debug_loc
00000000 l    d  .debug_alt_sim_info	00000000 .debug_alt_sim_info
00000000 l    d  .debug_ranges	00000000 .debug_ranges
00000000 l    df *ABS*	00000000 ../ECE385_bsp//obj/HAL/src/crt0.o
004201bc l       .text	00000000 alt_after_alt_main
00000000 l    df *ABS*	00000000 alt_irq_handler.c
00000000 l    df *ABS*	00000000 alt_instruction_exception_entry.c
00000000 l    df *ABS*	00000000 resource.c
00000000 l    df *ABS*	00000000 main.c
00425294 l     O .bss	00000004 next_frame_count.3713
00000000 l    df *ABS*	00000000 rng.c
00000000 l    df *ABS*	00000000 sprites.c
00420f10 l     F .text	00000090 sprites_deallocate.part.0
00420fa0 l     F .text	00000134 sprites_visible.part.1
00000000 l    df *ABS*	00000000 vga.c
00000000 l    df *ABS*	00000000 lib2-divmod.c
00000000 l    df *ABS*	00000000 lib2-mul.c
00000000 l    df *ABS*	00000000 printf.c
00000000 l    df *ABS*	00000000 puts.c
00000000 l    df *ABS*	00000000 strlen.c
00000000 l    df *ABS*	00000000 vfprintf.c
00422184 l     F .text	0000006c print_repeat
00000000 l    df *ABS*	00000000 fvwrite_small_dev.c
00000000 l    df *ABS*	00000000 impure.c
004246d4 l     O .rwdata	000000e0 impure_data
00000000 l    df *ABS*	00000000 writer.c
00000000 l    df *ABS*	00000000 int_errno.c
00000000 l    df *ABS*	00000000 alt_load.c
00000000 l    df *ABS*	00000000 alt_main.c
00000000 l    df *ABS*	00000000 alt_printf.c
00000000 l    df *ABS*	00000000 alt_putchar.c
00000000 l    df *ABS*	00000000 alt_usleep.c
00000000 l    df *ABS*	00000000 alt_write.c
00000000 l    df *ABS*	00000000 alt_sys_init.c
00424874 l     O .rwdata	0000002c nios2_jtag_uart
00424844 l     O .rwdata	00000030 eth0_rx_dma
00424814 l     O .rwdata	00000030 eth0_tx_dma
004247e4 l     O .rwdata	00000030 eth1_rx_dma
004247b4 l     O .rwdata	00000030 eth1_tx_dma
00000000 l    df *ABS*	00000000 altera_avalon_jtag_uart_fd.c
00000000 l    df *ABS*	00000000 altera_avalon_jtag_uart_read.c
00000000 l    df *ABS*	00000000 altera_avalon_jtag_uart_write.c
00000000 l    df *ABS*	00000000 altera_avalon_sgdma.c
00422db8 l     F .text	0000005c alt_avalon_sgdma_irq
00000000 l    df *ABS*	00000000 altera_avalon_timer_sc.c
00423554 l     F .text	0000003c alt_avalon_timer_sc_irq
00000000 l    df *ABS*	00000000 alt_busy_sleep.c
00000000 l    df *ABS*	00000000 alt_close.c
00000000 l    df *ABS*	00000000 alt_dcache_flush.c
00000000 l    df *ABS*	00000000 alt_dcache_flush_all.c
00000000 l    df *ABS*	00000000 alt_dev.c
00423728 l     F .text	00000008 alt_dev_null_write
00000000 l    df *ABS*	00000000 alt_dev_llist_insert.c
00000000 l    df *ABS*	00000000 alt_errno.c
00000000 l    df *ABS*	00000000 alt_find_dev.c
00000000 l    df *ABS*	00000000 alt_icache_flush_all.c
00000000 l    df *ABS*	00000000 alt_iic.c
00000000 l    df *ABS*	00000000 alt_iic_isr_register.c
00000000 l    df *ABS*	00000000 alt_io_redirect.c
0042390c l     F .text	0000008c alt_open_fd.constprop.0
00000000 l    df *ABS*	00000000 alt_irq_vars.c
00000000 l    df *ABS*	00000000 alt_open.c
00000000 l    df *ABS*	00000000 alt_release_fd.c
00000000 l    df *ABS*	00000000 alt_tick.c
00000000 l    df *ABS*	00000000 altera_nios2_gen2_irq.c
00000000 l    df *ABS*	00000000 alt_find_file.c
00000000 l    df *ABS*	00000000 alt_get_fd.c
00000000 l    df *ABS*	00000000 exit.c
00000000 l    df *ABS*	00000000 memcmp.c
00000000 l    df *ABS*	00000000 putc.c
00000000 l    df *ABS*	00000000 __call_atexit.c
00000000 l    df *ABS*	00000000 alt_exit.c
004252d4 g     O .bss	00000004 alt_instruction_exception_handler
00438000 g       *ABS*	00000000 __alt_mem_vga_sprite_3
0042295c g     F .text	00000050 alt_main
004220d4 g     F .text	00000080 _puts_r
004269d8 g     O .bss	00000100 alt_irq
0042529c g     O .bss	00000004 tmp
00424a94 g       *ABS*	00000000 __flash_rwdata_start
00422088 g     F .text	0000004c printf
00422e9c g     F .text	00000084 alt_avalon_sgdma_do_sync_transfer
004217c4 g     F .text	0000047c sprites_collision_detect
00425ad8 g     O .bss	00000020 eth1_rx_descriptor_end
0042328c g     F .text	00000160 alt_avalon_sgdma_construct_descriptor_burst
00420290 g     F .text	000005b0 handle_player_plane_keyboard
00423d18 g     F .text	00000008 altera_nios2_gen2_irq_init
00420000 g     F .entry	0000000c __reset
00421380 g     F .text	000000a4 sprites_load_data
00423080 g     F .text	000000d4 alt_avalon_sgdma_construct_stream_to_mem_desc_burst
00420020 g       *ABS*	00000000 __flash_exceptions_start
004252d8 g     O .bss	00000400 eth1_rx_frame
004252b8 g     O .bss	00000004 errno
00425af8 g     O .bss	00000020 eth0_tx_descriptor
004252c0 g     O .bss	00000004 alt_argv
0042ca48 g       *ABS*	00000000 _gp
00422b34 g     F .text	00000004 usleep
004248a0 g     O .rwdata	00000180 alt_fd_list
00441000 g       *ABS*	00000000 __alt_mem_usb_keycode
0042379c g     F .text	00000078 alt_find_dev
00425bd8 g     O .bss	00000c40 vga_bullets_info
08000000 g     O .resources	00096000 background
00423998 g     F .text	00000074 alt_io_redirect
00422154 g     F .text	00000014 puts
00423e54 g     F .text	00000074 alt_exception_cause_generated_bad_addr
004233ec g     F .text	00000050 alt_avalon_sgdma_construct_mem_to_stream_desc_burst
004246b4 g     O .rwdata	00000020 vga_planes_sprite_data
00422d10 g     F .text	00000074 altera_avalon_jtag_uart_read
00421424 g     F .text	000001fc sprites_limit_speed
0042204c g     F .text	0000003c _printf_r
00421f68 g     F .text	00000064 .hidden __udivsi3
00421620 g     F .text	000001a4 sprites_tick
004231a4 g     F .text	0000001c alt_avalon_sgdma_stop
00423720 g     F .text	00000004 alt_dcache_flush
00424a70 g     O .rwdata	00000004 alt_max_fd
00425b18 g     O .bss	00000020 eth0_rx_descriptor_end
00421368 g     F .text	00000018 sprites_visible
00430000 g       *ABS*	00000000 __alt_mem_vga_sprite_7
0043e000 g       *ABS*	00000000 __alt_mem_vga_sprite_0
00424a60 g     O .rwdata	00000004 _global_impure_ptr
00426ad8 g       *ABS*	00000000 __bss_end
004238a4 g     F .text	00000068 alt_iic_isr_register
00422e14 g     F .text	00000088 alt_avalon_sgdma_do_async_transfer
00423c24 g     F .text	000000f4 alt_tick
00421da0 g     F .text	000000d0 vga_set
0043a000 g       *ABS*	00000000 __alt_mem_vga_sprite_2
0042388c g     F .text	00000018 alt_ic_irq_enabled
00420ed8 g     F .text	00000038 rng_generate
004252a0 g     O .bss	00000004 eth1_dma_tx_dev
00423bf0 g     F .text	00000034 alt_alarm_stop
004252c8 g     O .bss	00000004 alt_irq_active
004252a4 g     O .bss	00000004 eth1_dma_rx_dev
00424294 g     O .rwdata	00000400 tx_frame
004200fc g     F .exceptions	00000064 alt_irq_handler
00424a20 g     O .rwdata	00000028 alt_dev_null
004231c0 g     F .text	0000002c alt_avalon_sgdma_check_descriptor_status
00423724 g     F .text	00000004 alt_dcache_flush_all
00424a94 g       *ABS*	00000000 __ram_rwdata_end
00424a74 g     O .rwdata	00000008 alt_dev_list
00422b38 g     F .text	00000110 write
0042323c g     F .text	00000030 alt_avalon_sgdma_enable_desc_poll
00423f6c g     F .text	00000058 _putc_r
00424294 g       *ABS*	00000000 __ram_rodata_end
00421fcc g     F .text	00000058 .hidden __umodsi3
08096c60 g     O .resources	00001c20 plane
0042343c g     F .text	0000004c alt_avalon_sgdma_construct_mem_to_stream_desc
0042317c g     F .text	00000010 alt_avalon_sgdma_register_callback
00426ad8 g       *ABS*	00000000 end
00421c40 g     F .text	000000a8 vga_erase
00436000 g       *ABS*	00000000 __alt_mem_vga_sprite_4
00420160 g     F .exceptions	00000024 alt_instruction_exception_entry
00430000 g       *ABS*	00000000 __alt_stack_pointer
00424a54 g     O .rwdata	00000004 keycode_comm
0042326c g     F .text	00000020 alt_avalon_sgdma_disable_desc_poll
00423590 g     F .text	00000048 alt_avalon_timer_sc_init
00422d84 g     F .text	00000034 altera_avalon_jtag_uart_write
00423048 g     F .text	00000038 alt_avalon_sgdma_construct_mem_to_mem_desc
004221f0 g     F .text	0000052c ___vfprintf_internal_r
00423154 g     F .text	00000028 alt_avalon_sgdma_construct_stream_to_mem_desc
004229ac g     F .text	0000017c alt_printf
00420840 g     F .text	000002d4 handle_enemy_planes_spawn
00423fc4 g     F .text	00000190 __call_exitprocs
00420184 g     F .text	0000003c _start
004252d0 g     O .bss	00000004 _alt_tick_rate
004231ec g     F .text	00000050 alt_avalon_sgdma_open
004252cc g     O .bss	00000004 _alt_nticks
004252a8 g     O .bss	00000004 text_length
00422c68 g     F .text	00000088 alt_sys_init
0042425c g     O .rodata	00000010 planes
00424694 g     O .rwdata	00000010 vga_bullets
004211c0 g     F .text	00000138 sprites_allocate
00421ce8 g     F .text	000000b8 vga_fill
00422024 g     F .text	00000028 .hidden __mulsi3
00424294 g       *ABS*	00000000 __ram_rwdata_start
00424168 g       *ABS*	00000000 __ram_rodata_start
00425b38 g     O .bss	00000020 eth1_tx_descriptor_end
004201c0 g     F .text	00000068 eth0_rx_ethernet_isr
00422cf0 g     F .text	00000010 altera_avalon_jtag_uart_read_fd
00423dcc g     F .text	00000088 alt_get_fd
004235d8 g     F .text	00000088 alt_busy_sleep
00425b58 g     O .bss	00000020 eth0_tx_descriptor_end
00423ee8 g     F .text	00000030 memcmp
00426ad8 g       *ABS*	00000000 __alt_stack_base
00424a58 g     O .rwdata	00000004 io_led_green
00420000 g       *ABS*	00000000 __alt_mem_nios2_onchip_mem
00423d20 g     F .text	000000ac alt_find_file
00423730 g     F .text	0000006c alt_dev_llist_insert
0042318c g     F .text	00000018 alt_avalon_sgdma_start
00420228 g     F .text	00000068 eth1_rx_ethernet_isr
00422738 g     F .text	000000b8 __sfvwrite_small_dev
00425294 g       *ABS*	00000000 __bss_start
00432000 g       *ABS*	00000000 __alt_mem_vga_sprite_6
00420cd8 g     F .text	00000200 main
004252bc g     O .bss	00000004 alt_envp
00422d00 g     F .text	00000010 altera_avalon_jtag_uart_write_fd
00424a68 g     O .rwdata	00000008 alt_sgdma_list
00410000 g       *ABS*	00000000 __alt_mem_audio_mem
004210d4 g     F .text	000000ec sprites_init
00424a84 g     O .rwdata	00000004 alt_errno
00420b14 g     F .text	000001c4 handle_enemy_planes_firing
00423f18 g     F .text	00000054 putc
00421e70 g     F .text	00000084 .hidden __divsi3
00424168 g       *ABS*	00000000 __flash_rodata_start
0043c000 g       *ABS*	00000000 __alt_mem_vga_sprite_1
00422c48 g     F .text	00000020 alt_irq_init
00423b94 g     F .text	0000005c alt_release_fd
004256d8 g     O .bss	00000400 eth0_rx_frame
004227f0 g     F .text	00000058 _write_r
00424a64 g     O .rwdata	00000004 _impure_ptr
004252c4 g     O .bss	00000004 alt_argc
00420020 g       .exceptions	00000000 alt_irq_entry
004252ac g     O .bss	00000004 eth0_dma_tx_dev
004212f8 g     F .text	00000058 sprites_get
00424a7c g     O .rwdata	00000008 alt_fs_list
00425b78 g     O .bss	00000020 eth1_rx_descriptor
00420020 g       *ABS*	00000000 __ram_exceptions_start
08096000 g     O .resources	00000c60 plane2
00423818 g     F .text	00000004 alt_ic_isr_register
00424a94 g       *ABS*	00000000 _edata
00425b98 g     O .bss	00000020 eth1_tx_descriptor
00426ad8 g       *ABS*	00000000 _end
00425298 g     O .bss	00000004 frame_count
00420184 g       *ABS*	00000000 __ram_exceptions_end
00434000 g       *ABS*	00000000 __alt_mem_vga_sprite_5
00423854 g     F .text	00000038 alt_ic_irq_disable
00423488 g     F .text	00000048 alt_avalon_sgdma_construct_descriptor
00423ec8 g     F .text	00000020 exit
00421ef4 g     F .text	00000074 .hidden __modsi3
00430000 g       *ABS*	00000000 __alt_data_end
00420020 g     F .exceptions	00000000 alt_exception
08000000 g       *ABS*	00000000 __alt_mem_sdram
00421350 g     F .text	00000018 sprites_deallocate
00424a4c g     O .rwdata	00000004 io_vga_sync
00426818 g     O .bss	000001c0 vga_planes_info
00424154 g     F .text	00000014 _exit
00424a50 g     O .rwdata	00000004 io_hex
00425bb8 g     O .bss	00000020 eth0_rx_descriptor
004252b4 g     O .bss	00000004 rng_num
00422168 g     F .text	0000001c strlen
00423a0c g     F .text	00000188 open
00422b28 g     F .text	0000000c alt_putchar
00423814 g     F .text	00000004 alt_icache_flush_all
00424a88 g     O .rwdata	00000004 alt_priority_mask
0042381c g     F .text	00000038 alt_ic_irq_enable
0042271c g     F .text	0000001c __vfprintf_internal
00424a48 g     O .rwdata	00000004 io_hwrng
00422f20 g     F .text	00000128 alt_avalon_sgdma_construct_mem_to_mem_desc_burst
00424a8c g     O .rwdata	00000008 alt_alarm_list
00424a5c g     O .rwdata	00000004 io_led_red
00423660 g     F .text	000000c0 close
004252b0 g     O .bss	00000004 eth0_dma_rx_dev
004246a4 g     O .rwdata	00000010 vga_planes
00422848 g     F .text	00000114 alt_load
004234d0 g     F .text	00000084 alt_avalon_sgdma_init



Disassembly of section .entry:

00420000 <__reset>:
 * Jump to the _start entry point in the .text section if reset code
 * is allowed or if optimizing for RTL simulation.
 */
#if defined(ALT_ALLOW_CODE_AT_RESET) || defined(ALT_SIM_OPTIMIZE)
    /* Jump to the _start entry point in the .text section. */
    movhi r1, %hi(_start)
  420000:	004010b4 	movhi	at,66
    ori r1, r1, %lo(_start)
  420004:	08406114 	ori	at,at,388
    jmp r1
  420008:	0800683a 	jmp	at
	...

Disassembly of section .exceptions:

00420020 <alt_exception>:

#else /* ALT_EXCEPTION_STACK disabled */
        /* 
         * Reserve space on normal stack for registers about to be pushed.
         */
        addi  sp, sp, -76
  420020:	deffed04 	addi	sp,sp,-76
         * documentation for details).
         *
         * Leave a gap in the stack frame at 4(sp) for the muldiv handler to
         * store zero into.
         */
        stw   ra,  0(sp)
  420024:	dfc00015 	stw	ra,0(sp)
        stw   r1,   8(sp)
  420028:	d8400215 	stw	at,8(sp)
        stw   r2,  12(sp)
  42002c:	d8800315 	stw	r2,12(sp)
        stw   r3,  16(sp)
  420030:	d8c00415 	stw	r3,16(sp)
        stw   r4,  20(sp)
  420034:	d9000515 	stw	r4,20(sp)
        stw   r5,  24(sp)
  420038:	d9400615 	stw	r5,24(sp)
        stw   r6,  28(sp)
  42003c:	d9800715 	stw	r6,28(sp)
        stw   r7,  32(sp)
  420040:	d9c00815 	stw	r7,32(sp)
        rdctl r5, estatus   /* Read early to avoid usage stall */
  420044:	000b307a 	rdctl	r5,estatus
        stw   r8,  36(sp)
  420048:	da000915 	stw	r8,36(sp)
        stw   r9,  40(sp)
  42004c:	da400a15 	stw	r9,40(sp)
        stw   r10, 44(sp)
  420050:	da800b15 	stw	r10,44(sp)
        stw   r11, 48(sp)
  420054:	dac00c15 	stw	r11,48(sp)
        stw   r12, 52(sp)
  420058:	db000d15 	stw	r12,52(sp)
        stw   r13, 56(sp)
  42005c:	db400e15 	stw	r13,56(sp)
        stw   r14, 60(sp)
  420060:	db800f15 	stw	r14,60(sp)
        stw   r15, 64(sp)
  420064:	dbc01015 	stw	r15,64(sp)
        /*
         * ea-4 contains the address of the instruction being executed
         * when the exception occured. For interrupt exceptions, we will
         * will be re-issue the isntruction. Store it in 72(sp)
         */
        stw   r5,  68(sp)  /* estatus */
  420068:	d9401115 	stw	r5,68(sp)
        addi  r15, ea, -4  /* instruction that caused exception */
  42006c:	ebffff04 	addi	r15,ea,-4
        stw   r15,  72(sp)
  420070:	dbc01215 	stw	r15,72(sp)
#else
        /*
         * Test to see if the exception was a software exception or caused 
         * by an external interrupt, and vector accordingly.
         */
        rdctl r4, ipending
  420074:	0009313a 	rdctl	r4,ipending
        andi  r2, r5, 1
  420078:	2880004c 	andi	r2,r5,1
        beq   r2, zero, .Lnot_irq
  42007c:	10000326 	beq	r2,zero,42008c <alt_exception+0x6c>
        beq   r4, zero, .Lnot_irq
  420080:	20000226 	beq	r4,zero,42008c <alt_exception+0x6c>
        /*
         * Now that all necessary registers have been preserved, call 
         * alt_irq_handler() to process the interrupts.
         */

        call alt_irq_handler
  420084:	04200fc0 	call	4200fc <alt_irq_handler>

        .section .exceptions.irqreturn, "xa"

        br    .Lexception_exit
  420088:	00000706 	br	4200a8 <alt_exception+0x88>
         * upon completion, so we write ea (address of instruction *after*
         * the one where the exception occured) into 72(sp). The actual
         * instruction that caused the exception is written in r2, which these
         * handlers will utilize.
         */
        stw ea, 72(sp) /* EA is PC+4 so will skip over instruction causing exception */
  42008c:	df401215 	stw	ea,72(sp)
.Lunknown_16bit:
        addi.n r4, r4, 2 /* Need PC+2 to skip over instruction causing exception */
        stw r4, 72(sp)

#else /* CDX is not Enabled and all instructions are 32bits */
        ldw r2, -4(ea) /* Instruction value that caused exception */
  420090:	e8bfff17 	ldw	r2,-4(ea)
         * debugger is present) or go into an infinite loop since the
         * handling behavior is undefined; in that case we will not return here.
         */

        /* Load exception-causing address as first argument (r4) */
        addi   r4, ea, -4
  420094:	e93fff04 	addi	r4,ea,-4

        /* Call the instruction-exception entry */
        call   alt_instruction_exception_entry
  420098:	04201600 	call	420160 <alt_instruction_exception_entry>
         * instruction
         *
         * Return code was 0: Skip. The instruction after the exception is
         * already stored in 72(sp).
         */
        bne   r2, r0, .Lexception_exit
  42009c:	1000021e 	bne	r2,zero,4200a8 <alt_exception+0x88>

        /*
         * Otherwise, modify 72(sp) to re-issue the instruction that caused the
         * exception.
         */
        addi  r15, ea, -4  /* instruction that caused exception */
  4200a0:	ebffff04 	addi	r15,ea,-4
        stw   r15,  72(sp)
  4200a4:	dbc01215 	stw	r15,72(sp)
        /* 
         * Restore the saved registers, so that all general purpose registers 
         * have been restored to their state at the time the interrupt occured.
         */

        ldw   r5,  68(sp)
  4200a8:	d9401117 	ldw	r5,68(sp)
        ldw   ea,  72(sp)  /* This becomes the PC once eret is executed */
  4200ac:	df401217 	ldw	ea,72(sp)
        ldw   ra,   0(sp)
  4200b0:	dfc00017 	ldw	ra,0(sp)

        wrctl estatus, r5
  4200b4:	2801707a 	wrctl	estatus,r5

        ldw   r1,   8(sp)
  4200b8:	d8400217 	ldw	at,8(sp)
        ldw   r2,  12(sp)
  4200bc:	d8800317 	ldw	r2,12(sp)
        ldw   r3,  16(sp)
  4200c0:	d8c00417 	ldw	r3,16(sp)
        ldw   r4,  20(sp)
  4200c4:	d9000517 	ldw	r4,20(sp)
        ldw   r5,  24(sp)
  4200c8:	d9400617 	ldw	r5,24(sp)
        ldw   r6,  28(sp)
  4200cc:	d9800717 	ldw	r6,28(sp)
        ldw   r7,  32(sp)
  4200d0:	d9c00817 	ldw	r7,32(sp)

#if defined(ALT_EXCEPTION_STACK) && defined(ALT_STACK_CHECK)
        ldw   et, %gprel(alt_exception_old_stack_limit)(gp)
#endif

        ldw   r8,  36(sp)
  4200d4:	da000917 	ldw	r8,36(sp)
        ldw   r9,  40(sp)
  4200d8:	da400a17 	ldw	r9,40(sp)
        ldw   r10, 44(sp)
  4200dc:	da800b17 	ldw	r10,44(sp)
        ldw   r11, 48(sp)
  4200e0:	dac00c17 	ldw	r11,48(sp)
        ldw   r12, 52(sp)
  4200e4:	db000d17 	ldw	r12,52(sp)
        ldw   r13, 56(sp)
  4200e8:	db400e17 	ldw	r13,56(sp)
        ldw   r14, 60(sp)
  4200ec:	db800f17 	ldw	r14,60(sp)
        ldw   r15, 64(sp)
  4200f0:	dbc01017 	ldw	r15,64(sp)
        stw   et, %gprel(alt_stack_limit_value)(gp)
        stw   zero, %gprel(alt_exception_old_stack_limit)(gp)
#endif /* ALT_STACK_CHECK */
        ldw   sp,  76(sp)
#else /* ALT_EXCEPTION_STACK disabled */
        addi  sp, sp, 76
  4200f4:	dec01304 	addi	sp,sp,76

        /*
         * Return to the interrupted instruction.
         */

        eret
  4200f8:	ef80083a 	eret

004200fc <alt_irq_handler>:
  4200fc:	defffe04 	addi	sp,sp,-8
  420100:	dfc00115 	stw	ra,4(sp)
  420104:	dc000015 	stw	r16,0(sp)
  420108:	000b313a 	rdctl	r5,ipending
  42010c:	040010b4 	movhi	r16,66
  420110:	841a7604 	addi	r16,r16,27096
  420114:	2880004c 	andi	r2,r5,1
  420118:	0007883a 	mov	r3,zero
  42011c:	1000051e 	bne	r2,zero,420134 <alt_irq_handler+0x38>
  420120:	00800044 	movi	r2,1
  420124:	1085883a 	add	r2,r2,r2
  420128:	2888703a 	and	r4,r5,r2
  42012c:	18c00044 	addi	r3,r3,1
  420130:	203ffc26 	beq	r4,zero,420124 <plane+0xf83894c4>
  420134:	180690fa 	slli	r3,r3,3
  420138:	80c7883a 	add	r3,r16,r3
  42013c:	18800017 	ldw	r2,0(r3)
  420140:	19000117 	ldw	r4,4(r3)
  420144:	103ee83a 	callr	r2
  420148:	000b313a 	rdctl	r5,ipending
  42014c:	283ff11e 	bne	r5,zero,420114 <plane+0xf83894b4>
  420150:	dfc00117 	ldw	ra,4(sp)
  420154:	dc000017 	ldw	r16,0(sp)
  420158:	dec00204 	addi	sp,sp,8
  42015c:	f800283a 	ret

00420160 <alt_instruction_exception_entry>:
  420160:	d0a22317 	ldw	r2,-30580(gp)
  420164:	10000426 	beq	r2,zero,420178 <alt_instruction_exception_entry+0x18>
  420168:	200b883a 	mov	r5,r4
  42016c:	000d883a 	mov	r6,zero
  420170:	013fffc4 	movi	r4,-1
  420174:	1000683a 	jmp	r2
  420178:	003da03a 	break	0
  42017c:	0005883a 	mov	r2,zero
  420180:	f800283a 	ret

Disassembly of section .text:

00420184 <_start>:

    /*
     * Now that the caches are initialized, set up the stack pointer and global pointer.
     * The values provided by the linker are assumed to be correctly aligned.
     */
    movhi sp, %hi(__alt_stack_pointer)
  420184:	06c010f4 	movhi	sp,67
    ori sp, sp, %lo(__alt_stack_pointer)
  420188:	dec00014 	ori	sp,sp,0
    movhi gp, %hi(_gp)
  42018c:	068010b4 	movhi	gp,66
    ori gp, gp, %lo(_gp)
  420190:	d6b29214 	ori	gp,gp,51784
 */
#ifndef ALT_SIM_OPTIMIZE
    /* Log that the BSS is about to be cleared. */
    ALT_LOG_PUTS(alt_log_msg_bss)

    movhi r2, %hi(__bss_start)
  420194:	008010b4 	movhi	r2,66
    ori r2, r2, %lo(__bss_start)
  420198:	1094a514 	ori	r2,r2,21140

    movhi r3, %hi(__bss_end)
  42019c:	00c010b4 	movhi	r3,66
    ori r3, r3, %lo(__bss_end)
  4201a0:	18dab614 	ori	r3,r3,27352

    beq r2, r3, 1f
  4201a4:	10c00326 	beq	r2,r3,4201b4 <_start+0x30>

0:
    stw zero, (r2)
  4201a8:	10000015 	stw	zero,0(r2)
    addi r2, r2, 4
  4201ac:	10800104 	addi	r2,r2,4
    bltu r2, r3, 0b
  4201b0:	10fffd36 	bltu	r2,r3,4201a8 <plane+0xf8389548>
     * section aren't defined until alt_load() has been called).
     */
    mov   et, zero
#endif

    call alt_load
  4201b4:	04228480 	call	422848 <alt_load>

    /* Log that alt_main is about to be called. */
    ALT_LOG_PUTS(alt_log_msg_alt_main)

    /* Call the C entry point. It should never return. */
    call alt_main
  4201b8:	042295c0 	call	42295c <alt_main>

004201bc <alt_after_alt_main>:

    /* Wait in infinite loop in case alt_main does return. */
alt_after_alt_main:
    br alt_after_alt_main
  4201bc:	003fff06 	br	4201bc <plane+0xf838955c>

004201c0 <eth0_rx_ethernet_isr>:
  4201c0:	defffe04 	addi	sp,sp,-8
  4201c4:	dfc00115 	stw	ra,4(sp)
  4201c8:	010010b4 	movhi	r4,66
  4201cc:	2116ee04 	addi	r4,r4,23480
  4201d0:	04231c00 	call	4231c0 <alt_avalon_sgdma_check_descriptor_status>
  4201d4:	103ffc1e 	bne	r2,zero,4201c8 <plane+0xf8389568>
  4201d8:	014010b4 	movhi	r5,66
  4201dc:	010010b4 	movhi	r4,66
  4201e0:	2955ba04 	addi	r5,r5,22248
  4201e4:	21105a04 	addi	r4,r4,16744
  4201e8:	04229ac0 	call	4229ac <alt_printf>
  4201ec:	014010b4 	movhi	r5,66
  4201f0:	010010b4 	movhi	r4,66
  4201f4:	018010b4 	movhi	r6,66
  4201f8:	2956c604 	addi	r5,r5,23320
  4201fc:	2116ee04 	addi	r4,r4,23480
  420200:	3195b604 	addi	r6,r6,22232
  420204:	d8000015 	stw	zero,0(sp)
  420208:	000f883a 	mov	r7,zero
  42020c:	04231540 	call	423154 <alt_avalon_sgdma_construct_stream_to_mem_desc>
  420210:	d1221a17 	ldw	r4,-30616(gp)
  420214:	014010b4 	movhi	r5,66
  420218:	2956ee04 	addi	r5,r5,23480
  42021c:	dfc00117 	ldw	ra,4(sp)
  420220:	dec00204 	addi	sp,sp,8
  420224:	0422e141 	jmpi	422e14 <alt_avalon_sgdma_do_async_transfer>

00420228 <eth1_rx_ethernet_isr>:
  420228:	defffe04 	addi	sp,sp,-8
  42022c:	dfc00115 	stw	ra,4(sp)
  420230:	010010b4 	movhi	r4,66
  420234:	2116de04 	addi	r4,r4,23416
  420238:	04231c00 	call	4231c0 <alt_avalon_sgdma_check_descriptor_status>
  42023c:	103ffc1e 	bne	r2,zero,420230 <plane+0xf83895d0>
  420240:	014010b4 	movhi	r5,66
  420244:	010010b4 	movhi	r4,66
  420248:	2954ba04 	addi	r5,r5,21224
  42024c:	21105e04 	addi	r4,r4,16760
  420250:	04229ac0 	call	4229ac <alt_printf>
  420254:	014010b4 	movhi	r5,66
  420258:	010010b4 	movhi	r4,66
  42025c:	018010b4 	movhi	r6,66
  420260:	2956b604 	addi	r5,r5,23256
  420264:	2116de04 	addi	r4,r4,23416
  420268:	3194b604 	addi	r6,r6,21208
  42026c:	d8000015 	stw	zero,0(sp)
  420270:	000f883a 	mov	r7,zero
  420274:	04231540 	call	423154 <alt_avalon_sgdma_construct_stream_to_mem_desc>
  420278:	d1221717 	ldw	r4,-30628(gp)
  42027c:	014010b4 	movhi	r5,66
  420280:	2956de04 	addi	r5,r5,23416
  420284:	dfc00117 	ldw	ra,4(sp)
  420288:	dec00204 	addi	sp,sp,8
  42028c:	0422e141 	jmpi	422e14 <alt_avalon_sgdma_do_async_transfer>

00420290 <handle_player_plane_keyboard>:
  420290:	d2e00317 	ldw	r11,-32756(gp)
  420294:	d3e00217 	ldw	r15,-32760(gp)
  420298:	defff704 	addi	sp,sp,-36
  42029c:	030010b4 	movhi	r12,66
  4202a0:	038010b4 	movhi	r14,66
  4202a4:	dc000015 	stw	r16,0(sp)
  4202a8:	201b883a 	mov	r13,r4
  4202ac:	2821883a 	mov	r16,r5
  4202b0:	dfc00815 	stw	ra,32(sp)
  4202b4:	ddc00715 	stw	r23,28(sp)
  4202b8:	dd800615 	stw	r22,24(sp)
  4202bc:	dd400515 	stw	r21,20(sp)
  4202c0:	dd000415 	stw	r20,16(sp)
  4202c4:	dcc00315 	stw	r19,12(sp)
  4202c8:	dc800215 	stw	r18,8(sp)
  4202cc:	dc400115 	stw	r17,4(sp)
  4202d0:	01000044 	movi	r4,1
  4202d4:	0007883a 	mov	r3,zero
  4202d8:	000f883a 	mov	r7,zero
  4202dc:	0011883a 	mov	r8,zero
  4202e0:	000b883a 	mov	r5,zero
  4202e4:	000d883a 	mov	r6,zero
  4202e8:	02800084 	movi	r10,2
  4202ec:	02401384 	movi	r9,78
  4202f0:	6300c904 	addi	r12,r12,804
  4202f4:	7381c104 	addi	r14,r14,1796
  4202f8:	58c5883a 	add	r2,r11,r3
  4202fc:	10800104 	addi	r2,r2,4
  420300:	10800003 	ldbu	r2,0(r2)
  420304:	1800f626 	beq	r3,zero,4206e0 <handle_player_plane_keyboard+0x450>
  420308:	10bfff04 	addi	r2,r2,-4
  42030c:	10803fcc 	andi	r2,r2,255
  420310:	48805436 	bltu	r9,r2,420464 <handle_player_plane_keyboard+0x1d4>
  420314:	100490ba 	slli	r2,r2,2
  420318:	1305883a 	add	r2,r2,r12
  42031c:	10800017 	ldw	r2,0(r2)
  420320:	1000683a 	jmp	r2
  420324:	00420460 	cmpeqi	at,zero,2065
  420328:	00420464 	muli	at,zero,2065
  42032c:	00420464 	muli	at,zero,2065
  420330:	00420638 	rdprs	at,zero,2072
  420334:	00420464 	muli	at,zero,2065
  420338:	00420464 	muli	at,zero,2065
  42033c:	00420464 	muli	at,zero,2065
  420340:	00420464 	muli	at,zero,2065
  420344:	00420464 	muli	at,zero,2065
  420348:	00420464 	muli	at,zero,2065
  42034c:	00420464 	muli	at,zero,2065
  420350:	00420464 	muli	at,zero,2065
  420354:	00420464 	muli	at,zero,2065
  420358:	00420464 	muli	at,zero,2065
  42035c:	00420464 	muli	at,zero,2065
  420360:	00420464 	muli	at,zero,2065
  420364:	00420464 	muli	at,zero,2065
  420368:	00420464 	muli	at,zero,2065
  42036c:	00420630 	cmpltui	at,zero,2072
  420370:	00420464 	muli	at,zero,2065
  420374:	00420464 	muli	at,zero,2065
  420378:	00420464 	muli	at,zero,2065
  42037c:	00420628 	cmpgeui	at,zero,2072
  420380:	00420464 	muli	at,zero,2065
  420384:	00420464 	muli	at,zero,2065
  420388:	00420464 	muli	at,zero,2065
  42038c:	00420464 	muli	at,zero,2065
  420390:	00420464 	muli	at,zero,2065
  420394:	00420464 	muli	at,zero,2065
  420398:	00420464 	muli	at,zero,2065
  42039c:	00420464 	muli	at,zero,2065
  4203a0:	00420464 	muli	at,zero,2065
  4203a4:	00420464 	muli	at,zero,2065
  4203a8:	00420464 	muli	at,zero,2065
  4203ac:	00420464 	muli	at,zero,2065
  4203b0:	00420464 	muli	at,zero,2065
  4203b4:	00420464 	muli	at,zero,2065
  4203b8:	00420464 	muli	at,zero,2065
  4203bc:	00420464 	muli	at,zero,2065
  4203c0:	00420464 	muli	at,zero,2065
  4203c4:	00420464 	muli	at,zero,2065
  4203c8:	00420464 	muli	at,zero,2065
  4203cc:	00420464 	muli	at,zero,2065
  4203d0:	00420464 	muli	at,zero,2065
  4203d4:	00420464 	muli	at,zero,2065
  4203d8:	00420464 	muli	at,zero,2065
  4203dc:	00420464 	muli	at,zero,2065
  4203e0:	00420464 	muli	at,zero,2065
  4203e4:	00420464 	muli	at,zero,2065
  4203e8:	00420464 	muli	at,zero,2065
  4203ec:	00420464 	muli	at,zero,2065
  4203f0:	00420464 	muli	at,zero,2065
  4203f4:	00420464 	muli	at,zero,2065
  4203f8:	00420464 	muli	at,zero,2065
  4203fc:	00420464 	muli	at,zero,2065
  420400:	00420464 	muli	at,zero,2065
  420404:	00420464 	muli	at,zero,2065
  420408:	00420464 	muli	at,zero,2065
  42040c:	00420464 	muli	at,zero,2065
  420410:	00420464 	muli	at,zero,2065
  420414:	00420464 	muli	at,zero,2065
  420418:	00420464 	muli	at,zero,2065
  42041c:	00420464 	muli	at,zero,2065
  420420:	00420464 	muli	at,zero,2065
  420424:	00420464 	muli	at,zero,2065
  420428:	00420464 	muli	at,zero,2065
  42042c:	00420464 	muli	at,zero,2065
  420430:	00420464 	muli	at,zero,2065
  420434:	00420464 	muli	at,zero,2065
  420438:	00420464 	muli	at,zero,2065
  42043c:	00420464 	muli	at,zero,2065
  420440:	00420464 	muli	at,zero,2065
  420444:	00420464 	muli	at,zero,2065
  420448:	00420464 	muli	at,zero,2065
  42044c:	00420464 	muli	at,zero,2065
  420450:	00420638 	rdprs	at,zero,2072
  420454:	00420460 	cmpeqi	at,zero,2065
  420458:	00420630 	cmpltui	at,zero,2072
  42045c:	00420628 	cmpgeui	at,zero,2072
  420460:	01400044 	movi	r5,1
  420464:	2280591e 	bne	r4,r10,4205cc <handle_player_plane_keyboard+0x33c>
  420468:	31803fcc 	andi	r6,r6,255
  42046c:	42003fcc 	andi	r8,r8,255
  420470:	3000591e 	bne	r6,zero,4205d8 <handle_player_plane_keyboard+0x348>
  420474:	80800617 	ldw	r2,24(r16)
  420478:	4000771e 	bne	r8,zero,420658 <handle_player_plane_keyboard+0x3c8>
  42047c:	0080820e 	bge	zero,r2,420688 <handle_player_plane_keyboard+0x3f8>
  420480:	80800617 	ldw	r2,24(r16)
  420484:	10bffe04 	addi	r2,r2,-8
  420488:	80800615 	stw	r2,24(r16)
  42048c:	29403fcc 	andi	r5,r5,255
  420490:	39c03fcc 	andi	r7,r7,255
  420494:	28005b1e 	bne	r5,zero,420604 <handle_player_plane_keyboard+0x374>
  420498:	80800317 	ldw	r2,12(r16)
  42049c:	3800681e 	bne	r7,zero,420640 <handle_player_plane_keyboard+0x3b0>
  4204a0:	0080730e 	bge	zero,r2,420670 <handle_player_plane_keyboard+0x3e0>
  4204a4:	80800317 	ldw	r2,12(r16)
  4204a8:	10bffe04 	addi	r2,r2,-8
  4204ac:	80800315 	stw	r2,12(r16)
  4204b0:	010010b4 	movhi	r4,66
  4204b4:	2111a904 	addi	r4,r4,18084
  4204b8:	69403fcc 	andi	r5,r13,255
  4204bc:	04214240 	call	421424 <sprites_limit_speed>
  4204c0:	d1221417 	ldw	r4,-30640(gp)
  4204c4:	01400504 	movi	r5,20
  4204c8:	0421fcc0 	call	421fcc <__umodsi3>
  4204cc:	1000341e 	bne	r2,zero,4205a0 <handle_player_plane_keyboard+0x310>
  4204d0:	047fffc4 	movi	r17,-1
  4204d4:	04c03fc4 	movi	r19,255
  4204d8:	04800084 	movi	r18,2
  4204dc:	05c007c4 	movi	r23,31
  4204e0:	058a0004 	movi	r22,10240
  4204e4:	05760004 	movi	r21,-10240
  4204e8:	05078004 	movi	r20,7680
  4204ec:	010010b4 	movhi	r4,66
  4204f0:	2111a504 	addi	r4,r4,18068
  4204f4:	04211c00 	call	4211c0 <sprites_allocate>
  4204f8:	11403fcc 	andi	r5,r2,255
  4204fc:	2cc06826 	beq	r5,r19,4206a0 <handle_player_plane_keyboard+0x410>
  420500:	010010b4 	movhi	r4,66
  420504:	2111a504 	addi	r4,r4,18068
  420508:	04212f80 	call	4212f8 <sprites_get>
  42050c:	10007126 	beq	r2,zero,4206d4 <handle_player_plane_keyboard+0x444>
  420510:	11800017 	ldw	r6,0(r2)
  420514:	81400017 	ldw	r5,0(r16)
  420518:	8c47883a 	add	r3,r17,r17
  42051c:	18c9883a 	add	r4,r3,r3
  420520:	29400017 	ldw	r5,0(r5)
  420524:	80c00017 	ldw	r3,0(r16)
  420528:	18c00217 	ldw	r3,8(r3)
  42052c:	1806913a 	slli	r3,r3,4
  420530:	1807d07a 	srai	r3,r3,1
  420534:	1947883a 	add	r3,r3,r5
  420538:	30c00015 	stw	r3,0(r6)
  42053c:	10c00017 	ldw	r3,0(r2)
  420540:	81400017 	ldw	r5,0(r16)
  420544:	29400117 	ldw	r5,4(r5)
  420548:	19400115 	stw	r5,4(r3)
  42054c:	10c00017 	ldw	r3,0(r2)
  420550:	1c800215 	stw	r18,8(r3)
  420554:	10c00017 	ldw	r3,0(r2)
  420558:	1dc00315 	stw	r23,12(r3)
  42055c:	10000b15 	stw	zero,44(r2)
  420560:	80c00317 	ldw	r3,12(r16)
  420564:	20c7883a 	add	r3,r4,r3
  420568:	10c00315 	stw	r3,12(r2)
  42056c:	15800415 	stw	r22,16(r2)
  420570:	15400515 	stw	r21,20(r2)
  420574:	80c00617 	ldw	r3,24(r16)
  420578:	18fffe04 	addi	r3,r3,-8
  42057c:	10c00615 	stw	r3,24(r2)
  420580:	15000715 	stw	r20,28(r2)
  420584:	00f88004 	movi	r3,-7680
  420588:	10c00815 	stw	r3,32(r2)
  42058c:	14400915 	stw	r17,36(r2)
  420590:	00ffff04 	movi	r3,-4
  420594:	10c00a15 	stw	r3,40(r2)
  420598:	8c400044 	addi	r17,r17,1
  42059c:	8cbfd31e 	bne	r17,r18,4204ec <plane+0xf838988c>
  4205a0:	dfc00817 	ldw	ra,32(sp)
  4205a4:	ddc00717 	ldw	r23,28(sp)
  4205a8:	dd800617 	ldw	r22,24(sp)
  4205ac:	dd400517 	ldw	r21,20(sp)
  4205b0:	dd000417 	ldw	r20,16(sp)
  4205b4:	dcc00317 	ldw	r19,12(sp)
  4205b8:	dc800217 	ldw	r18,8(sp)
  4205bc:	dc400117 	ldw	r17,4(sp)
  4205c0:	dc000017 	ldw	r16,0(sp)
  4205c4:	dec00904 	addi	sp,sp,36
  4205c8:	f800283a 	ret
  4205cc:	18c00044 	addi	r3,r3,1
  4205d0:	21000044 	addi	r4,r4,1
  4205d4:	003f4806 	br	4202f8 <plane+0xf8389698>
  4205d8:	403fac1e 	bne	r8,zero,42048c <plane+0xf838982c>
  4205dc:	80800617 	ldw	r2,24(r16)
  4205e0:	00ffe804 	movi	r3,-96
  4205e4:	10bffc04 	addi	r2,r2,-16
  4205e8:	80800615 	stw	r2,24(r16)
  4205ec:	80800617 	ldw	r2,24(r16)
  4205f0:	10ffa60e 	bge	r2,r3,42048c <plane+0xf838982c>
  4205f4:	80c00615 	stw	r3,24(r16)
  4205f8:	29403fcc 	andi	r5,r5,255
  4205fc:	39c03fcc 	andi	r7,r7,255
  420600:	283fa526 	beq	r5,zero,420498 <plane+0xf8389838>
  420604:	383faa1e 	bne	r7,zero,4204b0 <plane+0xf8389850>
  420608:	80800317 	ldw	r2,12(r16)
  42060c:	00ffe804 	movi	r3,-96
  420610:	10bffc04 	addi	r2,r2,-16
  420614:	80800315 	stw	r2,12(r16)
  420618:	80800317 	ldw	r2,12(r16)
  42061c:	10ffa40e 	bge	r2,r3,4204b0 <plane+0xf8389850>
  420620:	80c00315 	stw	r3,12(r16)
  420624:	003fa206 	br	4204b0 <plane+0xf8389850>
  420628:	01800044 	movi	r6,1
  42062c:	003f8d06 	br	420464 <plane+0xf8389804>
  420630:	02000044 	movi	r8,1
  420634:	003f8b06 	br	420464 <plane+0xf8389804>
  420638:	01c00044 	movi	r7,1
  42063c:	003f8906 	br	420464 <plane+0xf8389804>
  420640:	10800404 	addi	r2,r2,16
  420644:	80800315 	stw	r2,12(r16)
  420648:	80800317 	ldw	r2,12(r16)
  42064c:	00c01804 	movi	r3,96
  420650:	18bf970e 	bge	r3,r2,4204b0 <plane+0xf8389850>
  420654:	003ff206 	br	420620 <plane+0xf83899c0>
  420658:	10800404 	addi	r2,r2,16
  42065c:	80800615 	stw	r2,24(r16)
  420660:	80800617 	ldw	r2,24(r16)
  420664:	00c01804 	movi	r3,96
  420668:	18bf880e 	bge	r3,r2,42048c <plane+0xf838982c>
  42066c:	003fe106 	br	4205f4 <plane+0xf8389994>
  420670:	80800317 	ldw	r2,12(r16)
  420674:	103f8e0e 	bge	r2,zero,4204b0 <plane+0xf8389850>
  420678:	80800317 	ldw	r2,12(r16)
  42067c:	10800204 	addi	r2,r2,8
  420680:	80800315 	stw	r2,12(r16)
  420684:	003f8a06 	br	4204b0 <plane+0xf8389850>
  420688:	80800617 	ldw	r2,24(r16)
  42068c:	103f7f0e 	bge	r2,zero,42048c <plane+0xf838982c>
  420690:	80800617 	ldw	r2,24(r16)
  420694:	10800204 	addi	r2,r2,8
  420698:	80800615 	stw	r2,24(r16)
  42069c:	003f7b06 	br	42048c <plane+0xf838982c>
  4206a0:	010010b4 	movhi	r4,66
  4206a4:	21108704 	addi	r4,r4,16924
  4206a8:	dfc00817 	ldw	ra,32(sp)
  4206ac:	ddc00717 	ldw	r23,28(sp)
  4206b0:	dd800617 	ldw	r22,24(sp)
  4206b4:	dd400517 	ldw	r21,20(sp)
  4206b8:	dd000417 	ldw	r20,16(sp)
  4206bc:	dcc00317 	ldw	r19,12(sp)
  4206c0:	dc800217 	ldw	r18,8(sp)
  4206c4:	dc400117 	ldw	r17,4(sp)
  4206c8:	dc000017 	ldw	r16,0(sp)
  4206cc:	dec00904 	addi	sp,sp,36
  4206d0:	04220881 	jmpi	422088 <printf>
  4206d4:	010010b4 	movhi	r4,66
  4206d8:	21108d04 	addi	r4,r4,16948
  4206dc:	003ff206 	br	4206a8 <plane+0xf8389a48>
  4206e0:	14403fcc 	andi	r17,r2,255
  4206e4:	10bfff04 	addi	r2,r2,-4
  4206e8:	7c400015 	stw	r17,0(r15)
  4206ec:	10803fcc 	andi	r2,r2,255
  4206f0:	48bfb636 	bltu	r9,r2,4205cc <plane+0xf838996c>
  4206f4:	100490ba 	slli	r2,r2,2
  4206f8:	1385883a 	add	r2,r2,r14
  4206fc:	10800017 	ldw	r2,0(r2)
  420700:	1000683a 	jmp	r2
  420704:	00420460 	cmpeqi	at,zero,2065
  420708:	004205cc 	andi	at,zero,2071
  42070c:	004205cc 	andi	at,zero,2071
  420710:	00420638 	rdprs	at,zero,2072
  420714:	004205cc 	andi	at,zero,2071
  420718:	004205cc 	andi	at,zero,2071
  42071c:	004205cc 	andi	at,zero,2071
  420720:	004205cc 	andi	at,zero,2071
  420724:	004205cc 	andi	at,zero,2071
  420728:	004205cc 	andi	at,zero,2071
  42072c:	004205cc 	andi	at,zero,2071
  420730:	004205cc 	andi	at,zero,2071
  420734:	004205cc 	andi	at,zero,2071
  420738:	004205cc 	andi	at,zero,2071
  42073c:	004205cc 	andi	at,zero,2071
  420740:	004205cc 	andi	at,zero,2071
  420744:	004205cc 	andi	at,zero,2071
  420748:	004205cc 	andi	at,zero,2071
  42074c:	00420630 	cmpltui	at,zero,2072
  420750:	004205cc 	andi	at,zero,2071
  420754:	004205cc 	andi	at,zero,2071
  420758:	004205cc 	andi	at,zero,2071
  42075c:	00420628 	cmpgeui	at,zero,2072
  420760:	004205cc 	andi	at,zero,2071
  420764:	004205cc 	andi	at,zero,2071
  420768:	004205cc 	andi	at,zero,2071
  42076c:	004205cc 	andi	at,zero,2071
  420770:	004205cc 	andi	at,zero,2071
  420774:	004205cc 	andi	at,zero,2071
  420778:	004205cc 	andi	at,zero,2071
  42077c:	004205cc 	andi	at,zero,2071
  420780:	004205cc 	andi	at,zero,2071
  420784:	004205cc 	andi	at,zero,2071
  420788:	004205cc 	andi	at,zero,2071
  42078c:	004205cc 	andi	at,zero,2071
  420790:	004205cc 	andi	at,zero,2071
  420794:	004205cc 	andi	at,zero,2071
  420798:	004205cc 	andi	at,zero,2071
  42079c:	004205cc 	andi	at,zero,2071
  4207a0:	004205cc 	andi	at,zero,2071
  4207a4:	004205cc 	andi	at,zero,2071
  4207a8:	004205cc 	andi	at,zero,2071
  4207ac:	004205cc 	andi	at,zero,2071
  4207b0:	004205cc 	andi	at,zero,2071
  4207b4:	004205cc 	andi	at,zero,2071
  4207b8:	004205cc 	andi	at,zero,2071
  4207bc:	004205cc 	andi	at,zero,2071
  4207c0:	004205cc 	andi	at,zero,2071
  4207c4:	004205cc 	andi	at,zero,2071
  4207c8:	004205cc 	andi	at,zero,2071
  4207cc:	004205cc 	andi	at,zero,2071
  4207d0:	004205cc 	andi	at,zero,2071
  4207d4:	004205cc 	andi	at,zero,2071
  4207d8:	004205cc 	andi	at,zero,2071
  4207dc:	004205cc 	andi	at,zero,2071
  4207e0:	004205cc 	andi	at,zero,2071
  4207e4:	004205cc 	andi	at,zero,2071
  4207e8:	004205cc 	andi	at,zero,2071
  4207ec:	004205cc 	andi	at,zero,2071
  4207f0:	004205cc 	andi	at,zero,2071
  4207f4:	004205cc 	andi	at,zero,2071
  4207f8:	004205cc 	andi	at,zero,2071
  4207fc:	004205cc 	andi	at,zero,2071
  420800:	004205cc 	andi	at,zero,2071
  420804:	004205cc 	andi	at,zero,2071
  420808:	004205cc 	andi	at,zero,2071
  42080c:	004205cc 	andi	at,zero,2071
  420810:	004205cc 	andi	at,zero,2071
  420814:	004205cc 	andi	at,zero,2071
  420818:	004205cc 	andi	at,zero,2071
  42081c:	004205cc 	andi	at,zero,2071
  420820:	004205cc 	andi	at,zero,2071
  420824:	004205cc 	andi	at,zero,2071
  420828:	004205cc 	andi	at,zero,2071
  42082c:	004205cc 	andi	at,zero,2071
  420830:	00420638 	rdprs	at,zero,2072
  420834:	00420460 	cmpeqi	at,zero,2065
  420838:	00420630 	cmpltui	at,zero,2072
  42083c:	00420628 	cmpgeui	at,zero,2072

00420840 <handle_enemy_planes_spawn>:
  420840:	d0a21417 	ldw	r2,-30640(gp)
  420844:	d0e21317 	ldw	r3,-30644(gp)
  420848:	18800136 	bltu	r3,r2,420850 <handle_enemy_planes_spawn+0x10>
  42084c:	f800283a 	ret
  420850:	010010b4 	movhi	r4,66
  420854:	defffd04 	addi	sp,sp,-12
  420858:	2111a904 	addi	r4,r4,18084
  42085c:	dc400115 	stw	r17,4(sp)
  420860:	dc000015 	stw	r16,0(sp)
  420864:	dfc00215 	stw	ra,8(sp)
  420868:	04211c00 	call	4211c0 <sprites_allocate>
  42086c:	04403fc4 	movi	r17,255
  420870:	14003fcc 	andi	r16,r2,255
  420874:	84409126 	beq	r16,r17,420abc <handle_enemy_planes_spawn+0x27c>
  420878:	01820274 	movhi	r6,2057
  42087c:	010010b4 	movhi	r4,66
  420880:	31980004 	addi	r6,r6,24576
  420884:	2111a904 	addi	r4,r4,18084
  420888:	01c18c04 	movi	r7,1584
  42088c:	800b883a 	mov	r5,r16
  420890:	04213800 	call	421380 <sprites_load_data>
  420894:	10803fcc 	andi	r2,r2,255
  420898:	14408f26 	beq	r2,r17,420ad8 <handle_enemy_planes_spawn+0x298>
  42089c:	010010b4 	movhi	r4,66
  4208a0:	800b883a 	mov	r5,r16
  4208a4:	2111a904 	addi	r4,r4,18084
  4208a8:	04212f80 	call	4212f8 <sprites_get>
  4208ac:	1021883a 	mov	r16,r2
  4208b0:	10009326 	beq	r2,zero,420b00 <handle_enemy_planes_spawn+0x2c0>
  4208b4:	0420ed80 	call	420ed8 <rng_generate>
  4208b8:	01411804 	movi	r5,1120
  4208bc:	1009883a 	mov	r4,r2
  4208c0:	0421fcc0 	call	421fcc <__umodsi3>
  4208c4:	1023883a 	mov	r17,r2
  4208c8:	00803bc4 	movi	r2,239
  4208cc:	14403b2e 	bgeu	r2,r17,4209bc <handle_enemy_planes_spawn+0x17c>
  4208d0:	008077c4 	movi	r2,479
  4208d4:	14405636 	bltu	r2,r17,420a30 <handle_enemy_planes_spawn+0x1f0>
  4208d8:	80c00017 	ldw	r3,0(r16)
  4208dc:	010a0004 	movi	r4,10240
  4208e0:	88bfc404 	addi	r2,r17,-240
  4208e4:	19000015 	stw	r4,0(r3)
  4208e8:	80c00017 	ldw	r3,0(r16)
  4208ec:	1004913a 	slli	r2,r2,4
  4208f0:	18800115 	stw	r2,4(r3)
  4208f4:	0420ed80 	call	420ed8 <rng_generate>
  4208f8:	1080004c 	andi	r2,r2,1
  4208fc:	10bfffc4 	addi	r2,r2,-1
  420900:	80800915 	stw	r2,36(r16)
  420904:	0420ed80 	call	420ed8 <rng_generate>
  420908:	1080004c 	andi	r2,r2,1
  42090c:	10bfffc4 	addi	r2,r2,-1
  420910:	80800a15 	stw	r2,40(r16)
  420914:	0420ed80 	call	420ed8 <rng_generate>
  420918:	10800fcc 	andi	r2,r2,63
  42091c:	0085c83a 	sub	r2,zero,r2
  420920:	80800315 	stw	r2,12(r16)
  420924:	00bfe004 	movi	r2,-128
  420928:	80800515 	stw	r2,20(r16)
  42092c:	80800917 	ldw	r2,36(r16)
  420930:	0080760e 	bge	zero,r2,420b0c <handle_enemy_planes_spawn+0x2cc>
  420934:	00bff804 	movi	r2,-32
  420938:	80800415 	stw	r2,16(r16)
  42093c:	0420ed80 	call	420ed8 <rng_generate>
  420940:	10800fcc 	andi	r2,r2,63
  420944:	80800615 	stw	r2,24(r16)
  420948:	008059c4 	movi	r2,359
  42094c:	1440360e 	bge	r2,r17,420a28 <handle_enemy_planes_spawn+0x1e8>
  420950:	00bffc04 	movi	r2,-16
  420954:	80800815 	stw	r2,32(r16)
  420958:	00802004 	movi	r2,128
  42095c:	80800715 	stw	r2,28(r16)
  420960:	00800044 	movi	r2,1
  420964:	80800b15 	stw	r2,44(r16)
  420968:	00800084 	movi	r2,2
  42096c:	80800c15 	stw	r2,48(r16)
  420970:	80800017 	ldw	r2,0(r16)
  420974:	00c00c04 	movi	r3,48
  420978:	10c00215 	stw	r3,8(r2)
  42097c:	80800017 	ldw	r2,0(r16)
  420980:	00c00844 	movi	r3,33
  420984:	10c00315 	stw	r3,12(r2)
  420988:	0420ed80 	call	420ed8 <rng_generate>
  42098c:	d4221417 	ldw	r16,-30640(gp)
  420990:	01400a04 	movi	r5,40
  420994:	1009883a 	mov	r4,r2
  420998:	0421fcc0 	call	421fcc <__umodsi3>
  42099c:	84000504 	addi	r16,r16,20
  4209a0:	1405883a 	add	r2,r2,r16
  4209a4:	d0a21315 	stw	r2,-30644(gp)
  4209a8:	dfc00217 	ldw	ra,8(sp)
  4209ac:	dc400117 	ldw	r17,4(sp)
  4209b0:	dc000017 	ldw	r16,0(sp)
  4209b4:	dec00304 	addi	sp,sp,12
  4209b8:	f800283a 	ret
  4209bc:	80c00017 	ldw	r3,0(r16)
  4209c0:	013f4044 	movi	r4,-767
  4209c4:	8804913a 	slli	r2,r17,4
  4209c8:	19000015 	stw	r4,0(r3)
  4209cc:	80c00017 	ldw	r3,0(r16)
  4209d0:	18800115 	stw	r2,4(r3)
  4209d4:	0420ed80 	call	420ed8 <rng_generate>
  4209d8:	1080004c 	andi	r2,r2,1
  4209dc:	10bfffc4 	addi	r2,r2,-1
  4209e0:	80800915 	stw	r2,36(r16)
  4209e4:	0420ed80 	call	420ed8 <rng_generate>
  4209e8:	1080004c 	andi	r2,r2,1
  4209ec:	10bfffc4 	addi	r2,r2,-1
  4209f0:	80800a15 	stw	r2,40(r16)
  4209f4:	0420ed80 	call	420ed8 <rng_generate>
  4209f8:	10800fcc 	andi	r2,r2,63
  4209fc:	80800315 	stw	r2,12(r16)
  420a00:	80800917 	ldw	r2,36(r16)
  420a04:	10003b16 	blt	r2,zero,420af4 <handle_enemy_planes_spawn+0x2b4>
  420a08:	80000515 	stw	zero,20(r16)
  420a0c:	00802004 	movi	r2,128
  420a10:	80800415 	stw	r2,16(r16)
  420a14:	0420ed80 	call	420ed8 <rng_generate>
  420a18:	10800fcc 	andi	r2,r2,63
  420a1c:	80800615 	stw	r2,24(r16)
  420a20:	00801dc4 	movi	r2,119
  420a24:	147fca36 	bltu	r2,r17,420950 <plane+0xf8389cf0>
  420a28:	80000815 	stw	zero,32(r16)
  420a2c:	003fca06 	br	420958 <plane+0xf8389cf8>
  420a30:	88bf8804 	addi	r2,r17,-480
  420a34:	80c00017 	ldw	r3,0(r16)
  420a38:	1004913a 	slli	r2,r2,4
  420a3c:	18800015 	stw	r2,0(r3)
  420a40:	80800017 	ldw	r2,0(r16)
  420a44:	10000115 	stw	zero,4(r2)
  420a48:	0420ed80 	call	420ed8 <rng_generate>
  420a4c:	10801fcc 	andi	r2,r2,127
  420a50:	10bff004 	addi	r2,r2,-64
  420a54:	80800315 	stw	r2,12(r16)
  420a58:	00809fc4 	movi	r2,639
  420a5c:	1440210e 	bge	r2,r17,420ae4 <handle_enemy_planes_spawn+0x2a4>
  420a60:	00bff004 	movi	r2,-64
  420a64:	80800515 	stw	r2,20(r16)
  420a68:	0080f004 	movi	r2,960
  420a6c:	14401e0e 	bge	r2,r17,420ae8 <handle_enemy_planes_spawn+0x2a8>
  420a70:	80000415 	stw	zero,16(r16)
  420a74:	00801004 	movi	r2,64
  420a78:	80800415 	stw	r2,16(r16)
  420a7c:	0420ed80 	call	420ed8 <rng_generate>
  420a80:	10800fcc 	andi	r2,r2,63
  420a84:	80800615 	stw	r2,24(r16)
  420a88:	00800804 	movi	r2,32
  420a8c:	80800815 	stw	r2,32(r16)
  420a90:	00804004 	movi	r2,256
  420a94:	80800715 	stw	r2,28(r16)
  420a98:	0420ed80 	call	420ed8 <rng_generate>
  420a9c:	1080004c 	andi	r2,r2,1
  420aa0:	10bfffc4 	addi	r2,r2,-1
  420aa4:	80800915 	stw	r2,36(r16)
  420aa8:	0420ed80 	call	420ed8 <rng_generate>
  420aac:	1080004c 	andi	r2,r2,1
  420ab0:	10bfffc4 	addi	r2,r2,-1
  420ab4:	80800a15 	stw	r2,40(r16)
  420ab8:	003fa906 	br	420960 <plane+0xf8389d00>
  420abc:	010010b4 	movhi	r4,66
  420ac0:	21108704 	addi	r4,r4,16924
  420ac4:	dfc00217 	ldw	ra,8(sp)
  420ac8:	dc400117 	ldw	r17,4(sp)
  420acc:	dc000017 	ldw	r16,0(sp)
  420ad0:	dec00304 	addi	sp,sp,12
  420ad4:	04220881 	jmpi	422088 <printf>
  420ad8:	010010b4 	movhi	r4,66
  420adc:	21109104 	addi	r4,r4,16964
  420ae0:	003ff806 	br	420ac4 <plane+0xf8389e64>
  420ae4:	80000515 	stw	zero,20(r16)
  420ae8:	00801004 	movi	r2,64
  420aec:	80800415 	stw	r2,16(r16)
  420af0:	003fe006 	br	420a74 <plane+0xf8389e14>
  420af4:	00800804 	movi	r2,32
  420af8:	80800515 	stw	r2,20(r16)
  420afc:	003fc306 	br	420a0c <plane+0xf8389dac>
  420b00:	010010b4 	movhi	r4,66
  420b04:	21108d04 	addi	r4,r4,16948
  420b08:	003fee06 	br	420ac4 <plane+0xf8389e64>
  420b0c:	80000415 	stw	zero,16(r16)
  420b10:	003f8a06 	br	42093c <plane+0xf8389cdc>

00420b14 <handle_enemy_planes_firing>:
  420b14:	defff604 	addi	sp,sp,-40
  420b18:	df000815 	stw	fp,32(sp)
  420b1c:	070010b4 	movhi	fp,66
  420b20:	dfc00915 	stw	ra,36(sp)
  420b24:	ddc00715 	stw	r23,28(sp)
  420b28:	dd800615 	stw	r22,24(sp)
  420b2c:	dd400515 	stw	r21,20(sp)
  420b30:	dd000415 	stw	r20,16(sp)
  420b34:	dcc00315 	stw	r19,12(sp)
  420b38:	dc800215 	stw	r18,8(sp)
  420b3c:	dc400115 	stw	r17,4(sp)
  420b40:	dc000015 	stw	r16,0(sp)
  420b44:	e711a904 	addi	fp,fp,18084
  420b48:	e0800003 	ldbu	r2,0(fp)
  420b4c:	10004526 	beq	r2,zero,420c64 <handle_enemy_planes_firing+0x150>
  420b50:	002f883a 	mov	r23,zero
  420b54:	04400044 	movi	r17,1
  420b58:	04803fc4 	movi	r18,255
  420b5c:	05800084 	movi	r22,2
  420b60:	057e0014 	movui	r21,63488
  420b64:	050a0004 	movi	r20,10240
  420b68:	04f60004 	movi	r19,-10240
  420b6c:	00000206 	br	420b78 <handle_enemy_planes_firing+0x64>
  420b70:	e0800003 	ldbu	r2,0(fp)
  420b74:	b8803b0e 	bge	r23,r2,420c64 <handle_enemy_planes_firing+0x150>
  420b78:	b809883a 	mov	r4,r23
  420b7c:	01400e04 	movi	r5,56
  420b80:	04220240 	call	422024 <__mulsi3>
  420b84:	e4000317 	ldw	r16,12(fp)
  420b88:	bdc00044 	addi	r23,r23,1
  420b8c:	80a1883a 	add	r16,r16,r2
  420b90:	80800217 	ldw	r2,8(r16)
  420b94:	103ff626 	beq	r2,zero,420b70 <plane+0xf8389f10>
  420b98:	80800b17 	ldw	r2,44(r16)
  420b9c:	147ff41e 	bne	r2,r17,420b70 <plane+0xf8389f10>
  420ba0:	d1221417 	ldw	r4,-30640(gp)
  420ba4:	01400844 	movi	r5,33
  420ba8:	0421fcc0 	call	421fcc <__umodsi3>
  420bac:	103ff01e 	bne	r2,zero,420b70 <plane+0xf8389f10>
  420bb0:	010010b4 	movhi	r4,66
  420bb4:	2111a504 	addi	r4,r4,18068
  420bb8:	04211c00 	call	4211c0 <sprites_allocate>
  420bbc:	010010b4 	movhi	r4,66
  420bc0:	10803fcc 	andi	r2,r2,255
  420bc4:	2111a504 	addi	r4,r4,18068
  420bc8:	100b883a 	mov	r5,r2
  420bcc:	14803126 	beq	r2,r18,420c94 <handle_enemy_planes_firing+0x180>
  420bd0:	04212f80 	call	4212f8 <sprites_get>
  420bd4:	10003d26 	beq	r2,zero,420ccc <handle_enemy_planes_firing+0x1b8>
  420bd8:	11400017 	ldw	r5,0(r2)
  420bdc:	80c00017 	ldw	r3,0(r16)
  420be0:	19000017 	ldw	r4,0(r3)
  420be4:	80c00017 	ldw	r3,0(r16)
  420be8:	18c00217 	ldw	r3,8(r3)
  420bec:	1806913a 	slli	r3,r3,4
  420bf0:	1807d07a 	srai	r3,r3,1
  420bf4:	1907883a 	add	r3,r3,r4
  420bf8:	28c00015 	stw	r3,0(r5)
  420bfc:	11400017 	ldw	r5,0(r2)
  420c00:	80c00017 	ldw	r3,0(r16)
  420c04:	19000117 	ldw	r4,4(r3)
  420c08:	80c00017 	ldw	r3,0(r16)
  420c0c:	18c00317 	ldw	r3,12(r3)
  420c10:	1806913a 	slli	r3,r3,4
  420c14:	1907883a 	add	r3,r3,r4
  420c18:	28c00115 	stw	r3,4(r5)
  420c1c:	10c00017 	ldw	r3,0(r2)
  420c20:	1d800215 	stw	r22,8(r3)
  420c24:	10c00017 	ldw	r3,0(r2)
  420c28:	1d400315 	stw	r21,12(r3)
  420c2c:	14400b15 	stw	r17,44(r2)
  420c30:	10000315 	stw	zero,12(r2)
  420c34:	10000615 	stw	zero,24(r2)
  420c38:	15000415 	stw	r20,16(r2)
  420c3c:	14c00515 	stw	r19,20(r2)
  420c40:	10000615 	stw	zero,24(r2)
  420c44:	00c78004 	movi	r3,7680
  420c48:	10c00715 	stw	r3,28(r2)
  420c4c:	00f88004 	movi	r3,-7680
  420c50:	10c00815 	stw	r3,32(r2)
  420c54:	10000915 	stw	zero,36(r2)
  420c58:	14400a15 	stw	r17,40(r2)
  420c5c:	e0800003 	ldbu	r2,0(fp)
  420c60:	b8bfc516 	blt	r23,r2,420b78 <plane+0xf8389f18>
  420c64:	dfc00917 	ldw	ra,36(sp)
  420c68:	df000817 	ldw	fp,32(sp)
  420c6c:	ddc00717 	ldw	r23,28(sp)
  420c70:	dd800617 	ldw	r22,24(sp)
  420c74:	dd400517 	ldw	r21,20(sp)
  420c78:	dd000417 	ldw	r20,16(sp)
  420c7c:	dcc00317 	ldw	r19,12(sp)
  420c80:	dc800217 	ldw	r18,8(sp)
  420c84:	dc400117 	ldw	r17,4(sp)
  420c88:	dc000017 	ldw	r16,0(sp)
  420c8c:	dec00a04 	addi	sp,sp,40
  420c90:	f800283a 	ret
  420c94:	010010b4 	movhi	r4,66
  420c98:	21108704 	addi	r4,r4,16924
  420c9c:	dfc00917 	ldw	ra,36(sp)
  420ca0:	df000817 	ldw	fp,32(sp)
  420ca4:	ddc00717 	ldw	r23,28(sp)
  420ca8:	dd800617 	ldw	r22,24(sp)
  420cac:	dd400517 	ldw	r21,20(sp)
  420cb0:	dd000417 	ldw	r20,16(sp)
  420cb4:	dcc00317 	ldw	r19,12(sp)
  420cb8:	dc800217 	ldw	r18,8(sp)
  420cbc:	dc400117 	ldw	r17,4(sp)
  420cc0:	dc000017 	ldw	r16,0(sp)
  420cc4:	dec00a04 	addi	sp,sp,40
  420cc8:	04220881 	jmpi	422088 <printf>
  420ccc:	010010b4 	movhi	r4,66
  420cd0:	21108d04 	addi	r4,r4,16948
  420cd4:	003ff106 	br	420c9c <plane+0xf838a03c>

00420cd8 <main>:
  420cd8:	010010b4 	movhi	r4,66
  420cdc:	defffa04 	addi	sp,sp,-24
  420ce0:	21106204 	addi	r4,r4,16776
  420ce4:	dfc00515 	stw	ra,20(sp)
  420ce8:	dc000415 	stw	r16,16(sp)
  420cec:	04221540 	call	422154 <puts>
  420cf0:	010010b4 	movhi	r4,66
  420cf4:	21106504 	addi	r4,r4,16788
  420cf8:	04231ec0 	call	4231ec <alt_avalon_sgdma_open>
  420cfc:	010010b4 	movhi	r4,66
  420d00:	21106a04 	addi	r4,r4,16808
  420d04:	d0a21915 	stw	r2,-30620(gp)
  420d08:	04231ec0 	call	4231ec <alt_avalon_sgdma_open>
  420d0c:	010010b4 	movhi	r4,66
  420d10:	21106f04 	addi	r4,r4,16828
  420d14:	d0a21a15 	stw	r2,-30616(gp)
  420d18:	04231ec0 	call	4231ec <alt_avalon_sgdma_open>
  420d1c:	010010b4 	movhi	r4,66
  420d20:	21107404 	addi	r4,r4,16848
  420d24:	d0a21615 	stw	r2,-30632(gp)
  420d28:	04231ec0 	call	4231ec <alt_avalon_sgdma_open>
  420d2c:	d1221a17 	ldw	r4,-30616(gp)
  420d30:	014010b4 	movhi	r5,66
  420d34:	29407004 	addi	r5,r5,448
  420d38:	000f883a 	mov	r7,zero
  420d3c:	01800504 	movi	r6,20
  420d40:	d0a21715 	stw	r2,-30628(gp)
  420d44:	042317c0 	call	42317c <alt_avalon_sgdma_register_callback>
  420d48:	018010b4 	movhi	r6,66
  420d4c:	014010b4 	movhi	r5,66
  420d50:	010010b4 	movhi	r4,66
  420d54:	3195b604 	addi	r6,r6,22232
  420d58:	000f883a 	mov	r7,zero
  420d5c:	2956c604 	addi	r5,r5,23320
  420d60:	2116ee04 	addi	r4,r4,23480
  420d64:	d8000015 	stw	zero,0(sp)
  420d68:	04231540 	call	423154 <alt_avalon_sgdma_construct_stream_to_mem_desc>
  420d6c:	d1221a17 	ldw	r4,-30616(gp)
  420d70:	014010b4 	movhi	r5,66
  420d74:	2956ee04 	addi	r5,r5,23480
  420d78:	0422e140 	call	422e14 <alt_avalon_sgdma_do_async_transfer>
  420d7c:	d1221717 	ldw	r4,-30628(gp)
  420d80:	014010b4 	movhi	r5,66
  420d84:	29408a04 	addi	r5,r5,552
  420d88:	000f883a 	mov	r7,zero
  420d8c:	01800504 	movi	r6,20
  420d90:	042317c0 	call	42317c <alt_avalon_sgdma_register_callback>
  420d94:	018010b4 	movhi	r6,66
  420d98:	014010b4 	movhi	r5,66
  420d9c:	010010b4 	movhi	r4,66
  420da0:	3194b604 	addi	r6,r6,21208
  420da4:	000f883a 	mov	r7,zero
  420da8:	2956b604 	addi	r5,r5,23256
  420dac:	2116de04 	addi	r4,r4,23416
  420db0:	d8000015 	stw	zero,0(sp)
  420db4:	04231540 	call	423154 <alt_avalon_sgdma_construct_stream_to_mem_desc>
  420db8:	d1221717 	ldw	r4,-30628(gp)
  420dbc:	014010b4 	movhi	r5,66
  420dc0:	2956de04 	addi	r5,r5,23416
  420dc4:	0422e140 	call	422e14 <alt_avalon_sgdma_do_async_transfer>
  420dc8:	010010b4 	movhi	r4,66
  420dcc:	21107904 	addi	r4,r4,16868
  420dd0:	04221540 	call	422154 <puts>
  420dd4:	01401134 	movhi	r5,68
  420dd8:	29461004 	addi	r5,r5,6208
  420ddc:	28c00017 	ldw	r3,0(r5)
  420de0:	01001134 	movhi	r4,68
  420de4:	21061404 	addi	r4,r4,6224
  420de8:	18c01814 	ori	r3,r3,96
  420dec:	28c00015 	stw	r3,0(r5)
  420df0:	20c00017 	ldw	r3,0(r4)
  420df4:	00801134 	movhi	r2,68
  420df8:	10860004 	addi	r2,r2,6144
  420dfc:	18c02094 	ori	r3,r3,130
  420e00:	20c00015 	stw	r3,0(r4)
  420e04:	10c00017 	ldw	r3,0(r2)
  420e08:	100d883a 	mov	r6,r2
  420e0c:	18e00014 	ori	r3,r3,32768
  420e10:	10c00015 	stw	r3,0(r2)
  420e14:	30800017 	ldw	r2,0(r6)
  420e18:	10a0000c 	andi	r2,r2,32768
  420e1c:	103ffd1e 	bne	r2,zero,420e14 <plane+0xf838a1b4>
  420e20:	010010b4 	movhi	r4,66
  420e24:	21107e04 	addi	r4,r4,16888
  420e28:	04221540 	call	422154 <puts>
  420e2c:	01401134 	movhi	r5,68
  420e30:	29463004 	addi	r5,r5,6336
  420e34:	28c00017 	ldw	r3,0(r5)
  420e38:	01001134 	movhi	r4,68
  420e3c:	21063404 	addi	r4,r4,6352
  420e40:	18c01814 	ori	r3,r3,96
  420e44:	28c00015 	stw	r3,0(r5)
  420e48:	20c00017 	ldw	r3,0(r4)
  420e4c:	00801134 	movhi	r2,68
  420e50:	10862004 	addi	r2,r2,6272
  420e54:	18c02094 	ori	r3,r3,130
  420e58:	20c00015 	stw	r3,0(r4)
  420e5c:	10c00017 	ldw	r3,0(r2)
  420e60:	100d883a 	mov	r6,r2
  420e64:	18e00014 	ori	r3,r3,32768
  420e68:	10c00015 	stw	r3,0(r2)
  420e6c:	30800017 	ldw	r2,0(r6)
  420e70:	10a0000c 	andi	r2,r2,32768
  420e74:	103ffd1e 	bne	r2,zero,420e6c <plane+0xf838a20c>
  420e78:	010010b4 	movhi	r4,66
  420e7c:	21108304 	addi	r4,r4,16908
  420e80:	04000044 	movi	r16,1
  420e84:	04221540 	call	422154 <puts>
  420e88:	018010b4 	movhi	r6,66
  420e8c:	014010b4 	movhi	r5,66
  420e90:	010010b4 	movhi	r4,66
  420e94:	3190a504 	addi	r6,r6,17044
  420e98:	01c00f84 	movi	r7,62
  420e9c:	2956d604 	addi	r5,r5,23384
  420ea0:	2116be04 	addi	r4,r4,23288
  420ea4:	d8000315 	stw	zero,12(sp)
  420ea8:	dc000215 	stw	r16,8(sp)
  420eac:	dc000115 	stw	r16,4(sp)
  420eb0:	d8000015 	stw	zero,0(sp)
  420eb4:	042343c0 	call	42343c <alt_avalon_sgdma_construct_mem_to_stream_desc>
  420eb8:	d1221917 	ldw	r4,-30620(gp)
  420ebc:	014010b4 	movhi	r5,66
  420ec0:	2956be04 	addi	r5,r5,23288
  420ec4:	0422e9c0 	call	422e9c <alt_avalon_sgdma_do_sync_transfer>
  420ec8:	010000b4 	movhi	r4,2
  420ecc:	2121a804 	addi	r4,r4,-31072
  420ed0:	0422b340 	call	422b34 <usleep>
  420ed4:	003fec06 	br	420e88 <plane+0xf838a228>

00420ed8 <rng_generate>:
  420ed8:	d1221b17 	ldw	r4,-30612(gp)
  420edc:	015071b4 	movhi	r5,16838
  420ee0:	deffff04 	addi	sp,sp,-4
  420ee4:	29539b44 	addi	r5,r5,20077
  420ee8:	dfc00015 	stw	ra,0(sp)
  420eec:	04220240 	call	422024 <__mulsi3>
  420ef0:	00e00034 	movhi	r3,32768
  420ef4:	18ffffc4 	addi	r3,r3,-1
  420ef8:	108c0e44 	addi	r2,r2,12345
  420efc:	10c4703a 	and	r2,r2,r3
  420f00:	d0a21b15 	stw	r2,-30612(gp)
  420f04:	dfc00017 	ldw	ra,0(sp)
  420f08:	dec00104 	addi	sp,sp,4
  420f0c:	f800283a 	ret

00420f10 <sprites_deallocate.part.0>:
  420f10:	defffe04 	addi	sp,sp,-8
  420f14:	28803fcc 	andi	r2,r5,255
  420f18:	dc000015 	stw	r16,0(sp)
  420f1c:	01400e04 	movi	r5,56
  420f20:	2021883a 	mov	r16,r4
  420f24:	1009883a 	mov	r4,r2
  420f28:	dfc00115 	stw	ra,4(sp)
  420f2c:	04220240 	call	422024 <__mulsi3>
  420f30:	80c00317 	ldw	r3,12(r16)
  420f34:	1009883a 	mov	r4,r2
  420f38:	1887883a 	add	r3,r3,r2
  420f3c:	18800217 	ldw	r2,8(r3)
  420f40:	1000051e 	bne	r2,zero,420f58 <sprites_deallocate.part.0+0x48>
  420f44:	00bfffc4 	movi	r2,-1
  420f48:	dfc00117 	ldw	ra,4(sp)
  420f4c:	dc000017 	ldw	r16,0(sp)
  420f50:	dec00204 	addi	sp,sp,8
  420f54:	f800283a 	ret
  420f58:	19400017 	ldw	r5,0(r3)
  420f5c:	0005883a 	mov	r2,zero
  420f60:	28000015 	stw	zero,0(r5)
  420f64:	19400017 	ldw	r5,0(r3)
  420f68:	28000115 	stw	zero,4(r5)
  420f6c:	18c00017 	ldw	r3,0(r3)
  420f70:	18000215 	stw	zero,8(r3)
  420f74:	80c00317 	ldw	r3,12(r16)
  420f78:	1907883a 	add	r3,r3,r4
  420f7c:	18c00017 	ldw	r3,0(r3)
  420f80:	18000315 	stw	zero,12(r3)
  420f84:	80c00317 	ldw	r3,12(r16)
  420f88:	1909883a 	add	r4,r3,r4
  420f8c:	20000215 	stw	zero,8(r4)
  420f90:	dfc00117 	ldw	ra,4(sp)
  420f94:	dc000017 	ldw	r16,0(sp)
  420f98:	dec00204 	addi	sp,sp,8
  420f9c:	f800283a 	ret

00420fa0 <sprites_visible.part.1>:
  420fa0:	defffe04 	addi	sp,sp,-8
  420fa4:	28803fcc 	andi	r2,r5,255
  420fa8:	dc000015 	stw	r16,0(sp)
  420fac:	01400e04 	movi	r5,56
  420fb0:	2021883a 	mov	r16,r4
  420fb4:	1009883a 	mov	r4,r2
  420fb8:	dfc00115 	stw	ra,4(sp)
  420fbc:	04220240 	call	422024 <__mulsi3>
  420fc0:	80c00317 	ldw	r3,12(r16)
  420fc4:	1885883a 	add	r2,r3,r2
  420fc8:	10c00217 	ldw	r3,8(r2)
  420fcc:	18000626 	beq	r3,zero,420fe8 <sprites_visible.part.1+0x48>
  420fd0:	00c010b4 	movhi	r3,66
  420fd4:	18d1a904 	addi	r3,r3,18084
  420fd8:	80c02726 	beq	r16,r3,421078 <sprites_visible.part.1+0xd8>
  420fdc:	00c010b4 	movhi	r3,66
  420fe0:	18d1a504 	addi	r3,r3,18068
  420fe4:	80c00526 	beq	r16,r3,420ffc <sprites_visible.part.1+0x5c>
  420fe8:	0005883a 	mov	r2,zero
  420fec:	dfc00117 	ldw	ra,4(sp)
  420ff0:	dc000017 	ldw	r16,0(sp)
  420ff4:	dec00204 	addi	sp,sp,8
  420ff8:	f800283a 	ret
  420ffc:	10c00017 	ldw	r3,0(r2)
  421000:	19000017 	ldw	r4,0(r3)
  421004:	10c00017 	ldw	r3,0(r2)
  421008:	18c00217 	ldw	r3,8(r3)
  42100c:	1806913a 	slli	r3,r3,4
  421010:	20c7c83a 	sub	r3,r4,r3
  421014:	0109ffc4 	movi	r4,10239
  421018:	20fff316 	blt	r4,r3,420fe8 <plane+0xf838a388>
  42101c:	10c00017 	ldw	r3,0(r2)
  421020:	19000117 	ldw	r4,4(r3)
  421024:	10c00017 	ldw	r3,0(r2)
  421028:	18c00217 	ldw	r3,8(r3)
  42102c:	1806913a 	slli	r3,r3,4
  421030:	20c7c83a 	sub	r3,r4,r3
  421034:	01077fc4 	movi	r4,7679
  421038:	20ffeb16 	blt	r4,r3,420fe8 <plane+0xf838a388>
  42103c:	10c00017 	ldw	r3,0(r2)
  421040:	19000017 	ldw	r4,0(r3)
  421044:	10c00017 	ldw	r3,0(r2)
  421048:	18c00217 	ldw	r3,8(r3)
  42104c:	1806913a 	slli	r3,r3,4
  421050:	1907883a 	add	r3,r3,r4
  421054:	183fe416 	blt	r3,zero,420fe8 <plane+0xf838a388>
  421058:	10c00017 	ldw	r3,0(r2)
  42105c:	18c00117 	ldw	r3,4(r3)
  421060:	10800017 	ldw	r2,0(r2)
  421064:	10800217 	ldw	r2,8(r2)
  421068:	1004913a 	slli	r2,r2,4
  42106c:	10c5883a 	add	r2,r2,r3
  421070:	1004403a 	cmpge	r2,r2,zero
  421074:	003fdd06 	br	420fec <plane+0xf838a38c>
  421078:	10c00017 	ldw	r3,0(r2)
  42107c:	0109ffc4 	movi	r4,10239
  421080:	18c00017 	ldw	r3,0(r3)
  421084:	20ffd816 	blt	r4,r3,420fe8 <plane+0xf838a388>
  421088:	10c00017 	ldw	r3,0(r2)
  42108c:	01077fc4 	movi	r4,7679
  421090:	18c00117 	ldw	r3,4(r3)
  421094:	20ffd416 	blt	r4,r3,420fe8 <plane+0xf838a388>
  421098:	10c00017 	ldw	r3,0(r2)
  42109c:	19000017 	ldw	r4,0(r3)
  4210a0:	10c00017 	ldw	r3,0(r2)
  4210a4:	18c00217 	ldw	r3,8(r3)
  4210a8:	1806913a 	slli	r3,r3,4
  4210ac:	1907883a 	add	r3,r3,r4
  4210b0:	183fcd16 	blt	r3,zero,420fe8 <plane+0xf838a388>
  4210b4:	10c00017 	ldw	r3,0(r2)
  4210b8:	18c00117 	ldw	r3,4(r3)
  4210bc:	10800017 	ldw	r2,0(r2)
  4210c0:	10800317 	ldw	r2,12(r2)
  4210c4:	1004913a 	slli	r2,r2,4
  4210c8:	10c5883a 	add	r2,r2,r3
  4210cc:	1004403a 	cmpge	r2,r2,zero
  4210d0:	003fc606 	br	420fec <plane+0xf838a38c>

004210d4 <sprites_init>:
  4210d4:	20800003 	ldbu	r2,0(r4)
  4210d8:	10003826 	beq	r2,zero,4211bc <sprites_init+0xe8>
  4210dc:	defffc04 	addi	sp,sp,-16
  4210e0:	dc800215 	stw	r18,8(sp)
  4210e4:	dc400115 	stw	r17,4(sp)
  4210e8:	dc000015 	stw	r16,0(sp)
  4210ec:	dfc00315 	stw	ra,12(sp)
  4210f0:	2025883a 	mov	r18,r4
  4210f4:	24000317 	ldw	r16,12(r4)
  4210f8:	0023883a 	mov	r17,zero
  4210fc:	00000606 	br	421118 <sprites_init+0x44>
  421100:	28c00017 	ldw	r3,0(r5)
  421104:	8085883a 	add	r2,r16,r2
  421108:	8c400044 	addi	r17,r17,1
  42110c:	10c00115 	stw	r3,4(r2)
  421110:	90800003 	ldbu	r2,0(r18)
  421114:	8880240e 	bge	r17,r2,4211a8 <sprites_init+0xd4>
  421118:	8809883a 	mov	r4,r17
  42111c:	01400e04 	movi	r5,56
  421120:	04220240 	call	422024 <__mulsi3>
  421124:	8087883a 	add	r3,r16,r2
  421128:	18000215 	stw	zero,8(r3)
  42112c:	18000315 	stw	zero,12(r3)
  421130:	18000615 	stw	zero,24(r3)
  421134:	18000915 	stw	zero,36(r3)
  421138:	91000217 	ldw	r4,8(r18)
  42113c:	880a913a 	slli	r5,r17,4
  421140:	18000a15 	stw	zero,40(r3)
  421144:	18000b15 	stw	zero,44(r3)
  421148:	18000d15 	stw	zero,52(r3)
  42114c:	214b883a 	add	r5,r4,r5
  421150:	19400015 	stw	r5,0(r3)
  421154:	19000017 	ldw	r4,0(r3)
  421158:	8c4b883a 	add	r5,r17,r17
  42115c:	294b883a 	add	r5,r5,r5
  421160:	20000015 	stw	zero,0(r4)
  421164:	19000017 	ldw	r4,0(r3)
  421168:	20000115 	stw	zero,4(r4)
  42116c:	18c00017 	ldw	r3,0(r3)
  421170:	18000215 	stw	zero,8(r3)
  421174:	90c00317 	ldw	r3,12(r18)
  421178:	1887883a 	add	r3,r3,r2
  42117c:	18c00017 	ldw	r3,0(r3)
  421180:	18000315 	stw	zero,12(r3)
  421184:	90c00117 	ldw	r3,4(r18)
  421188:	94000317 	ldw	r16,12(r18)
  42118c:	194b883a 	add	r5,r3,r5
  421190:	183fdb1e 	bne	r3,zero,421100 <plane+0xf838a4a0>
  421194:	8085883a 	add	r2,r16,r2
  421198:	10000115 	stw	zero,4(r2)
  42119c:	90800003 	ldbu	r2,0(r18)
  4211a0:	8c400044 	addi	r17,r17,1
  4211a4:	88bfdc16 	blt	r17,r2,421118 <plane+0xf838a4b8>
  4211a8:	dfc00317 	ldw	ra,12(sp)
  4211ac:	dc800217 	ldw	r18,8(sp)
  4211b0:	dc400117 	ldw	r17,4(sp)
  4211b4:	dc000017 	ldw	r16,0(sp)
  4211b8:	dec00404 	addi	sp,sp,16
  4211bc:	f800283a 	ret

004211c0 <sprites_allocate>:
  4211c0:	defffa04 	addi	sp,sp,-24
  4211c4:	dfc00515 	stw	ra,20(sp)
  4211c8:	dd000415 	stw	r20,16(sp)
  4211cc:	dcc00315 	stw	r19,12(sp)
  4211d0:	dc800215 	stw	r18,8(sp)
  4211d4:	dc400115 	stw	r17,4(sp)
  4211d8:	dc000015 	stw	r16,0(sp)
  4211dc:	24c00003 	ldbu	r19,0(r4)
  4211e0:	98001126 	beq	r19,zero,421228 <sprites_allocate+0x68>
  4211e4:	20c00317 	ldw	r3,12(r4)
  4211e8:	2029883a 	mov	r20,r4
  4211ec:	18800217 	ldw	r2,8(r3)
  4211f0:	10003c26 	beq	r2,zero,4212e4 <sprites_allocate+0x124>
  4211f4:	1c400e04 	addi	r17,r3,56
  4211f8:	0021883a 	mov	r16,zero
  4211fc:	00000506 	br	421214 <sprites_allocate+0x54>
  421200:	04220240 	call	422024 <__mulsi3>
  421204:	89400217 	ldw	r5,8(r17)
  421208:	8807883a 	mov	r3,r17
  42120c:	8c400e04 	addi	r17,r17,56
  421210:	28000f26 	beq	r5,zero,421250 <sprites_allocate+0x90>
  421214:	84000044 	addi	r16,r16,1
  421218:	01400e04 	movi	r5,56
  42121c:	8025883a 	mov	r18,r16
  421220:	8009883a 	mov	r4,r16
  421224:	84fff61e 	bne	r16,r19,421200 <plane+0xf838a5a0>
  421228:	013fffc4 	movi	r4,-1
  42122c:	2005883a 	mov	r2,r4
  421230:	dfc00517 	ldw	ra,20(sp)
  421234:	dd000417 	ldw	r20,16(sp)
  421238:	dcc00317 	ldw	r19,12(sp)
  42123c:	dc800217 	ldw	r18,8(sp)
  421240:	dc400117 	ldw	r17,4(sp)
  421244:	dc000017 	ldw	r16,0(sp)
  421248:	dec00604 	addi	sp,sp,24
  42124c:	f800283a 	ret
  421250:	900a913a 	slli	r5,r18,4
  421254:	9009883a 	mov	r4,r18
  421258:	01800044 	movi	r6,1
  42125c:	19800215 	stw	r6,8(r3)
  421260:	18000315 	stw	zero,12(r3)
  421264:	18000615 	stw	zero,24(r3)
  421268:	18000915 	stw	zero,36(r3)
  42126c:	18000a15 	stw	zero,40(r3)
  421270:	d1e21417 	ldw	r7,-30640(gp)
  421274:	a1800217 	ldw	r6,8(r20)
  421278:	19c00d15 	stw	r7,52(r3)
  42127c:	314b883a 	add	r5,r6,r5
  421280:	19400015 	stw	r5,0(r3)
  421284:	19400017 	ldw	r5,0(r3)
  421288:	28000015 	stw	zero,0(r5)
  42128c:	19400017 	ldw	r5,0(r3)
  421290:	28000115 	stw	zero,4(r5)
  421294:	18c00017 	ldw	r3,0(r3)
  421298:	18000215 	stw	zero,8(r3)
  42129c:	a0c00317 	ldw	r3,12(r20)
  4212a0:	1887883a 	add	r3,r3,r2
  4212a4:	18c00017 	ldw	r3,0(r3)
  4212a8:	18000315 	stw	zero,12(r3)
  4212ac:	a1400117 	ldw	r5,4(r20)
  4212b0:	28000826 	beq	r5,zero,4212d4 <sprites_allocate+0x114>
  4212b4:	94a5883a 	add	r18,r18,r18
  4212b8:	94a5883a 	add	r18,r18,r18
  4212bc:	a0c00317 	ldw	r3,12(r20)
  4212c0:	2ca5883a 	add	r18,r5,r18
  4212c4:	91400017 	ldw	r5,0(r18)
  4212c8:	1885883a 	add	r2,r3,r2
  4212cc:	11400115 	stw	r5,4(r2)
  4212d0:	003fd606 	br	42122c <plane+0xf838a5cc>
  4212d4:	a0c00317 	ldw	r3,12(r20)
  4212d8:	1887883a 	add	r3,r3,r2
  4212dc:	18000115 	stw	zero,4(r3)
  4212e0:	003fd206 	br	42122c <plane+0xf838a5cc>
  4212e4:	0009883a 	mov	r4,zero
  4212e8:	000b883a 	mov	r5,zero
  4212ec:	0005883a 	mov	r2,zero
  4212f0:	0025883a 	mov	r18,zero
  4212f4:	003fd806 	br	421258 <plane+0xf838a5f8>

004212f8 <sprites_get>:
  4212f8:	20c00003 	ldbu	r3,0(r4)
  4212fc:	28803fcc 	andi	r2,r5,255
  421300:	10c00f2e 	bgeu	r2,r3,421340 <sprites_get+0x48>
  421304:	defffe04 	addi	sp,sp,-8
  421308:	dc000015 	stw	r16,0(sp)
  42130c:	01400e04 	movi	r5,56
  421310:	2021883a 	mov	r16,r4
  421314:	1009883a 	mov	r4,r2
  421318:	dfc00115 	stw	ra,4(sp)
  42131c:	04220240 	call	422024 <__mulsi3>
  421320:	80c00317 	ldw	r3,12(r16)
  421324:	1885883a 	add	r2,r3,r2
  421328:	10c00217 	ldw	r3,8(r2)
  42132c:	18000626 	beq	r3,zero,421348 <sprites_get+0x50>
  421330:	dfc00117 	ldw	ra,4(sp)
  421334:	dc000017 	ldw	r16,0(sp)
  421338:	dec00204 	addi	sp,sp,8
  42133c:	f800283a 	ret
  421340:	0005883a 	mov	r2,zero
  421344:	f800283a 	ret
  421348:	0005883a 	mov	r2,zero
  42134c:	003ff806 	br	421330 <plane+0xf838a6d0>

00421350 <sprites_deallocate>:
  421350:	20800003 	ldbu	r2,0(r4)
  421354:	29403fcc 	andi	r5,r5,255
  421358:	28800236 	bltu	r5,r2,421364 <sprites_deallocate+0x14>
  42135c:	00bfffc4 	movi	r2,-1
  421360:	f800283a 	ret
  421364:	0420f101 	jmpi	420f10 <sprites_deallocate.part.0>

00421368 <sprites_visible>:
  421368:	20800003 	ldbu	r2,0(r4)
  42136c:	29403fcc 	andi	r5,r5,255
  421370:	2880012e 	bgeu	r5,r2,421378 <sprites_visible+0x10>
  421374:	0420fa01 	jmpi	420fa0 <sprites_visible.part.1>
  421378:	0005883a 	mov	r2,zero
  42137c:	f800283a 	ret

00421380 <sprites_load_data>:
  421380:	20c00003 	ldbu	r3,0(r4)
  421384:	28803fcc 	andi	r2,r5,255
  421388:	10c00236 	bltu	r2,r3,421394 <sprites_load_data+0x14>
  42138c:	00bfffc4 	movi	r2,-1
  421390:	f800283a 	ret
  421394:	defffc04 	addi	sp,sp,-16
  421398:	dc000015 	stw	r16,0(sp)
  42139c:	01400e04 	movi	r5,56
  4213a0:	2021883a 	mov	r16,r4
  4213a4:	1009883a 	mov	r4,r2
  4213a8:	dc800215 	stw	r18,8(sp)
  4213ac:	dc400115 	stw	r17,4(sp)
  4213b0:	dfc00315 	stw	ra,12(sp)
  4213b4:	3823883a 	mov	r17,r7
  4213b8:	3025883a 	mov	r18,r6
  4213bc:	04220240 	call	422024 <__mulsi3>
  4213c0:	80c00317 	ldw	r3,12(r16)
  4213c4:	1885883a 	add	r2,r3,r2
  4213c8:	10c00217 	ldw	r3,8(r2)
  4213cc:	1800071e 	bne	r3,zero,4213ec <sprites_load_data+0x6c>
  4213d0:	00bfffc4 	movi	r2,-1
  4213d4:	dfc00317 	ldw	ra,12(sp)
  4213d8:	dc800217 	ldw	r18,8(sp)
  4213dc:	dc400117 	ldw	r17,4(sp)
  4213e0:	dc000017 	ldw	r16,0(sp)
  4213e4:	dec00404 	addi	sp,sp,16
  4213e8:	f800283a 	ret
  4213ec:	10c00117 	ldw	r3,4(r2)
  4213f0:	183ff726 	beq	r3,zero,4213d0 <plane+0xf838a770>
  4213f4:	10800117 	ldw	r2,4(r2)
  4213f8:	0440080e 	bge	zero,r17,42141c <sprites_load_data+0x9c>
  4213fc:	8c4f883a 	add	r7,r17,r17
  421400:	900d883a 	mov	r6,r18
  421404:	91c9883a 	add	r4,r18,r7
  421408:	30c0000b 	ldhu	r3,0(r6)
  42140c:	10800084 	addi	r2,r2,2
  421410:	31800084 	addi	r6,r6,2
  421414:	10ffff8d 	sth	r3,-2(r2)
  421418:	313ffb1e 	bne	r6,r4,421408 <plane+0xf838a7a8>
  42141c:	0005883a 	mov	r2,zero
  421420:	003fec06 	br	4213d4 <plane+0xf838a774>

00421424 <sprites_limit_speed>:
  421424:	20c00003 	ldbu	r3,0(r4)
  421428:	28803fcc 	andi	r2,r5,255
  42142c:	10c00236 	bltu	r2,r3,421438 <sprites_limit_speed+0x14>
  421430:	00bfffc4 	movi	r2,-1
  421434:	f800283a 	ret
  421438:	defffe04 	addi	sp,sp,-8
  42143c:	dc000015 	stw	r16,0(sp)
  421440:	01400e04 	movi	r5,56
  421444:	2021883a 	mov	r16,r4
  421448:	1009883a 	mov	r4,r2
  42144c:	dfc00115 	stw	ra,4(sp)
  421450:	04220240 	call	422024 <__mulsi3>
  421454:	80c00317 	ldw	r3,12(r16)
  421458:	1885883a 	add	r2,r3,r2
  42145c:	10c00217 	ldw	r3,8(r2)
  421460:	1800051e 	bne	r3,zero,421478 <sprites_limit_speed+0x54>
  421464:	00bfffc4 	movi	r2,-1
  421468:	dfc00117 	ldw	ra,4(sp)
  42146c:	dc000017 	ldw	r16,0(sp)
  421470:	dec00204 	addi	sp,sp,8
  421474:	f800283a 	ret
  421478:	00c010b4 	movhi	r3,66
  42147c:	18d1a904 	addi	r3,r3,18084
  421480:	80c03726 	beq	r16,r3,421560 <sprites_limit_speed+0x13c>
  421484:	00c010b4 	movhi	r3,66
  421488:	18d1a504 	addi	r3,r3,18068
  42148c:	80c00226 	beq	r16,r3,421498 <sprites_limit_speed+0x74>
  421490:	0005883a 	mov	r2,zero
  421494:	003ff406 	br	421468 <plane+0xf838a808>
  421498:	10c00017 	ldw	r3,0(r2)
  42149c:	19000017 	ldw	r4,0(r3)
  4214a0:	10c00017 	ldw	r3,0(r2)
  4214a4:	18c00217 	ldw	r3,8(r3)
  4214a8:	1806913a 	slli	r3,r3,4
  4214ac:	20c7c83a 	sub	r3,r4,r3
  4214b0:	0109ffc4 	movi	r4,10239
  4214b4:	20c0060e 	bge	r4,r3,4214d0 <sprites_limit_speed+0xac>
  4214b8:	11000017 	ldw	r4,0(r2)
  4214bc:	10c00017 	ldw	r3,0(r2)
  4214c0:	18c00217 	ldw	r3,8(r3)
  4214c4:	1806913a 	slli	r3,r3,4
  4214c8:	18c9ffc4 	addi	r3,r3,10239
  4214cc:	20c00015 	stw	r3,0(r4)
  4214d0:	10c00017 	ldw	r3,0(r2)
  4214d4:	19000017 	ldw	r4,0(r3)
  4214d8:	10c00017 	ldw	r3,0(r2)
  4214dc:	18c00217 	ldw	r3,8(r3)
  4214e0:	1806913a 	slli	r3,r3,4
  4214e4:	1907883a 	add	r3,r3,r4
  4214e8:	18003f16 	blt	r3,zero,4215e8 <sprites_limit_speed+0x1c4>
  4214ec:	10c00017 	ldw	r3,0(r2)
  4214f0:	19000117 	ldw	r4,4(r3)
  4214f4:	10c00017 	ldw	r3,0(r2)
  4214f8:	18c00217 	ldw	r3,8(r3)
  4214fc:	1806913a 	slli	r3,r3,4
  421500:	20c7c83a 	sub	r3,r4,r3
  421504:	01077fc4 	movi	r4,7679
  421508:	20c0060e 	bge	r4,r3,421524 <sprites_limit_speed+0x100>
  42150c:	11000017 	ldw	r4,0(r2)
  421510:	10c00017 	ldw	r3,0(r2)
  421514:	18c00217 	ldw	r3,8(r3)
  421518:	1806913a 	slli	r3,r3,4
  42151c:	18c77fc4 	addi	r3,r3,7679
  421520:	20c00115 	stw	r3,4(r4)
  421524:	10c00017 	ldw	r3,0(r2)
  421528:	19000117 	ldw	r4,4(r3)
  42152c:	10c00017 	ldw	r3,0(r2)
  421530:	18c00217 	ldw	r3,8(r3)
  421534:	1806913a 	slli	r3,r3,4
  421538:	1907883a 	add	r3,r3,r4
  42153c:	183fd40e 	bge	r3,zero,421490 <plane+0xf838a830>
  421540:	11000017 	ldw	r4,0(r2)
  421544:	10c00017 	ldw	r3,0(r2)
  421548:	0005883a 	mov	r2,zero
  42154c:	18c00217 	ldw	r3,8(r3)
  421550:	1806913a 	slli	r3,r3,4
  421554:	00c7c83a 	sub	r3,zero,r3
  421558:	20c00115 	stw	r3,4(r4)
  42155c:	003fc206 	br	421468 <plane+0xf838a808>
  421560:	11000017 	ldw	r4,0(r2)
  421564:	00c9ffc4 	movi	r3,10239
  421568:	21000017 	ldw	r4,0(r4)
  42156c:	1900020e 	bge	r3,r4,421578 <sprites_limit_speed+0x154>
  421570:	11000017 	ldw	r4,0(r2)
  421574:	20c00015 	stw	r3,0(r4)
  421578:	10c00017 	ldw	r3,0(r2)
  42157c:	19000017 	ldw	r4,0(r3)
  421580:	10c00017 	ldw	r3,0(r2)
  421584:	18c00217 	ldw	r3,8(r3)
  421588:	1806913a 	slli	r3,r3,4
  42158c:	1907883a 	add	r3,r3,r4
  421590:	18001c16 	blt	r3,zero,421604 <sprites_limit_speed+0x1e0>
  421594:	11000017 	ldw	r4,0(r2)
  421598:	00c77fc4 	movi	r3,7679
  42159c:	21000117 	ldw	r4,4(r4)
  4215a0:	1900020e 	bge	r3,r4,4215ac <sprites_limit_speed+0x188>
  4215a4:	11000017 	ldw	r4,0(r2)
  4215a8:	20c00115 	stw	r3,4(r4)
  4215ac:	10c00017 	ldw	r3,0(r2)
  4215b0:	19000117 	ldw	r4,4(r3)
  4215b4:	10c00017 	ldw	r3,0(r2)
  4215b8:	18c00317 	ldw	r3,12(r3)
  4215bc:	1806913a 	slli	r3,r3,4
  4215c0:	1907883a 	add	r3,r3,r4
  4215c4:	183fb20e 	bge	r3,zero,421490 <plane+0xf838a830>
  4215c8:	11000017 	ldw	r4,0(r2)
  4215cc:	10c00017 	ldw	r3,0(r2)
  4215d0:	0005883a 	mov	r2,zero
  4215d4:	18c00317 	ldw	r3,12(r3)
  4215d8:	1806913a 	slli	r3,r3,4
  4215dc:	00c7c83a 	sub	r3,zero,r3
  4215e0:	20c00115 	stw	r3,4(r4)
  4215e4:	003fa006 	br	421468 <plane+0xf838a808>
  4215e8:	11000017 	ldw	r4,0(r2)
  4215ec:	10c00017 	ldw	r3,0(r2)
  4215f0:	18c00217 	ldw	r3,8(r3)
  4215f4:	1806913a 	slli	r3,r3,4
  4215f8:	00c7c83a 	sub	r3,zero,r3
  4215fc:	20c00015 	stw	r3,0(r4)
  421600:	003fba06 	br	4214ec <plane+0xf838a88c>
  421604:	11000017 	ldw	r4,0(r2)
  421608:	10c00017 	ldw	r3,0(r2)
  42160c:	18c00217 	ldw	r3,8(r3)
  421610:	1806913a 	slli	r3,r3,4
  421614:	00c7c83a 	sub	r3,zero,r3
  421618:	20c00015 	stw	r3,0(r4)
  42161c:	003fdd06 	br	421594 <plane+0xf838a934>

00421620 <sprites_tick>:
  421620:	defff804 	addi	sp,sp,-32
  421624:	dc000015 	stw	r16,0(sp)
  421628:	dfc00715 	stw	ra,28(sp)
  42162c:	dd800615 	stw	r22,24(sp)
  421630:	dd400515 	stw	r21,20(sp)
  421634:	dd000415 	stw	r20,16(sp)
  421638:	dcc00315 	stw	r19,12(sp)
  42163c:	dc800215 	stw	r18,8(sp)
  421640:	dc400115 	stw	r17,4(sp)
  421644:	25400003 	ldbu	r21,0(r4)
  421648:	ac003fcc 	andi	r16,r21,255
  42164c:	80005926 	beq	r16,zero,4217b4 <sprites_tick+0x194>
  421650:	2027883a 	mov	r19,r4
  421654:	0025883a 	mov	r18,zero
  421658:	0029883a 	mov	r20,zero
  42165c:	00000806 	br	421680 <sprites_tick+0x60>
  421660:	90803fcc 	andi	r2,r18,255
  421664:	902d883a 	mov	r22,r18
  421668:	14001b36 	bltu	r2,r16,4216d8 <sprites_tick+0xb8>
  42166c:	b5803fcc 	andi	r22,r22,255
  421670:	ac003fcc 	andi	r16,r21,255
  421674:	b4004936 	bltu	r22,r16,42179c <sprites_tick+0x17c>
  421678:	94800044 	addi	r18,r18,1
  42167c:	94000b0e 	bge	r18,r16,4216ac <sprites_tick+0x8c>
  421680:	01400e04 	movi	r5,56
  421684:	9009883a 	mov	r4,r18
  421688:	04220240 	call	422024 <__mulsi3>
  42168c:	1023883a 	mov	r17,r2
  421690:	98800317 	ldw	r2,12(r19)
  421694:	1445883a 	add	r2,r2,r17
  421698:	10800217 	ldw	r2,8(r2)
  42169c:	103ff01e 	bne	r2,zero,421660 <plane+0xf838aa00>
  4216a0:	ac003fcc 	andi	r16,r21,255
  4216a4:	94800044 	addi	r18,r18,1
  4216a8:	943ff516 	blt	r18,r16,421680 <plane+0xf838aa20>
  4216ac:	a005883a 	mov	r2,r20
  4216b0:	dfc00717 	ldw	ra,28(sp)
  4216b4:	dd800617 	ldw	r22,24(sp)
  4216b8:	dd400517 	ldw	r21,20(sp)
  4216bc:	dd000417 	ldw	r20,16(sp)
  4216c0:	dcc00317 	ldw	r19,12(sp)
  4216c4:	dc800217 	ldw	r18,8(sp)
  4216c8:	dc400117 	ldw	r17,4(sp)
  4216cc:	dc000017 	ldw	r16,0(sp)
  4216d0:	dec00804 	addi	sp,sp,32
  4216d4:	f800283a 	ret
  4216d8:	900b883a 	mov	r5,r18
  4216dc:	9809883a 	mov	r4,r19
  4216e0:	0420fa00 	call	420fa0 <sprites_visible.part.1>
  4216e4:	10803fcc 	andi	r2,r2,255
  4216e8:	10003426 	beq	r2,zero,4217bc <sprites_tick+0x19c>
  4216ec:	98800317 	ldw	r2,12(r19)
  4216f0:	1445883a 	add	r2,r2,r17
  4216f4:	11400317 	ldw	r5,12(r2)
  4216f8:	11000017 	ldw	r4,0(r2)
  4216fc:	20c00017 	ldw	r3,0(r4)
  421700:	28c7883a 	add	r3,r5,r3
  421704:	20c00015 	stw	r3,0(r4)
  421708:	11400617 	ldw	r5,24(r2)
  42170c:	11000017 	ldw	r4,0(r2)
  421710:	20c00117 	ldw	r3,4(r4)
  421714:	28c7883a 	add	r3,r5,r3
  421718:	20c00115 	stw	r3,4(r4)
  42171c:	11000917 	ldw	r4,36(r2)
  421720:	10c00317 	ldw	r3,12(r2)
  421724:	20c7883a 	add	r3,r4,r3
  421728:	10c00315 	stw	r3,12(r2)
  42172c:	11000317 	ldw	r4,12(r2)
  421730:	10c00517 	ldw	r3,20(r2)
  421734:	20c0020e 	bge	r4,r3,421740 <sprites_tick+0x120>
  421738:	10c00517 	ldw	r3,20(r2)
  42173c:	10c00315 	stw	r3,12(r2)
  421740:	10c00317 	ldw	r3,12(r2)
  421744:	11000417 	ldw	r4,16(r2)
  421748:	20c0020e 	bge	r4,r3,421754 <sprites_tick+0x134>
  42174c:	10c00417 	ldw	r3,16(r2)
  421750:	10c00315 	stw	r3,12(r2)
  421754:	11000a17 	ldw	r4,40(r2)
  421758:	10c00617 	ldw	r3,24(r2)
  42175c:	20c7883a 	add	r3,r4,r3
  421760:	10c00615 	stw	r3,24(r2)
  421764:	11000617 	ldw	r4,24(r2)
  421768:	10c00817 	ldw	r3,32(r2)
  42176c:	20c0020e 	bge	r4,r3,421778 <sprites_tick+0x158>
  421770:	10c00817 	ldw	r3,32(r2)
  421774:	10c00615 	stw	r3,24(r2)
  421778:	10c00617 	ldw	r3,24(r2)
  42177c:	11000717 	ldw	r4,28(r2)
  421780:	20c0020e 	bge	r4,r3,42178c <sprites_tick+0x16c>
  421784:	10c00717 	ldw	r3,28(r2)
  421788:	10c00615 	stw	r3,24(r2)
  42178c:	9d400003 	ldbu	r21,0(r19)
  421790:	a5000044 	addi	r20,r20,1
  421794:	ac003fcc 	andi	r16,r21,255
  421798:	003fc206 	br	4216a4 <plane+0xf838aa44>
  42179c:	900b883a 	mov	r5,r18
  4217a0:	9809883a 	mov	r4,r19
  4217a4:	0420f100 	call	420f10 <sprites_deallocate.part.0>
  4217a8:	9d400003 	ldbu	r21,0(r19)
  4217ac:	ac003fcc 	andi	r16,r21,255
  4217b0:	003fb106 	br	421678 <plane+0xf838aa18>
  4217b4:	0029883a 	mov	r20,zero
  4217b8:	003fbc06 	br	4216ac <plane+0xf838aa4c>
  4217bc:	9d400003 	ldbu	r21,0(r19)
  4217c0:	003faa06 	br	42166c <plane+0xf838aa0c>

004217c4 <sprites_collision_detect>:
  4217c4:	defff404 	addi	sp,sp,-48
  4217c8:	ddc00915 	stw	r23,36(sp)
  4217cc:	05c010b4 	movhi	r23,66
  4217d0:	bdd1a904 	addi	r23,r23,18084
  4217d4:	dd800815 	stw	r22,32(sp)
  4217d8:	bd800003 	ldbu	r22,0(r23)
  4217dc:	dfc00b15 	stw	ra,44(sp)
  4217e0:	df000a15 	stw	fp,40(sp)
  4217e4:	dd400715 	stw	r21,28(sp)
  4217e8:	dd000615 	stw	r20,24(sp)
  4217ec:	dcc00515 	stw	r19,20(sp)
  4217f0:	dc800415 	stw	r18,16(sp)
  4217f4:	dc400315 	stw	r17,12(sp)
  4217f8:	dc000215 	stw	r16,8(sp)
  4217fc:	b000f526 	beq	r22,zero,421bd4 <sprites_collision_detect+0x410>
  421800:	04c00044 	movi	r19,1
  421804:	0029883a 	mov	r20,zero
  421808:	d8000015 	stw	zero,0(sp)
  42180c:	9825883a 	mov	r18,r19
  421810:	00000406 	br	421824 <sprites_collision_detect+0x60>
  421814:	9805883a 	mov	r2,r19
  421818:	a5000044 	addi	r20,r20,1
  42181c:	9cc00044 	addi	r19,r19,1
  421820:	1580b20e 	bge	r2,r22,421aec <sprites_collision_detect+0x328>
  421824:	bc000317 	ldw	r16,12(r23)
  421828:	01400e04 	movi	r5,56
  42182c:	a009883a 	mov	r4,r20
  421830:	04220240 	call	422024 <__mulsi3>
  421834:	80a3883a 	add	r17,r16,r2
  421838:	88800217 	ldw	r2,8(r17)
  42183c:	103ff526 	beq	r2,zero,421814 <plane+0xf838abb4>
  421840:	88800b17 	ldw	r2,44(r17)
  421844:	90bff316 	blt	r18,r2,421814 <plane+0xf838abb4>
  421848:	9d80d60e 	bge	r19,r22,421ba4 <sprites_collision_detect+0x3e0>
  42184c:	01400e04 	movi	r5,56
  421850:	9809883a 	mov	r4,r19
  421854:	04220240 	call	422024 <__mulsi3>
  421858:	1007883a 	mov	r3,r2
  42185c:	9839883a 	mov	fp,r19
  421860:	a5403fcc 	andi	r21,r20,255
  421864:	00000506 	br	42187c <sprites_collision_detect+0xb8>
  421868:	bd800003 	ldbu	r22,0(r23)
  42186c:	e7000044 	addi	fp,fp,1
  421870:	18c00e04 	addi	r3,r3,56
  421874:	e580550e 	bge	fp,r22,4219cc <sprites_collision_detect+0x208>
  421878:	bc000317 	ldw	r16,12(r23)
  42187c:	80e1883a 	add	r16,r16,r3
  421880:	80800217 	ldw	r2,8(r16)
  421884:	103ff826 	beq	r2,zero,421868 <plane+0xf838ac08>
  421888:	80800b17 	ldw	r2,44(r16)
  42188c:	90bff616 	blt	r18,r2,421868 <plane+0xf838ac08>
  421890:	81000b17 	ldw	r4,44(r16)
  421894:	88800b17 	ldw	r2,44(r17)
  421898:	20bff326 	beq	r4,r2,421868 <plane+0xf838ac08>
  42189c:	80800017 	ldw	r2,0(r16)
  4218a0:	11000017 	ldw	r4,0(r2)
  4218a4:	80800017 	ldw	r2,0(r16)
  4218a8:	10800217 	ldw	r2,8(r2)
  4218ac:	89400017 	ldw	r5,0(r17)
  4218b0:	1004913a 	slli	r2,r2,4
  4218b4:	29400017 	ldw	r5,0(r5)
  4218b8:	1105883a 	add	r2,r2,r4
  4218bc:	117fea16 	blt	r2,r5,421868 <plane+0xf838ac08>
  4218c0:	80800017 	ldw	r2,0(r16)
  4218c4:	11400017 	ldw	r5,0(r2)
  4218c8:	88800017 	ldw	r2,0(r17)
  4218cc:	11000017 	ldw	r4,0(r2)
  4218d0:	88800017 	ldw	r2,0(r17)
  4218d4:	10800217 	ldw	r2,8(r2)
  4218d8:	1004913a 	slli	r2,r2,4
  4218dc:	1105883a 	add	r2,r2,r4
  4218e0:	28bfe10e 	bge	r5,r2,421868 <plane+0xf838ac08>
  4218e4:	80800017 	ldw	r2,0(r16)
  4218e8:	11000117 	ldw	r4,4(r2)
  4218ec:	80800017 	ldw	r2,0(r16)
  4218f0:	10800317 	ldw	r2,12(r2)
  4218f4:	89400017 	ldw	r5,0(r17)
  4218f8:	1004913a 	slli	r2,r2,4
  4218fc:	29400117 	ldw	r5,4(r5)
  421900:	1105883a 	add	r2,r2,r4
  421904:	117fd816 	blt	r2,r5,421868 <plane+0xf838ac08>
  421908:	80800017 	ldw	r2,0(r16)
  42190c:	11400117 	ldw	r5,4(r2)
  421910:	88800017 	ldw	r2,0(r17)
  421914:	10800117 	ldw	r2,4(r2)
  421918:	89000017 	ldw	r4,0(r17)
  42191c:	21000317 	ldw	r4,12(r4)
  421920:	2008913a 	slli	r4,r4,4
  421924:	2085883a 	add	r2,r4,r2
  421928:	28bfcf0e 	bge	r5,r2,421868 <plane+0xf838ac08>
  42192c:	88800b17 	ldw	r2,44(r17)
  421930:	1000141e 	bne	r2,zero,421984 <sprites_collision_detect+0x1c0>
  421934:	e0803fcc 	andi	r2,fp,255
  421938:	15808736 	bltu	r2,r22,421b58 <sprites_collision_detect+0x394>
  42193c:	88800c17 	ldw	r2,48(r17)
  421940:	10bfffc4 	addi	r2,r2,-1
  421944:	88800c15 	stw	r2,48(r17)
  421948:	1000191e 	bne	r2,zero,4219b0 <sprites_collision_detect+0x1ec>
  42194c:	88800b17 	ldw	r2,44(r17)
  421950:	1000a226 	beq	r2,zero,421bdc <sprites_collision_detect+0x418>
  421954:	bd800003 	ldbu	r22,0(r23)
  421958:	ad80162e 	bgeu	r21,r22,4219b4 <sprites_collision_detect+0x1f0>
  42195c:	010010b4 	movhi	r4,66
  421960:	2111a904 	addi	r4,r4,18084
  421964:	a00b883a 	mov	r5,r20
  421968:	d8c00115 	stw	r3,4(sp)
  42196c:	0420f100 	call	420f10 <sprites_deallocate.part.0>
  421970:	008010b4 	movhi	r2,66
  421974:	1091a904 	addi	r2,r2,18084
  421978:	15800003 	ldbu	r22,0(r2)
  42197c:	d8c00117 	ldw	r3,4(sp)
  421980:	00000c06 	br	4219b4 <sprites_collision_detect+0x1f0>
  421984:	ad80062e 	bgeu	r21,r22,4219a0 <sprites_collision_detect+0x1dc>
  421988:	010010b4 	movhi	r4,66
  42198c:	2111a904 	addi	r4,r4,18084
  421990:	a00b883a 	mov	r5,r20
  421994:	d8c00115 	stw	r3,4(sp)
  421998:	0420f100 	call	420f10 <sprites_deallocate.part.0>
  42199c:	d8c00117 	ldw	r3,4(sp)
  4219a0:	80800c17 	ldw	r2,48(r16)
  4219a4:	10bfffc4 	addi	r2,r2,-1
  4219a8:	80800c15 	stw	r2,48(r16)
  4219ac:	10005c26 	beq	r2,zero,421b20 <sprites_collision_detect+0x35c>
  4219b0:	bd800003 	ldbu	r22,0(r23)
  4219b4:	d8800017 	ldw	r2,0(sp)
  4219b8:	e7000044 	addi	fp,fp,1
  4219bc:	18c00e04 	addi	r3,r3,56
  4219c0:	10800044 	addi	r2,r2,1
  4219c4:	d8800015 	stw	r2,0(sp)
  4219c8:	e5bfab16 	blt	fp,r22,421878 <plane+0xf838ac18>
  4219cc:	008010b4 	movhi	r2,66
  4219d0:	1091a504 	addi	r2,r2,18068
  4219d4:	17000003 	ldbu	fp,0(r2)
  4219d8:	102b883a 	mov	r21,r2
  4219dc:	e03f8d26 	beq	fp,zero,421814 <plane+0xf838abb4>
  4219e0:	0021883a 	mov	r16,zero
  4219e4:	00000306 	br	4219f4 <sprites_collision_detect+0x230>
  4219e8:	af000003 	ldbu	fp,0(r21)
  4219ec:	84000044 	addi	r16,r16,1
  4219f0:	8700390e 	bge	r16,fp,421ad8 <sprites_collision_detect+0x314>
  4219f4:	01400e04 	movi	r5,56
  4219f8:	8009883a 	mov	r4,r16
  4219fc:	04220240 	call	422024 <__mulsi3>
  421a00:	a8c00317 	ldw	r3,12(r21)
  421a04:	1885883a 	add	r2,r3,r2
  421a08:	10c00217 	ldw	r3,8(r2)
  421a0c:	183ff626 	beq	r3,zero,4219e8 <plane+0xf838ad88>
  421a10:	10c00b17 	ldw	r3,44(r2)
  421a14:	90fff416 	blt	r18,r3,4219e8 <plane+0xf838ad88>
  421a18:	11000b17 	ldw	r4,44(r2)
  421a1c:	88c00b17 	ldw	r3,44(r17)
  421a20:	20fff126 	beq	r4,r3,4219e8 <plane+0xf838ad88>
  421a24:	10c00017 	ldw	r3,0(r2)
  421a28:	19000017 	ldw	r4,0(r3)
  421a2c:	88c00017 	ldw	r3,0(r17)
  421a30:	18c00017 	ldw	r3,0(r3)
  421a34:	20ffec16 	blt	r4,r3,4219e8 <plane+0xf838ad88>
  421a38:	10c00017 	ldw	r3,0(r2)
  421a3c:	19400017 	ldw	r5,0(r3)
  421a40:	88c00017 	ldw	r3,0(r17)
  421a44:	19000017 	ldw	r4,0(r3)
  421a48:	88c00017 	ldw	r3,0(r17)
  421a4c:	18c00217 	ldw	r3,8(r3)
  421a50:	1806913a 	slli	r3,r3,4
  421a54:	1907883a 	add	r3,r3,r4
  421a58:	28ffe30e 	bge	r5,r3,4219e8 <plane+0xf838ad88>
  421a5c:	10c00017 	ldw	r3,0(r2)
  421a60:	19000117 	ldw	r4,4(r3)
  421a64:	88c00017 	ldw	r3,0(r17)
  421a68:	18c00117 	ldw	r3,4(r3)
  421a6c:	20ffde16 	blt	r4,r3,4219e8 <plane+0xf838ad88>
  421a70:	10800017 	ldw	r2,0(r2)
  421a74:	11000117 	ldw	r4,4(r2)
  421a78:	88800017 	ldw	r2,0(r17)
  421a7c:	10800117 	ldw	r2,4(r2)
  421a80:	88c00017 	ldw	r3,0(r17)
  421a84:	18c00317 	ldw	r3,12(r3)
  421a88:	1806913a 	slli	r3,r3,4
  421a8c:	1885883a 	add	r2,r3,r2
  421a90:	20bfd50e 	bge	r4,r2,4219e8 <plane+0xf838ad88>
  421a94:	80803fcc 	andi	r2,r16,255
  421a98:	17002a36 	bltu	r2,fp,421b44 <sprites_collision_detect+0x380>
  421a9c:	88800c17 	ldw	r2,48(r17)
  421aa0:	10bfffc4 	addi	r2,r2,-1
  421aa4:	88800c15 	stw	r2,48(r17)
  421aa8:	1000051e 	bne	r2,zero,421ac0 <sprites_collision_detect+0x2fc>
  421aac:	88800b17 	ldw	r2,44(r17)
  421ab0:	10004226 	beq	r2,zero,421bbc <sprites_collision_detect+0x3f8>
  421ab4:	b8800003 	ldbu	r2,0(r23)
  421ab8:	a0c03fcc 	andi	r3,r20,255
  421abc:	18803136 	bltu	r3,r2,421b84 <sprites_collision_detect+0x3c0>
  421ac0:	d8800017 	ldw	r2,0(sp)
  421ac4:	10800044 	addi	r2,r2,1
  421ac8:	d8800015 	stw	r2,0(sp)
  421acc:	af000003 	ldbu	fp,0(r21)
  421ad0:	84000044 	addi	r16,r16,1
  421ad4:	873fc716 	blt	r16,fp,4219f4 <plane+0xf838ad94>
  421ad8:	bd800003 	ldbu	r22,0(r23)
  421adc:	9805883a 	mov	r2,r19
  421ae0:	a5000044 	addi	r20,r20,1
  421ae4:	9cc00044 	addi	r19,r19,1
  421ae8:	15bf4e16 	blt	r2,r22,421824 <plane+0xf838abc4>
  421aec:	d8800017 	ldw	r2,0(sp)
  421af0:	dfc00b17 	ldw	ra,44(sp)
  421af4:	df000a17 	ldw	fp,40(sp)
  421af8:	ddc00917 	ldw	r23,36(sp)
  421afc:	dd800817 	ldw	r22,32(sp)
  421b00:	dd400717 	ldw	r21,28(sp)
  421b04:	dd000617 	ldw	r20,24(sp)
  421b08:	dcc00517 	ldw	r19,20(sp)
  421b0c:	dc800417 	ldw	r18,16(sp)
  421b10:	dc400317 	ldw	r17,12(sp)
  421b14:	dc000217 	ldw	r16,8(sp)
  421b18:	dec00c04 	addi	sp,sp,48
  421b1c:	f800283a 	ret
  421b20:	80800b17 	ldw	r2,44(r16)
  421b24:	10003726 	beq	r2,zero,421c04 <sprites_collision_detect+0x440>
  421b28:	bd800003 	ldbu	r22,0(r23)
  421b2c:	e0803fcc 	andi	r2,fp,255
  421b30:	15bfa02e 	bgeu	r2,r22,4219b4 <plane+0xf838ad54>
  421b34:	010010b4 	movhi	r4,66
  421b38:	2111a904 	addi	r4,r4,18084
  421b3c:	e00b883a 	mov	r5,fp
  421b40:	003f8906 	br	421968 <plane+0xf838ad08>
  421b44:	010010b4 	movhi	r4,66
  421b48:	2111a504 	addi	r4,r4,18068
  421b4c:	800b883a 	mov	r5,r16
  421b50:	0420f100 	call	420f10 <sprites_deallocate.part.0>
  421b54:	003fd106 	br	421a9c <plane+0xf838ae3c>
  421b58:	010010b4 	movhi	r4,66
  421b5c:	2111a904 	addi	r4,r4,18084
  421b60:	e00b883a 	mov	r5,fp
  421b64:	d8c00115 	stw	r3,4(sp)
  421b68:	0420f100 	call	420f10 <sprites_deallocate.part.0>
  421b6c:	88800c17 	ldw	r2,48(r17)
  421b70:	d8c00117 	ldw	r3,4(sp)
  421b74:	10bfffc4 	addi	r2,r2,-1
  421b78:	88800c15 	stw	r2,48(r17)
  421b7c:	103f8c1e 	bne	r2,zero,4219b0 <plane+0xf838ad50>
  421b80:	003f7206 	br	42194c <plane+0xf838acec>
  421b84:	010010b4 	movhi	r4,66
  421b88:	2111a904 	addi	r4,r4,18084
  421b8c:	a00b883a 	mov	r5,r20
  421b90:	0420f100 	call	420f10 <sprites_deallocate.part.0>
  421b94:	d8800017 	ldw	r2,0(sp)
  421b98:	10800044 	addi	r2,r2,1
  421b9c:	d8800015 	stw	r2,0(sp)
  421ba0:	003fca06 	br	421acc <plane+0xf838ae6c>
  421ba4:	008010b4 	movhi	r2,66
  421ba8:	1091a504 	addi	r2,r2,18068
  421bac:	17000003 	ldbu	fp,0(r2)
  421bb0:	102b883a 	mov	r21,r2
  421bb4:	e03f8a1e 	bne	fp,zero,4219e0 <plane+0xf838ad80>
  421bb8:	003fcc06 	br	421aec <plane+0xf838ae8c>
  421bbc:	d0e00517 	ldw	r3,-32748(gp)
  421bc0:	a0803fcc 	andi	r2,r20,255
  421bc4:	18000015 	stw	zero,0(r3)
  421bc8:	b8c00003 	ldbu	r3,0(r23)
  421bcc:	10c01736 	bltu	r2,r3,421c2c <sprites_collision_detect+0x468>
  421bd0:	003fff06 	br	421bd0 <plane+0xf838af70>
  421bd4:	d8000015 	stw	zero,0(sp)
  421bd8:	003fc406 	br	421aec <plane+0xf838ae8c>
  421bdc:	d0e00517 	ldw	r3,-32748(gp)
  421be0:	a0803fcc 	andi	r2,r20,255
  421be4:	18000015 	stw	zero,0(r3)
  421be8:	b8c00003 	ldbu	r3,0(r23)
  421bec:	10c0042e 	bgeu	r2,r3,421c00 <sprites_collision_detect+0x43c>
  421bf0:	010010b4 	movhi	r4,66
  421bf4:	2111a904 	addi	r4,r4,18084
  421bf8:	a00b883a 	mov	r5,r20
  421bfc:	0420f100 	call	420f10 <sprites_deallocate.part.0>
  421c00:	003fff06 	br	421c00 <plane+0xf838afa0>
  421c04:	d0e00517 	ldw	r3,-32748(gp)
  421c08:	e0803fcc 	andi	r2,fp,255
  421c0c:	18000015 	stw	zero,0(r3)
  421c10:	b8c00003 	ldbu	r3,0(r23)
  421c14:	10c0042e 	bgeu	r2,r3,421c28 <sprites_collision_detect+0x464>
  421c18:	010010b4 	movhi	r4,66
  421c1c:	2111a904 	addi	r4,r4,18084
  421c20:	e00b883a 	mov	r5,fp
  421c24:	0420f100 	call	420f10 <sprites_deallocate.part.0>
  421c28:	003fff06 	br	421c28 <plane+0xf838afc8>
  421c2c:	010010b4 	movhi	r4,66
  421c30:	2111a904 	addi	r4,r4,18084
  421c34:	a00b883a 	mov	r5,r20
  421c38:	0420f100 	call	420f10 <sprites_deallocate.part.0>
  421c3c:	003fe406 	br	421bd0 <plane+0xf838af70>

00421c40 <vga_erase>:
  421c40:	defffb04 	addi	sp,sp,-20
  421c44:	dcc00315 	stw	r19,12(sp)
  421c48:	dc800215 	stw	r18,8(sp)
  421c4c:	dc000015 	stw	r16,0(sp)
  421c50:	dfc00415 	stw	ra,16(sp)
  421c54:	dc400115 	stw	r17,4(sp)
  421c58:	29e7883a 	add	r19,r5,r7
  421c5c:	00807804 	movi	r2,480
  421c60:	2821883a 	mov	r16,r5
  421c64:	2025883a 	mov	r18,r4
  421c68:	14c0010e 	bge	r2,r19,421c70 <vga_erase+0x30>
  421c6c:	1027883a 	mov	r19,r2
  421c70:	91a3883a 	add	r17,r18,r6
  421c74:	0080a004 	movi	r2,640
  421c78:	1440010e 	bge	r2,r17,421c80 <vga_erase+0x40>
  421c7c:	1023883a 	mov	r17,r2
  421c80:	84c0120e 	bge	r16,r19,421ccc <vga_erase+0x8c>
  421c84:	0140a004 	movi	r5,640
  421c88:	8009883a 	mov	r4,r16
  421c8c:	04220240 	call	422024 <__mulsi3>
  421c90:	1485883a 	add	r2,r2,r18
  421c94:	8c8bc83a 	sub	r5,r17,r18
  421c98:	1089883a 	add	r4,r2,r2
  421c9c:	294b883a 	add	r5,r5,r5
  421ca0:	2109883a 	add	r4,r4,r4
  421ca4:	294b883a 	add	r5,r5,r5
  421ca8:	9440050e 	bge	r18,r17,421cc0 <vga_erase+0x80>
  421cac:	2147883a 	add	r3,r4,r5
  421cb0:	2005883a 	mov	r2,r4
  421cb4:	10000015 	stw	zero,0(r2)
  421cb8:	10800104 	addi	r2,r2,4
  421cbc:	10fffd1e 	bne	r2,r3,421cb4 <plane+0xf838b054>
  421cc0:	84000044 	addi	r16,r16,1
  421cc4:	21028004 	addi	r4,r4,2560
  421cc8:	9c3ff71e 	bne	r19,r16,421ca8 <plane+0xf838b048>
  421ccc:	dfc00417 	ldw	ra,16(sp)
  421cd0:	dcc00317 	ldw	r19,12(sp)
  421cd4:	dc800217 	ldw	r18,8(sp)
  421cd8:	dc400117 	ldw	r17,4(sp)
  421cdc:	dc000017 	ldw	r16,0(sp)
  421ce0:	dec00504 	addi	sp,sp,20
  421ce4:	f800283a 	ret

00421ce8 <vga_fill>:
  421ce8:	defffa04 	addi	sp,sp,-24
  421cec:	dd000415 	stw	r20,16(sp)
  421cf0:	dcc00315 	stw	r19,12(sp)
  421cf4:	dc400115 	stw	r17,4(sp)
  421cf8:	dc000015 	stw	r16,0(sp)
  421cfc:	dfc00515 	stw	ra,20(sp)
  421d00:	dc800215 	stw	r18,8(sp)
  421d04:	29e9883a 	add	r20,r5,r7
  421d08:	00807804 	movi	r2,480
  421d0c:	2823883a 	mov	r17,r5
  421d10:	2027883a 	mov	r19,r4
  421d14:	dc00060b 	ldhu	r16,24(sp)
  421d18:	1500010e 	bge	r2,r20,421d20 <vga_fill+0x38>
  421d1c:	1029883a 	mov	r20,r2
  421d20:	99a5883a 	add	r18,r19,r6
  421d24:	0080a004 	movi	r2,640
  421d28:	1480010e 	bge	r2,r18,421d30 <vga_fill+0x48>
  421d2c:	1025883a 	mov	r18,r2
  421d30:	8d00130e 	bge	r17,r20,421d80 <vga_fill+0x98>
  421d34:	0140a004 	movi	r5,640
  421d38:	8809883a 	mov	r4,r17
  421d3c:	04220240 	call	422024 <__mulsi3>
  421d40:	14c5883a 	add	r2,r2,r19
  421d44:	94cdc83a 	sub	r6,r18,r19
  421d48:	108b883a 	add	r5,r2,r2
  421d4c:	318d883a 	add	r6,r6,r6
  421d50:	294b883a 	add	r5,r5,r5
  421d54:	318d883a 	add	r6,r6,r6
  421d58:	813fffcc 	andi	r4,r16,65535
  421d5c:	9c80050e 	bge	r19,r18,421d74 <vga_fill+0x8c>
  421d60:	2987883a 	add	r3,r5,r6
  421d64:	2805883a 	mov	r2,r5
  421d68:	11000015 	stw	r4,0(r2)
  421d6c:	10800104 	addi	r2,r2,4
  421d70:	10fffd1e 	bne	r2,r3,421d68 <plane+0xf838b108>
  421d74:	8c400044 	addi	r17,r17,1
  421d78:	29428004 	addi	r5,r5,2560
  421d7c:	a47ff71e 	bne	r20,r17,421d5c <plane+0xf838b0fc>
  421d80:	dfc00517 	ldw	ra,20(sp)
  421d84:	dd000417 	ldw	r20,16(sp)
  421d88:	dcc00317 	ldw	r19,12(sp)
  421d8c:	dc800217 	ldw	r18,8(sp)
  421d90:	dc400117 	ldw	r17,4(sp)
  421d94:	dc000017 	ldw	r16,0(sp)
  421d98:	dec00604 	addi	sp,sp,24
  421d9c:	f800283a 	ret

00421da0 <vga_set>:
  421da0:	defff904 	addi	sp,sp,-28
  421da4:	dd400515 	stw	r21,20(sp)
  421da8:	dcc00315 	stw	r19,12(sp)
  421dac:	dc000015 	stw	r16,0(sp)
  421db0:	dfc00615 	stw	ra,24(sp)
  421db4:	dd000415 	stw	r20,16(sp)
  421db8:	dc800215 	stw	r18,8(sp)
  421dbc:	dc400115 	stw	r17,4(sp)
  421dc0:	29eb883a 	add	r21,r5,r7
  421dc4:	00807804 	movi	r2,480
  421dc8:	2821883a 	mov	r16,r5
  421dcc:	2027883a 	mov	r19,r4
  421dd0:	1540010e 	bge	r2,r21,421dd8 <vga_set+0x38>
  421dd4:	102b883a 	mov	r21,r2
  421dd8:	99a9883a 	add	r20,r19,r6
  421ddc:	0080a004 	movi	r2,640
  421de0:	1500010e 	bge	r2,r20,421de8 <vga_set+0x48>
  421de4:	1029883a 	mov	r20,r2
  421de8:	8540180e 	bge	r16,r21,421e4c <vga_set+0xac>
  421dec:	0140a004 	movi	r5,640
  421df0:	8009883a 	mov	r4,r16
  421df4:	31a5883a 	add	r18,r6,r6
  421df8:	04220240 	call	422024 <__mulsi3>
  421dfc:	14c5883a 	add	r2,r2,r19
  421e00:	a4d3c83a 	sub	r9,r20,r19
  421e04:	dc400717 	ldw	r17,28(sp)
  421e08:	1091883a 	add	r8,r2,r2
  421e0c:	4a53883a 	add	r9,r9,r9
  421e10:	4211883a 	add	r8,r8,r8
  421e14:	4a53883a 	add	r9,r9,r9
  421e18:	9d00080e 	bge	r19,r20,421e3c <vga_set+0x9c>
  421e1c:	424b883a 	add	r5,r8,r9
  421e20:	4005883a 	mov	r2,r8
  421e24:	8807883a 	mov	r3,r17
  421e28:	1900000b 	ldhu	r4,0(r3)
  421e2c:	10800104 	addi	r2,r2,4
  421e30:	18c00084 	addi	r3,r3,2
  421e34:	113fff15 	stw	r4,-4(r2)
  421e38:	117ffb1e 	bne	r2,r5,421e28 <plane+0xf838b1c8>
  421e3c:	84000044 	addi	r16,r16,1
  421e40:	8ca3883a 	add	r17,r17,r18
  421e44:	42028004 	addi	r8,r8,2560
  421e48:	ac3ff31e 	bne	r21,r16,421e18 <plane+0xf838b1b8>
  421e4c:	dfc00617 	ldw	ra,24(sp)
  421e50:	dd400517 	ldw	r21,20(sp)
  421e54:	dd000417 	ldw	r20,16(sp)
  421e58:	dcc00317 	ldw	r19,12(sp)
  421e5c:	dc800217 	ldw	r18,8(sp)
  421e60:	dc400117 	ldw	r17,4(sp)
  421e64:	dc000017 	ldw	r16,0(sp)
  421e68:	dec00704 	addi	sp,sp,28
  421e6c:	f800283a 	ret

00421e70 <__divsi3>:
  421e70:	20001b16 	blt	r4,zero,421ee0 <__divsi3+0x70>
  421e74:	000f883a 	mov	r7,zero
  421e78:	28001616 	blt	r5,zero,421ed4 <__divsi3+0x64>
  421e7c:	200d883a 	mov	r6,r4
  421e80:	29001a2e 	bgeu	r5,r4,421eec <__divsi3+0x7c>
  421e84:	00800804 	movi	r2,32
  421e88:	00c00044 	movi	r3,1
  421e8c:	00000106 	br	421e94 <__divsi3+0x24>
  421e90:	10000d26 	beq	r2,zero,421ec8 <__divsi3+0x58>
  421e94:	294b883a 	add	r5,r5,r5
  421e98:	10bfffc4 	addi	r2,r2,-1
  421e9c:	18c7883a 	add	r3,r3,r3
  421ea0:	293ffb36 	bltu	r5,r4,421e90 <plane+0xf838b230>
  421ea4:	0005883a 	mov	r2,zero
  421ea8:	18000726 	beq	r3,zero,421ec8 <__divsi3+0x58>
  421eac:	0005883a 	mov	r2,zero
  421eb0:	31400236 	bltu	r6,r5,421ebc <__divsi3+0x4c>
  421eb4:	314dc83a 	sub	r6,r6,r5
  421eb8:	10c4b03a 	or	r2,r2,r3
  421ebc:	1806d07a 	srli	r3,r3,1
  421ec0:	280ad07a 	srli	r5,r5,1
  421ec4:	183ffa1e 	bne	r3,zero,421eb0 <plane+0xf838b250>
  421ec8:	38000126 	beq	r7,zero,421ed0 <__divsi3+0x60>
  421ecc:	0085c83a 	sub	r2,zero,r2
  421ed0:	f800283a 	ret
  421ed4:	014bc83a 	sub	r5,zero,r5
  421ed8:	39c0005c 	xori	r7,r7,1
  421edc:	003fe706 	br	421e7c <plane+0xf838b21c>
  421ee0:	0109c83a 	sub	r4,zero,r4
  421ee4:	01c00044 	movi	r7,1
  421ee8:	003fe306 	br	421e78 <plane+0xf838b218>
  421eec:	00c00044 	movi	r3,1
  421ef0:	003fee06 	br	421eac <plane+0xf838b24c>

00421ef4 <__modsi3>:
  421ef4:	20001716 	blt	r4,zero,421f54 <__modsi3+0x60>
  421ef8:	000f883a 	mov	r7,zero
  421efc:	2005883a 	mov	r2,r4
  421f00:	28001216 	blt	r5,zero,421f4c <__modsi3+0x58>
  421f04:	2900162e 	bgeu	r5,r4,421f60 <__modsi3+0x6c>
  421f08:	01800804 	movi	r6,32
  421f0c:	00c00044 	movi	r3,1
  421f10:	00000106 	br	421f18 <__modsi3+0x24>
  421f14:	30000a26 	beq	r6,zero,421f40 <__modsi3+0x4c>
  421f18:	294b883a 	add	r5,r5,r5
  421f1c:	31bfffc4 	addi	r6,r6,-1
  421f20:	18c7883a 	add	r3,r3,r3
  421f24:	293ffb36 	bltu	r5,r4,421f14 <plane+0xf838b2b4>
  421f28:	18000526 	beq	r3,zero,421f40 <__modsi3+0x4c>
  421f2c:	1806d07a 	srli	r3,r3,1
  421f30:	11400136 	bltu	r2,r5,421f38 <__modsi3+0x44>
  421f34:	1145c83a 	sub	r2,r2,r5
  421f38:	280ad07a 	srli	r5,r5,1
  421f3c:	183ffb1e 	bne	r3,zero,421f2c <plane+0xf838b2cc>
  421f40:	38000126 	beq	r7,zero,421f48 <__modsi3+0x54>
  421f44:	0085c83a 	sub	r2,zero,r2
  421f48:	f800283a 	ret
  421f4c:	014bc83a 	sub	r5,zero,r5
  421f50:	003fec06 	br	421f04 <plane+0xf838b2a4>
  421f54:	0109c83a 	sub	r4,zero,r4
  421f58:	01c00044 	movi	r7,1
  421f5c:	003fe706 	br	421efc <plane+0xf838b29c>
  421f60:	00c00044 	movi	r3,1
  421f64:	003ff106 	br	421f2c <plane+0xf838b2cc>

00421f68 <__udivsi3>:
  421f68:	200d883a 	mov	r6,r4
  421f6c:	2900152e 	bgeu	r5,r4,421fc4 <__udivsi3+0x5c>
  421f70:	28001416 	blt	r5,zero,421fc4 <__udivsi3+0x5c>
  421f74:	00800804 	movi	r2,32
  421f78:	00c00044 	movi	r3,1
  421f7c:	00000206 	br	421f88 <__udivsi3+0x20>
  421f80:	10000e26 	beq	r2,zero,421fbc <__udivsi3+0x54>
  421f84:	28000516 	blt	r5,zero,421f9c <__udivsi3+0x34>
  421f88:	294b883a 	add	r5,r5,r5
  421f8c:	10bfffc4 	addi	r2,r2,-1
  421f90:	18c7883a 	add	r3,r3,r3
  421f94:	293ffa36 	bltu	r5,r4,421f80 <plane+0xf838b320>
  421f98:	18000826 	beq	r3,zero,421fbc <__udivsi3+0x54>
  421f9c:	0005883a 	mov	r2,zero
  421fa0:	31400236 	bltu	r6,r5,421fac <__udivsi3+0x44>
  421fa4:	314dc83a 	sub	r6,r6,r5
  421fa8:	10c4b03a 	or	r2,r2,r3
  421fac:	1806d07a 	srli	r3,r3,1
  421fb0:	280ad07a 	srli	r5,r5,1
  421fb4:	183ffa1e 	bne	r3,zero,421fa0 <plane+0xf838b340>
  421fb8:	f800283a 	ret
  421fbc:	0005883a 	mov	r2,zero
  421fc0:	f800283a 	ret
  421fc4:	00c00044 	movi	r3,1
  421fc8:	003ff406 	br	421f9c <plane+0xf838b33c>

00421fcc <__umodsi3>:
  421fcc:	2005883a 	mov	r2,r4
  421fd0:	2900122e 	bgeu	r5,r4,42201c <__umodsi3+0x50>
  421fd4:	28001116 	blt	r5,zero,42201c <__umodsi3+0x50>
  421fd8:	01800804 	movi	r6,32
  421fdc:	00c00044 	movi	r3,1
  421fe0:	00000206 	br	421fec <__umodsi3+0x20>
  421fe4:	30000c26 	beq	r6,zero,422018 <__umodsi3+0x4c>
  421fe8:	28000516 	blt	r5,zero,422000 <__umodsi3+0x34>
  421fec:	294b883a 	add	r5,r5,r5
  421ff0:	31bfffc4 	addi	r6,r6,-1
  421ff4:	18c7883a 	add	r3,r3,r3
  421ff8:	293ffa36 	bltu	r5,r4,421fe4 <plane+0xf838b384>
  421ffc:	18000626 	beq	r3,zero,422018 <__umodsi3+0x4c>
  422000:	1806d07a 	srli	r3,r3,1
  422004:	11400136 	bltu	r2,r5,42200c <__umodsi3+0x40>
  422008:	1145c83a 	sub	r2,r2,r5
  42200c:	280ad07a 	srli	r5,r5,1
  422010:	183ffb1e 	bne	r3,zero,422000 <plane+0xf838b3a0>
  422014:	f800283a 	ret
  422018:	f800283a 	ret
  42201c:	00c00044 	movi	r3,1
  422020:	003ff706 	br	422000 <plane+0xf838b3a0>

00422024 <__mulsi3>:
  422024:	0005883a 	mov	r2,zero
  422028:	20000726 	beq	r4,zero,422048 <__mulsi3+0x24>
  42202c:	20c0004c 	andi	r3,r4,1
  422030:	2008d07a 	srli	r4,r4,1
  422034:	18000126 	beq	r3,zero,42203c <__mulsi3+0x18>
  422038:	1145883a 	add	r2,r2,r5
  42203c:	294b883a 	add	r5,r5,r5
  422040:	203ffa1e 	bne	r4,zero,42202c <plane+0xf838b3cc>
  422044:	f800283a 	ret
  422048:	f800283a 	ret

0042204c <_printf_r>:
  42204c:	defffd04 	addi	sp,sp,-12
  422050:	dfc00015 	stw	ra,0(sp)
  422054:	d9800115 	stw	r6,4(sp)
  422058:	d9c00215 	stw	r7,8(sp)
  42205c:	20c00217 	ldw	r3,8(r4)
  422060:	018010b4 	movhi	r6,66
  422064:	3189ce04 	addi	r6,r6,10040
  422068:	19800115 	stw	r6,4(r3)
  42206c:	280d883a 	mov	r6,r5
  422070:	21400217 	ldw	r5,8(r4)
  422074:	d9c00104 	addi	r7,sp,4
  422078:	04221f00 	call	4221f0 <___vfprintf_internal_r>
  42207c:	dfc00017 	ldw	ra,0(sp)
  422080:	dec00304 	addi	sp,sp,12
  422084:	f800283a 	ret

00422088 <printf>:
  422088:	defffc04 	addi	sp,sp,-16
  42208c:	dfc00015 	stw	ra,0(sp)
  422090:	d9400115 	stw	r5,4(sp)
  422094:	d9800215 	stw	r6,8(sp)
  422098:	d9c00315 	stw	r7,12(sp)
  42209c:	008010b4 	movhi	r2,66
  4220a0:	10929904 	addi	r2,r2,19044
  4220a4:	10800017 	ldw	r2,0(r2)
  4220a8:	014010b4 	movhi	r5,66
  4220ac:	2949ce04 	addi	r5,r5,10040
  4220b0:	10c00217 	ldw	r3,8(r2)
  4220b4:	d9800104 	addi	r6,sp,4
  4220b8:	19400115 	stw	r5,4(r3)
  4220bc:	200b883a 	mov	r5,r4
  4220c0:	11000217 	ldw	r4,8(r2)
  4220c4:	042271c0 	call	42271c <__vfprintf_internal>
  4220c8:	dfc00017 	ldw	ra,0(sp)
  4220cc:	dec00404 	addi	sp,sp,16
  4220d0:	f800283a 	ret

004220d4 <_puts_r>:
  4220d4:	defffd04 	addi	sp,sp,-12
  4220d8:	dc000015 	stw	r16,0(sp)
  4220dc:	2021883a 	mov	r16,r4
  4220e0:	2809883a 	mov	r4,r5
  4220e4:	dfc00215 	stw	ra,8(sp)
  4220e8:	dc400115 	stw	r17,4(sp)
  4220ec:	2823883a 	mov	r17,r5
  4220f0:	04221680 	call	422168 <strlen>
  4220f4:	81400217 	ldw	r5,8(r16)
  4220f8:	010010b4 	movhi	r4,66
  4220fc:	2109ce04 	addi	r4,r4,10040
  422100:	29000115 	stw	r4,4(r5)
  422104:	100f883a 	mov	r7,r2
  422108:	880d883a 	mov	r6,r17
  42210c:	8009883a 	mov	r4,r16
  422110:	04227380 	call	422738 <__sfvwrite_small_dev>
  422114:	00ffffc4 	movi	r3,-1
  422118:	10c00926 	beq	r2,r3,422140 <_puts_r+0x6c>
  42211c:	81400217 	ldw	r5,8(r16)
  422120:	018010b4 	movhi	r6,66
  422124:	01c00044 	movi	r7,1
  422128:	28800117 	ldw	r2,4(r5)
  42212c:	31909b04 	addi	r6,r6,17004
  422130:	8009883a 	mov	r4,r16
  422134:	103ee83a 	callr	r2
  422138:	10bfffe0 	cmpeqi	r2,r2,-1
  42213c:	0085c83a 	sub	r2,zero,r2
  422140:	dfc00217 	ldw	ra,8(sp)
  422144:	dc400117 	ldw	r17,4(sp)
  422148:	dc000017 	ldw	r16,0(sp)
  42214c:	dec00304 	addi	sp,sp,12
  422150:	f800283a 	ret

00422154 <puts>:
  422154:	008010b4 	movhi	r2,66
  422158:	10929904 	addi	r2,r2,19044
  42215c:	200b883a 	mov	r5,r4
  422160:	11000017 	ldw	r4,0(r2)
  422164:	04220d41 	jmpi	4220d4 <_puts_r>

00422168 <strlen>:
  422168:	2005883a 	mov	r2,r4
  42216c:	10c00007 	ldb	r3,0(r2)
  422170:	18000226 	beq	r3,zero,42217c <strlen+0x14>
  422174:	10800044 	addi	r2,r2,1
  422178:	003ffc06 	br	42216c <plane+0xf838b50c>
  42217c:	1105c83a 	sub	r2,r2,r4
  422180:	f800283a 	ret

00422184 <print_repeat>:
  422184:	defffb04 	addi	sp,sp,-20
  422188:	dc800315 	stw	r18,12(sp)
  42218c:	dc400215 	stw	r17,8(sp)
  422190:	dc000115 	stw	r16,4(sp)
  422194:	dfc00415 	stw	ra,16(sp)
  422198:	2025883a 	mov	r18,r4
  42219c:	2823883a 	mov	r17,r5
  4221a0:	d9800005 	stb	r6,0(sp)
  4221a4:	3821883a 	mov	r16,r7
  4221a8:	04000a0e 	bge	zero,r16,4221d4 <print_repeat+0x50>
  4221ac:	88800117 	ldw	r2,4(r17)
  4221b0:	01c00044 	movi	r7,1
  4221b4:	d80d883a 	mov	r6,sp
  4221b8:	880b883a 	mov	r5,r17
  4221bc:	9009883a 	mov	r4,r18
  4221c0:	103ee83a 	callr	r2
  4221c4:	843fffc4 	addi	r16,r16,-1
  4221c8:	103ff726 	beq	r2,zero,4221a8 <plane+0xf838b548>
  4221cc:	00bfffc4 	movi	r2,-1
  4221d0:	00000106 	br	4221d8 <print_repeat+0x54>
  4221d4:	0005883a 	mov	r2,zero
  4221d8:	dfc00417 	ldw	ra,16(sp)
  4221dc:	dc800317 	ldw	r18,12(sp)
  4221e0:	dc400217 	ldw	r17,8(sp)
  4221e4:	dc000117 	ldw	r16,4(sp)
  4221e8:	dec00504 	addi	sp,sp,20
  4221ec:	f800283a 	ret

004221f0 <___vfprintf_internal_r>:
  4221f0:	deffe504 	addi	sp,sp,-108
  4221f4:	d8c00804 	addi	r3,sp,32
  4221f8:	ddc01815 	stw	r23,96(sp)
  4221fc:	dd801715 	stw	r22,92(sp)
  422200:	dd401615 	stw	r21,88(sp)
  422204:	dd001515 	stw	r20,84(sp)
  422208:	dcc01415 	stw	r19,80(sp)
  42220c:	dc801315 	stw	r18,76(sp)
  422210:	dc401215 	stw	r17,72(sp)
  422214:	dc001115 	stw	r16,68(sp)
  422218:	dfc01a15 	stw	ra,104(sp)
  42221c:	df001915 	stw	fp,100(sp)
  422220:	2029883a 	mov	r20,r4
  422224:	2823883a 	mov	r17,r5
  422228:	382d883a 	mov	r22,r7
  42222c:	d9800f15 	stw	r6,60(sp)
  422230:	0021883a 	mov	r16,zero
  422234:	d8000e15 	stw	zero,56(sp)
  422238:	d8000a15 	stw	zero,40(sp)
  42223c:	002b883a 	mov	r21,zero
  422240:	0027883a 	mov	r19,zero
  422244:	0025883a 	mov	r18,zero
  422248:	d8000c15 	stw	zero,48(sp)
  42224c:	d8000b15 	stw	zero,44(sp)
  422250:	002f883a 	mov	r23,zero
  422254:	d8c00915 	stw	r3,36(sp)
  422258:	d8c00f17 	ldw	r3,60(sp)
  42225c:	19000003 	ldbu	r4,0(r3)
  422260:	20803fcc 	andi	r2,r4,255
  422264:	1080201c 	xori	r2,r2,128
  422268:	10bfe004 	addi	r2,r2,-128
  42226c:	10011e26 	beq	r2,zero,4226e8 <___vfprintf_internal_r+0x4f8>
  422270:	00c00044 	movi	r3,1
  422274:	b8c01426 	beq	r23,r3,4222c8 <___vfprintf_internal_r+0xd8>
  422278:	1dc00216 	blt	r3,r23,422284 <___vfprintf_internal_r+0x94>
  42227c:	b8000626 	beq	r23,zero,422298 <___vfprintf_internal_r+0xa8>
  422280:	00011506 	br	4226d8 <___vfprintf_internal_r+0x4e8>
  422284:	01400084 	movi	r5,2
  422288:	b9401d26 	beq	r23,r5,422300 <___vfprintf_internal_r+0x110>
  42228c:	014000c4 	movi	r5,3
  422290:	b9402b26 	beq	r23,r5,422340 <___vfprintf_internal_r+0x150>
  422294:	00011006 	br	4226d8 <___vfprintf_internal_r+0x4e8>
  422298:	01400944 	movi	r5,37
  42229c:	1140fc26 	beq	r2,r5,422690 <___vfprintf_internal_r+0x4a0>
  4222a0:	88800117 	ldw	r2,4(r17)
  4222a4:	d9000005 	stb	r4,0(sp)
  4222a8:	01c00044 	movi	r7,1
  4222ac:	d80d883a 	mov	r6,sp
  4222b0:	880b883a 	mov	r5,r17
  4222b4:	a009883a 	mov	r4,r20
  4222b8:	103ee83a 	callr	r2
  4222bc:	1000d81e 	bne	r2,zero,422620 <___vfprintf_internal_r+0x430>
  4222c0:	84000044 	addi	r16,r16,1
  4222c4:	00010406 	br	4226d8 <___vfprintf_internal_r+0x4e8>
  4222c8:	01400c04 	movi	r5,48
  4222cc:	1140fa26 	beq	r2,r5,4226b8 <___vfprintf_internal_r+0x4c8>
  4222d0:	01400944 	movi	r5,37
  4222d4:	11400a1e 	bne	r2,r5,422300 <___vfprintf_internal_r+0x110>
  4222d8:	d8800005 	stb	r2,0(sp)
  4222dc:	88800117 	ldw	r2,4(r17)
  4222e0:	b80f883a 	mov	r7,r23
  4222e4:	d80d883a 	mov	r6,sp
  4222e8:	880b883a 	mov	r5,r17
  4222ec:	a009883a 	mov	r4,r20
  4222f0:	103ee83a 	callr	r2
  4222f4:	1000ca1e 	bne	r2,zero,422620 <___vfprintf_internal_r+0x430>
  4222f8:	84000044 	addi	r16,r16,1
  4222fc:	0000f506 	br	4226d4 <___vfprintf_internal_r+0x4e4>
  422300:	25fff404 	addi	r23,r4,-48
  422304:	bdc03fcc 	andi	r23,r23,255
  422308:	00c00244 	movi	r3,9
  42230c:	1dc00936 	bltu	r3,r23,422334 <___vfprintf_internal_r+0x144>
  422310:	00bfffc4 	movi	r2,-1
  422314:	90800426 	beq	r18,r2,422328 <___vfprintf_internal_r+0x138>
  422318:	01400284 	movi	r5,10
  42231c:	9009883a 	mov	r4,r18
  422320:	04220240 	call	422024 <__mulsi3>
  422324:	00000106 	br	42232c <___vfprintf_internal_r+0x13c>
  422328:	0005883a 	mov	r2,zero
  42232c:	b8a5883a 	add	r18,r23,r2
  422330:	0000e206 	br	4226bc <___vfprintf_internal_r+0x4cc>
  422334:	01400b84 	movi	r5,46
  422338:	1140e426 	beq	r2,r5,4226cc <___vfprintf_internal_r+0x4dc>
  42233c:	05c00084 	movi	r23,2
  422340:	213ff404 	addi	r4,r4,-48
  422344:	27003fcc 	andi	fp,r4,255
  422348:	00c00244 	movi	r3,9
  42234c:	1f000936 	bltu	r3,fp,422374 <___vfprintf_internal_r+0x184>
  422350:	00bfffc4 	movi	r2,-1
  422354:	98800426 	beq	r19,r2,422368 <___vfprintf_internal_r+0x178>
  422358:	01400284 	movi	r5,10
  42235c:	9809883a 	mov	r4,r19
  422360:	04220240 	call	422024 <__mulsi3>
  422364:	00000106 	br	42236c <___vfprintf_internal_r+0x17c>
  422368:	0005883a 	mov	r2,zero
  42236c:	e0a7883a 	add	r19,fp,r2
  422370:	0000d906 	br	4226d8 <___vfprintf_internal_r+0x4e8>
  422374:	00c01b04 	movi	r3,108
  422378:	10c0d226 	beq	r2,r3,4226c4 <___vfprintf_internal_r+0x4d4>
  42237c:	013fffc4 	movi	r4,-1
  422380:	99000226 	beq	r19,r4,42238c <___vfprintf_internal_r+0x19c>
  422384:	d8000b15 	stw	zero,44(sp)
  422388:	00000106 	br	422390 <___vfprintf_internal_r+0x1a0>
  42238c:	04c00044 	movi	r19,1
  422390:	01001a44 	movi	r4,105
  422394:	11001626 	beq	r2,r4,4223f0 <___vfprintf_internal_r+0x200>
  422398:	20800916 	blt	r4,r2,4223c0 <___vfprintf_internal_r+0x1d0>
  42239c:	010018c4 	movi	r4,99
  4223a0:	11008826 	beq	r2,r4,4225c4 <___vfprintf_internal_r+0x3d4>
  4223a4:	01001904 	movi	r4,100
  4223a8:	11001126 	beq	r2,r4,4223f0 <___vfprintf_internal_r+0x200>
  4223ac:	01001604 	movi	r4,88
  4223b0:	1100c81e 	bne	r2,r4,4226d4 <___vfprintf_internal_r+0x4e4>
  4223b4:	00c00044 	movi	r3,1
  4223b8:	d8c00e15 	stw	r3,56(sp)
  4223bc:	00001506 	br	422414 <___vfprintf_internal_r+0x224>
  4223c0:	01001cc4 	movi	r4,115
  4223c4:	11009826 	beq	r2,r4,422628 <___vfprintf_internal_r+0x438>
  4223c8:	20800416 	blt	r4,r2,4223dc <___vfprintf_internal_r+0x1ec>
  4223cc:	01001bc4 	movi	r4,111
  4223d0:	1100c01e 	bne	r2,r4,4226d4 <___vfprintf_internal_r+0x4e4>
  4223d4:	05400204 	movi	r21,8
  4223d8:	00000f06 	br	422418 <___vfprintf_internal_r+0x228>
  4223dc:	01001d44 	movi	r4,117
  4223e0:	11000d26 	beq	r2,r4,422418 <___vfprintf_internal_r+0x228>
  4223e4:	01001e04 	movi	r4,120
  4223e8:	11000a26 	beq	r2,r4,422414 <___vfprintf_internal_r+0x224>
  4223ec:	0000b906 	br	4226d4 <___vfprintf_internal_r+0x4e4>
  4223f0:	d8c00a17 	ldw	r3,40(sp)
  4223f4:	b7000104 	addi	fp,r22,4
  4223f8:	18000726 	beq	r3,zero,422418 <___vfprintf_internal_r+0x228>
  4223fc:	df000d15 	stw	fp,52(sp)
  422400:	b5c00017 	ldw	r23,0(r22)
  422404:	b800080e 	bge	r23,zero,422428 <___vfprintf_internal_r+0x238>
  422408:	05efc83a 	sub	r23,zero,r23
  42240c:	02400044 	movi	r9,1
  422410:	00000606 	br	42242c <___vfprintf_internal_r+0x23c>
  422414:	05400404 	movi	r21,16
  422418:	b0c00104 	addi	r3,r22,4
  42241c:	d8c00d15 	stw	r3,52(sp)
  422420:	b5c00017 	ldw	r23,0(r22)
  422424:	d8000a15 	stw	zero,40(sp)
  422428:	0013883a 	mov	r9,zero
  42242c:	d839883a 	mov	fp,sp
  422430:	b8001726 	beq	r23,zero,422490 <___vfprintf_internal_r+0x2a0>
  422434:	a80b883a 	mov	r5,r21
  422438:	b809883a 	mov	r4,r23
  42243c:	da401015 	stw	r9,64(sp)
  422440:	0421f680 	call	421f68 <__udivsi3>
  422444:	a80b883a 	mov	r5,r21
  422448:	1009883a 	mov	r4,r2
  42244c:	102d883a 	mov	r22,r2
  422450:	04220240 	call	422024 <__mulsi3>
  422454:	b885c83a 	sub	r2,r23,r2
  422458:	00c00244 	movi	r3,9
  42245c:	da401017 	ldw	r9,64(sp)
  422460:	18800216 	blt	r3,r2,42246c <___vfprintf_internal_r+0x27c>
  422464:	10800c04 	addi	r2,r2,48
  422468:	00000506 	br	422480 <___vfprintf_internal_r+0x290>
  42246c:	d8c00e17 	ldw	r3,56(sp)
  422470:	18000226 	beq	r3,zero,42247c <___vfprintf_internal_r+0x28c>
  422474:	10800dc4 	addi	r2,r2,55
  422478:	00000106 	br	422480 <___vfprintf_internal_r+0x290>
  42247c:	108015c4 	addi	r2,r2,87
  422480:	e0800005 	stb	r2,0(fp)
  422484:	b02f883a 	mov	r23,r22
  422488:	e7000044 	addi	fp,fp,1
  42248c:	003fe806 	br	422430 <plane+0xf838b7d0>
  422490:	e6efc83a 	sub	r23,fp,sp
  422494:	9dc5c83a 	sub	r2,r19,r23
  422498:	0080090e 	bge	zero,r2,4224c0 <___vfprintf_internal_r+0x2d0>
  42249c:	e085883a 	add	r2,fp,r2
  4224a0:	01400c04 	movi	r5,48
  4224a4:	d8c00917 	ldw	r3,36(sp)
  4224a8:	e009883a 	mov	r4,fp
  4224ac:	e0c0032e 	bgeu	fp,r3,4224bc <___vfprintf_internal_r+0x2cc>
  4224b0:	e7000044 	addi	fp,fp,1
  4224b4:	21400005 	stb	r5,0(r4)
  4224b8:	e0bffa1e 	bne	fp,r2,4224a4 <plane+0xf838b844>
  4224bc:	e6efc83a 	sub	r23,fp,sp
  4224c0:	d8c00b17 	ldw	r3,44(sp)
  4224c4:	4dd1883a 	add	r8,r9,r23
  4224c8:	922dc83a 	sub	r22,r18,r8
  4224cc:	18001626 	beq	r3,zero,422528 <___vfprintf_internal_r+0x338>
  4224d0:	48000a26 	beq	r9,zero,4224fc <___vfprintf_internal_r+0x30c>
  4224d4:	00800b44 	movi	r2,45
  4224d8:	d8800805 	stb	r2,32(sp)
  4224dc:	88800117 	ldw	r2,4(r17)
  4224e0:	01c00044 	movi	r7,1
  4224e4:	d9800804 	addi	r6,sp,32
  4224e8:	880b883a 	mov	r5,r17
  4224ec:	a009883a 	mov	r4,r20
  4224f0:	103ee83a 	callr	r2
  4224f4:	10004a1e 	bne	r2,zero,422620 <___vfprintf_internal_r+0x430>
  4224f8:	84000044 	addi	r16,r16,1
  4224fc:	0580070e 	bge	zero,r22,42251c <___vfprintf_internal_r+0x32c>
  422500:	b00f883a 	mov	r7,r22
  422504:	01800c04 	movi	r6,48
  422508:	880b883a 	mov	r5,r17
  42250c:	a009883a 	mov	r4,r20
  422510:	04221840 	call	422184 <print_repeat>
  422514:	1000421e 	bne	r2,zero,422620 <___vfprintf_internal_r+0x430>
  422518:	85a1883a 	add	r16,r16,r22
  42251c:	e02d883a 	mov	r22,fp
  422520:	bf2fc83a 	sub	r23,r23,fp
  422524:	00002006 	br	4225a8 <___vfprintf_internal_r+0x3b8>
  422528:	0580090e 	bge	zero,r22,422550 <___vfprintf_internal_r+0x360>
  42252c:	b00f883a 	mov	r7,r22
  422530:	01800804 	movi	r6,32
  422534:	880b883a 	mov	r5,r17
  422538:	a009883a 	mov	r4,r20
  42253c:	da401015 	stw	r9,64(sp)
  422540:	04221840 	call	422184 <print_repeat>
  422544:	da401017 	ldw	r9,64(sp)
  422548:	1000351e 	bne	r2,zero,422620 <___vfprintf_internal_r+0x430>
  42254c:	85a1883a 	add	r16,r16,r22
  422550:	483ff226 	beq	r9,zero,42251c <plane+0xf838b8bc>
  422554:	00800b44 	movi	r2,45
  422558:	d8800805 	stb	r2,32(sp)
  42255c:	88800117 	ldw	r2,4(r17)
  422560:	01c00044 	movi	r7,1
  422564:	d9800804 	addi	r6,sp,32
  422568:	880b883a 	mov	r5,r17
  42256c:	a009883a 	mov	r4,r20
  422570:	103ee83a 	callr	r2
  422574:	10002a1e 	bne	r2,zero,422620 <___vfprintf_internal_r+0x430>
  422578:	84000044 	addi	r16,r16,1
  42257c:	003fe706 	br	42251c <plane+0xf838b8bc>
  422580:	b5bfffc4 	addi	r22,r22,-1
  422584:	b0800003 	ldbu	r2,0(r22)
  422588:	01c00044 	movi	r7,1
  42258c:	d9800804 	addi	r6,sp,32
  422590:	d8800805 	stb	r2,32(sp)
  422594:	88800117 	ldw	r2,4(r17)
  422598:	880b883a 	mov	r5,r17
  42259c:	a009883a 	mov	r4,r20
  4225a0:	103ee83a 	callr	r2
  4225a4:	10001e1e 	bne	r2,zero,422620 <___vfprintf_internal_r+0x430>
  4225a8:	8585c83a 	sub	r2,r16,r22
  4225ac:	b5c9883a 	add	r4,r22,r23
  4225b0:	e085883a 	add	r2,fp,r2
  4225b4:	013ff216 	blt	zero,r4,422580 <plane+0xf838b920>
  4225b8:	1021883a 	mov	r16,r2
  4225bc:	dd800d17 	ldw	r22,52(sp)
  4225c0:	00004406 	br	4226d4 <___vfprintf_internal_r+0x4e4>
  4225c4:	00800044 	movi	r2,1
  4225c8:	1480080e 	bge	r2,r18,4225ec <___vfprintf_internal_r+0x3fc>
  4225cc:	95ffffc4 	addi	r23,r18,-1
  4225d0:	b80f883a 	mov	r7,r23
  4225d4:	01800804 	movi	r6,32
  4225d8:	880b883a 	mov	r5,r17
  4225dc:	a009883a 	mov	r4,r20
  4225e0:	04221840 	call	422184 <print_repeat>
  4225e4:	10000e1e 	bne	r2,zero,422620 <___vfprintf_internal_r+0x430>
  4225e8:	85e1883a 	add	r16,r16,r23
  4225ec:	b0800017 	ldw	r2,0(r22)
  4225f0:	01c00044 	movi	r7,1
  4225f4:	d80d883a 	mov	r6,sp
  4225f8:	d8800005 	stb	r2,0(sp)
  4225fc:	88800117 	ldw	r2,4(r17)
  422600:	880b883a 	mov	r5,r17
  422604:	a009883a 	mov	r4,r20
  422608:	b5c00104 	addi	r23,r22,4
  42260c:	103ee83a 	callr	r2
  422610:	1000031e 	bne	r2,zero,422620 <___vfprintf_internal_r+0x430>
  422614:	84000044 	addi	r16,r16,1
  422618:	b82d883a 	mov	r22,r23
  42261c:	00002d06 	br	4226d4 <___vfprintf_internal_r+0x4e4>
  422620:	00bfffc4 	movi	r2,-1
  422624:	00003106 	br	4226ec <___vfprintf_internal_r+0x4fc>
  422628:	b5c00017 	ldw	r23,0(r22)
  42262c:	b7000104 	addi	fp,r22,4
  422630:	b809883a 	mov	r4,r23
  422634:	04221680 	call	422168 <strlen>
  422638:	9091c83a 	sub	r8,r18,r2
  42263c:	102d883a 	mov	r22,r2
  422640:	0200090e 	bge	zero,r8,422668 <___vfprintf_internal_r+0x478>
  422644:	400f883a 	mov	r7,r8
  422648:	01800804 	movi	r6,32
  42264c:	880b883a 	mov	r5,r17
  422650:	a009883a 	mov	r4,r20
  422654:	da001015 	stw	r8,64(sp)
  422658:	04221840 	call	422184 <print_repeat>
  42265c:	da001017 	ldw	r8,64(sp)
  422660:	103fef1e 	bne	r2,zero,422620 <plane+0xf838b9c0>
  422664:	8221883a 	add	r16,r16,r8
  422668:	88800117 	ldw	r2,4(r17)
  42266c:	b00f883a 	mov	r7,r22
  422670:	b80d883a 	mov	r6,r23
  422674:	880b883a 	mov	r5,r17
  422678:	a009883a 	mov	r4,r20
  42267c:	103ee83a 	callr	r2
  422680:	103fe71e 	bne	r2,zero,422620 <plane+0xf838b9c0>
  422684:	85a1883a 	add	r16,r16,r22
  422688:	e02d883a 	mov	r22,fp
  42268c:	00001106 	br	4226d4 <___vfprintf_internal_r+0x4e4>
  422690:	00c00044 	movi	r3,1
  422694:	04ffffc4 	movi	r19,-1
  422698:	d8000e15 	stw	zero,56(sp)
  42269c:	d8c00a15 	stw	r3,40(sp)
  4226a0:	05400284 	movi	r21,10
  4226a4:	9825883a 	mov	r18,r19
  4226a8:	d8000c15 	stw	zero,48(sp)
  4226ac:	d8000b15 	stw	zero,44(sp)
  4226b0:	182f883a 	mov	r23,r3
  4226b4:	00000806 	br	4226d8 <___vfprintf_internal_r+0x4e8>
  4226b8:	ddc00b15 	stw	r23,44(sp)
  4226bc:	05c00084 	movi	r23,2
  4226c0:	00000506 	br	4226d8 <___vfprintf_internal_r+0x4e8>
  4226c4:	00c00044 	movi	r3,1
  4226c8:	d8c00c15 	stw	r3,48(sp)
  4226cc:	05c000c4 	movi	r23,3
  4226d0:	00000106 	br	4226d8 <___vfprintf_internal_r+0x4e8>
  4226d4:	002f883a 	mov	r23,zero
  4226d8:	d8c00f17 	ldw	r3,60(sp)
  4226dc:	18c00044 	addi	r3,r3,1
  4226e0:	d8c00f15 	stw	r3,60(sp)
  4226e4:	003edc06 	br	422258 <plane+0xf838b5f8>
  4226e8:	8005883a 	mov	r2,r16
  4226ec:	dfc01a17 	ldw	ra,104(sp)
  4226f0:	df001917 	ldw	fp,100(sp)
  4226f4:	ddc01817 	ldw	r23,96(sp)
  4226f8:	dd801717 	ldw	r22,92(sp)
  4226fc:	dd401617 	ldw	r21,88(sp)
  422700:	dd001517 	ldw	r20,84(sp)
  422704:	dcc01417 	ldw	r19,80(sp)
  422708:	dc801317 	ldw	r18,76(sp)
  42270c:	dc401217 	ldw	r17,72(sp)
  422710:	dc001117 	ldw	r16,68(sp)
  422714:	dec01b04 	addi	sp,sp,108
  422718:	f800283a 	ret

0042271c <__vfprintf_internal>:
  42271c:	008010b4 	movhi	r2,66
  422720:	10929904 	addi	r2,r2,19044
  422724:	300f883a 	mov	r7,r6
  422728:	280d883a 	mov	r6,r5
  42272c:	200b883a 	mov	r5,r4
  422730:	11000017 	ldw	r4,0(r2)
  422734:	04221f01 	jmpi	4221f0 <___vfprintf_internal_r>

00422738 <__sfvwrite_small_dev>:
  422738:	2880000b 	ldhu	r2,0(r5)
  42273c:	1080020c 	andi	r2,r2,8
  422740:	10002126 	beq	r2,zero,4227c8 <__sfvwrite_small_dev+0x90>
  422744:	2880008f 	ldh	r2,2(r5)
  422748:	defffa04 	addi	sp,sp,-24
  42274c:	dc000015 	stw	r16,0(sp)
  422750:	dfc00515 	stw	ra,20(sp)
  422754:	dd000415 	stw	r20,16(sp)
  422758:	dcc00315 	stw	r19,12(sp)
  42275c:	dc800215 	stw	r18,8(sp)
  422760:	dc400115 	stw	r17,4(sp)
  422764:	2821883a 	mov	r16,r5
  422768:	10001216 	blt	r2,zero,4227b4 <__sfvwrite_small_dev+0x7c>
  42276c:	2027883a 	mov	r19,r4
  422770:	3025883a 	mov	r18,r6
  422774:	3823883a 	mov	r17,r7
  422778:	05010004 	movi	r20,1024
  42277c:	04400b0e 	bge	zero,r17,4227ac <__sfvwrite_small_dev+0x74>
  422780:	880f883a 	mov	r7,r17
  422784:	a440010e 	bge	r20,r17,42278c <__sfvwrite_small_dev+0x54>
  422788:	01c10004 	movi	r7,1024
  42278c:	8140008f 	ldh	r5,2(r16)
  422790:	900d883a 	mov	r6,r18
  422794:	9809883a 	mov	r4,r19
  422798:	04227f00 	call	4227f0 <_write_r>
  42279c:	0080050e 	bge	zero,r2,4227b4 <__sfvwrite_small_dev+0x7c>
  4227a0:	88a3c83a 	sub	r17,r17,r2
  4227a4:	90a5883a 	add	r18,r18,r2
  4227a8:	003ff406 	br	42277c <plane+0xf838bb1c>
  4227ac:	0005883a 	mov	r2,zero
  4227b0:	00000706 	br	4227d0 <__sfvwrite_small_dev+0x98>
  4227b4:	8080000b 	ldhu	r2,0(r16)
  4227b8:	10801014 	ori	r2,r2,64
  4227bc:	8080000d 	sth	r2,0(r16)
  4227c0:	00bfffc4 	movi	r2,-1
  4227c4:	00000206 	br	4227d0 <__sfvwrite_small_dev+0x98>
  4227c8:	00bfffc4 	movi	r2,-1
  4227cc:	f800283a 	ret
  4227d0:	dfc00517 	ldw	ra,20(sp)
  4227d4:	dd000417 	ldw	r20,16(sp)
  4227d8:	dcc00317 	ldw	r19,12(sp)
  4227dc:	dc800217 	ldw	r18,8(sp)
  4227e0:	dc400117 	ldw	r17,4(sp)
  4227e4:	dc000017 	ldw	r16,0(sp)
  4227e8:	dec00604 	addi	sp,sp,24
  4227ec:	f800283a 	ret

004227f0 <_write_r>:
  4227f0:	defffd04 	addi	sp,sp,-12
  4227f4:	dc000015 	stw	r16,0(sp)
  4227f8:	040010b4 	movhi	r16,66
  4227fc:	dc400115 	stw	r17,4(sp)
  422800:	8414ae04 	addi	r16,r16,21176
  422804:	2023883a 	mov	r17,r4
  422808:	2809883a 	mov	r4,r5
  42280c:	300b883a 	mov	r5,r6
  422810:	380d883a 	mov	r6,r7
  422814:	dfc00215 	stw	ra,8(sp)
  422818:	80000015 	stw	zero,0(r16)
  42281c:	0422b380 	call	422b38 <write>
  422820:	00ffffc4 	movi	r3,-1
  422824:	10c0031e 	bne	r2,r3,422834 <_write_r+0x44>
  422828:	80c00017 	ldw	r3,0(r16)
  42282c:	18000126 	beq	r3,zero,422834 <_write_r+0x44>
  422830:	88c00015 	stw	r3,0(r17)
  422834:	dfc00217 	ldw	ra,8(sp)
  422838:	dc400117 	ldw	r17,4(sp)
  42283c:	dc000017 	ldw	r16,0(sp)
  422840:	dec00304 	addi	sp,sp,12
  422844:	f800283a 	ret

00422848 <alt_load>:
  422848:	deffff04 	addi	sp,sp,-4
  42284c:	018010b4 	movhi	r6,66
  422850:	01c010b4 	movhi	r7,66
  422854:	dfc00015 	stw	ra,0(sp)
  422858:	3190a504 	addi	r6,r6,17044
  42285c:	39d2a504 	addi	r7,r7,19092
  422860:	31c01026 	beq	r6,r7,4228a4 <alt_load+0x5c>
  422864:	008010b4 	movhi	r2,66
  422868:	1092a504 	addi	r2,r2,19092
  42286c:	30800d26 	beq	r6,r2,4228a4 <alt_load+0x5c>
  422870:	30c00104 	addi	r3,r6,4
  422874:	10c7c83a 	sub	r3,r2,r3
  422878:	1806d0ba 	srli	r3,r3,2
  42287c:	0005883a 	mov	r2,zero
  422880:	18c00044 	addi	r3,r3,1
  422884:	18c7883a 	add	r3,r3,r3
  422888:	18c7883a 	add	r3,r3,r3
  42288c:	11c9883a 	add	r4,r2,r7
  422890:	21400017 	ldw	r5,0(r4)
  422894:	1189883a 	add	r4,r2,r6
  422898:	10800104 	addi	r2,r2,4
  42289c:	21400015 	stw	r5,0(r4)
  4228a0:	10fffa1e 	bne	r2,r3,42288c <plane+0xf838bc2c>
  4228a4:	018010b4 	movhi	r6,66
  4228a8:	01c010b4 	movhi	r7,66
  4228ac:	31800804 	addi	r6,r6,32
  4228b0:	39c00804 	addi	r7,r7,32
  4228b4:	31c01026 	beq	r6,r7,4228f8 <alt_load+0xb0>
  4228b8:	008010b4 	movhi	r2,66
  4228bc:	10806104 	addi	r2,r2,388
  4228c0:	30800d26 	beq	r6,r2,4228f8 <alt_load+0xb0>
  4228c4:	30c00104 	addi	r3,r6,4
  4228c8:	10c7c83a 	sub	r3,r2,r3
  4228cc:	1806d0ba 	srli	r3,r3,2
  4228d0:	0005883a 	mov	r2,zero
  4228d4:	18c00044 	addi	r3,r3,1
  4228d8:	18c7883a 	add	r3,r3,r3
  4228dc:	18c7883a 	add	r3,r3,r3
  4228e0:	11c9883a 	add	r4,r2,r7
  4228e4:	21400017 	ldw	r5,0(r4)
  4228e8:	1189883a 	add	r4,r2,r6
  4228ec:	10800104 	addi	r2,r2,4
  4228f0:	21400015 	stw	r5,0(r4)
  4228f4:	18bffa1e 	bne	r3,r2,4228e0 <plane+0xf838bc80>
  4228f8:	018010b4 	movhi	r6,66
  4228fc:	01c010b4 	movhi	r7,66
  422900:	31905a04 	addi	r6,r6,16744
  422904:	39d05a04 	addi	r7,r7,16744
  422908:	31c01026 	beq	r6,r7,42294c <alt_load+0x104>
  42290c:	008010b4 	movhi	r2,66
  422910:	1090a504 	addi	r2,r2,17044
  422914:	30800d26 	beq	r6,r2,42294c <alt_load+0x104>
  422918:	30c00104 	addi	r3,r6,4
  42291c:	10c7c83a 	sub	r3,r2,r3
  422920:	1806d0ba 	srli	r3,r3,2
  422924:	0005883a 	mov	r2,zero
  422928:	18c00044 	addi	r3,r3,1
  42292c:	18c7883a 	add	r3,r3,r3
  422930:	18c7883a 	add	r3,r3,r3
  422934:	11c9883a 	add	r4,r2,r7
  422938:	21400017 	ldw	r5,0(r4)
  42293c:	1189883a 	add	r4,r2,r6
  422940:	10800104 	addi	r2,r2,4
  422944:	21400015 	stw	r5,0(r4)
  422948:	10fffa1e 	bne	r2,r3,422934 <plane+0xf838bcd4>
  42294c:	04237240 	call	423724 <alt_dcache_flush_all>
  422950:	dfc00017 	ldw	ra,0(sp)
  422954:	dec00104 	addi	sp,sp,4
  422958:	04238141 	jmpi	423814 <alt_icache_flush_all>

0042295c <alt_main>:
  42295c:	defffe04 	addi	sp,sp,-8
  422960:	0009883a 	mov	r4,zero
  422964:	dfc00115 	stw	ra,4(sp)
  422968:	dc000015 	stw	r16,0(sp)
  42296c:	0422c480 	call	422c48 <alt_irq_init>
  422970:	0422c680 	call	422c68 <alt_sys_init>
  422974:	018010b4 	movhi	r6,66
  422978:	31909c04 	addi	r6,r6,17008
  42297c:	300b883a 	mov	r5,r6
  422980:	3009883a 	mov	r4,r6
  422984:	04239980 	call	423998 <alt_io_redirect>
  422988:	d1a21d17 	ldw	r6,-30604(gp)
  42298c:	d1621e17 	ldw	r5,-30600(gp)
  422990:	d1221f17 	ldw	r4,-30596(gp)
  422994:	0420cd80 	call	420cd8 <main>
  422998:	01000044 	movi	r4,1
  42299c:	1021883a 	mov	r16,r2
  4229a0:	04236600 	call	423660 <close>
  4229a4:	8009883a 	mov	r4,r16
  4229a8:	0423ec80 	call	423ec8 <exit>

004229ac <alt_printf>:
  4229ac:	defff304 	addi	sp,sp,-52
  4229b0:	dc000015 	stw	r16,0(sp)
  4229b4:	2021883a 	mov	r16,r4
  4229b8:	dfc00915 	stw	ra,36(sp)
  4229bc:	df000815 	stw	fp,32(sp)
  4229c0:	ddc00715 	stw	r23,28(sp)
  4229c4:	dd800615 	stw	r22,24(sp)
  4229c8:	dd400515 	stw	r21,20(sp)
  4229cc:	dd000415 	stw	r20,16(sp)
  4229d0:	dcc00315 	stw	r19,12(sp)
  4229d4:	dc800215 	stw	r18,8(sp)
  4229d8:	dc400115 	stw	r17,4(sp)
  4229dc:	d9400a15 	stw	r5,40(sp)
  4229e0:	d9800b15 	stw	r6,44(sp)
  4229e4:	d9c00c15 	stw	r7,48(sp)
  4229e8:	04400944 	movi	r17,37
  4229ec:	dcc00a04 	addi	r19,sp,40
  4229f0:	054018c4 	movi	r21,99
  4229f4:	05801e04 	movi	r22,120
  4229f8:	048003c4 	movi	r18,15
  4229fc:	05000244 	movi	r20,9
  422a00:	81000007 	ldb	r4,0(r16)
  422a04:	20000526 	beq	r4,zero,422a1c <alt_printf+0x70>
  422a08:	24401026 	beq	r4,r17,422a4c <alt_printf+0xa0>
  422a0c:	84000044 	addi	r16,r16,1
  422a10:	0422b280 	call	422b28 <alt_putchar>
  422a14:	81000007 	ldb	r4,0(r16)
  422a18:	203ffb1e 	bne	r4,zero,422a08 <plane+0xf838bda8>
  422a1c:	dfc00917 	ldw	ra,36(sp)
  422a20:	df000817 	ldw	fp,32(sp)
  422a24:	ddc00717 	ldw	r23,28(sp)
  422a28:	dd800617 	ldw	r22,24(sp)
  422a2c:	dd400517 	ldw	r21,20(sp)
  422a30:	dd000417 	ldw	r20,16(sp)
  422a34:	dcc00317 	ldw	r19,12(sp)
  422a38:	dc800217 	ldw	r18,8(sp)
  422a3c:	dc400117 	ldw	r17,4(sp)
  422a40:	dc000017 	ldw	r16,0(sp)
  422a44:	dec00d04 	addi	sp,sp,52
  422a48:	f800283a 	ret
  422a4c:	80800047 	ldb	r2,1(r16)
  422a50:	84000084 	addi	r16,r16,2
  422a54:	103ff126 	beq	r2,zero,422a1c <plane+0xf838bdbc>
  422a58:	14402926 	beq	r2,r17,422b00 <alt_printf+0x154>
  422a5c:	15402b26 	beq	r2,r21,422b0c <alt_printf+0x160>
  422a60:	15800b26 	beq	r2,r22,422a90 <alt_printf+0xe4>
  422a64:	00c01cc4 	movi	r3,115
  422a68:	10ffe51e 	bne	r2,r3,422a00 <plane+0xf838bda0>
  422a6c:	9f000017 	ldw	fp,0(r19)
  422a70:	9cc00104 	addi	r19,r19,4
  422a74:	e1000007 	ldb	r4,0(fp)
  422a78:	203fe126 	beq	r4,zero,422a00 <plane+0xf838bda0>
  422a7c:	e7000044 	addi	fp,fp,1
  422a80:	0422b280 	call	422b28 <alt_putchar>
  422a84:	e1000007 	ldb	r4,0(fp)
  422a88:	203ffc1e 	bne	r4,zero,422a7c <plane+0xf838be1c>
  422a8c:	003fdc06 	br	422a00 <plane+0xf838bda0>
  422a90:	9dc00017 	ldw	r23,0(r19)
  422a94:	9cc00104 	addi	r19,r19,4
  422a98:	b8002026 	beq	r23,zero,422b1c <alt_printf+0x170>
  422a9c:	b8bc002c 	andhi	r2,r23,61440
  422aa0:	07000704 	movi	fp,28
  422aa4:	1000101e 	bne	r2,zero,422ae8 <alt_printf+0x13c>
  422aa8:	e73fff04 	addi	fp,fp,-4
  422aac:	9704983a 	sll	r2,r18,fp
  422ab0:	15c4703a 	and	r2,r2,r23
  422ab4:	103ffc26 	beq	r2,zero,422aa8 <plane+0xf838be48>
  422ab8:	e03fd116 	blt	fp,zero,422a00 <plane+0xf838bda0>
  422abc:	9708983a 	sll	r4,r18,fp
  422ac0:	25c8703a 	and	r4,r4,r23
  422ac4:	2708d83a 	srl	r4,r4,fp
  422ac8:	a1000b36 	bltu	r20,r4,422af8 <alt_printf+0x14c>
  422acc:	21000c04 	addi	r4,r4,48
  422ad0:	21003fcc 	andi	r4,r4,255
  422ad4:	2100201c 	xori	r4,r4,128
  422ad8:	e73fff04 	addi	fp,fp,-4
  422adc:	213fe004 	addi	r4,r4,-128
  422ae0:	0422b280 	call	422b28 <alt_putchar>
  422ae4:	e03fc616 	blt	fp,zero,422a00 <plane+0xf838bda0>
  422ae8:	9708983a 	sll	r4,r18,fp
  422aec:	25c8703a 	and	r4,r4,r23
  422af0:	2708d83a 	srl	r4,r4,fp
  422af4:	a13ff52e 	bgeu	r20,r4,422acc <plane+0xf838be6c>
  422af8:	210015c4 	addi	r4,r4,87
  422afc:	003ff406 	br	422ad0 <plane+0xf838be70>
  422b00:	8809883a 	mov	r4,r17
  422b04:	0422b280 	call	422b28 <alt_putchar>
  422b08:	003fbd06 	br	422a00 <plane+0xf838bda0>
  422b0c:	99000017 	ldw	r4,0(r19)
  422b10:	9cc00104 	addi	r19,r19,4
  422b14:	0422b280 	call	422b28 <alt_putchar>
  422b18:	003fb906 	br	422a00 <plane+0xf838bda0>
  422b1c:	01000c04 	movi	r4,48
  422b20:	0422b280 	call	422b28 <alt_putchar>
  422b24:	003fb606 	br	422a00 <plane+0xf838bda0>

00422b28 <alt_putchar>:
  422b28:	d0a00717 	ldw	r2,-32740(gp)
  422b2c:	11400217 	ldw	r5,8(r2)
  422b30:	0423f181 	jmpi	423f18 <putc>

00422b34 <usleep>:
  422b34:	04235d81 	jmpi	4235d8 <alt_busy_sleep>

00422b38 <write>:
  422b38:	defffa04 	addi	sp,sp,-24
  422b3c:	dfc00515 	stw	ra,20(sp)
  422b40:	dd000415 	stw	r20,16(sp)
  422b44:	dcc00315 	stw	r19,12(sp)
  422b48:	dc800215 	stw	r18,8(sp)
  422b4c:	dc400115 	stw	r17,4(sp)
  422b50:	dc000015 	stw	r16,0(sp)
  422b54:	20003116 	blt	r4,zero,422c1c <write+0xe4>
  422b58:	2827883a 	mov	r19,r5
  422b5c:	040010b4 	movhi	r16,66
  422b60:	01400304 	movi	r5,12
  422b64:	2025883a 	mov	r18,r4
  422b68:	3029883a 	mov	r20,r6
  422b6c:	84122804 	addi	r16,r16,18592
  422b70:	04220240 	call	422024 <__mulsi3>
  422b74:	80a3883a 	add	r17,r16,r2
  422b78:	88002826 	beq	r17,zero,422c1c <write+0xe4>
  422b7c:	88800217 	ldw	r2,8(r17)
  422b80:	108000cc 	andi	r2,r2,3
  422b84:	10001526 	beq	r2,zero,422bdc <write+0xa4>
  422b88:	01400304 	movi	r5,12
  422b8c:	9009883a 	mov	r4,r18
  422b90:	04220240 	call	422024 <__mulsi3>
  422b94:	8085883a 	add	r2,r16,r2
  422b98:	10800017 	ldw	r2,0(r2)
  422b9c:	10800617 	ldw	r2,24(r2)
  422ba0:	10000e26 	beq	r2,zero,422bdc <write+0xa4>
  422ba4:	a00d883a 	mov	r6,r20
  422ba8:	980b883a 	mov	r5,r19
  422bac:	8809883a 	mov	r4,r17
  422bb0:	103ee83a 	callr	r2
  422bb4:	1021883a 	mov	r16,r2
  422bb8:	10001116 	blt	r2,zero,422c00 <write+0xc8>
  422bbc:	dfc00517 	ldw	ra,20(sp)
  422bc0:	dd000417 	ldw	r20,16(sp)
  422bc4:	dcc00317 	ldw	r19,12(sp)
  422bc8:	dc800217 	ldw	r18,8(sp)
  422bcc:	dc400117 	ldw	r17,4(sp)
  422bd0:	dc000017 	ldw	r16,0(sp)
  422bd4:	dec00604 	addi	sp,sp,24
  422bd8:	f800283a 	ret
  422bdc:	d0a00f17 	ldw	r2,-32708(gp)
  422be0:	10000526 	beq	r2,zero,422bf8 <write+0xc0>
  422be4:	103ee83a 	callr	r2
  422be8:	00c00344 	movi	r3,13
  422bec:	10c00015 	stw	r3,0(r2)
  422bf0:	00bfffc4 	movi	r2,-1
  422bf4:	003ff106 	br	422bbc <plane+0xf838bf5c>
  422bf8:	d0a21c04 	addi	r2,gp,-30608
  422bfc:	003ffa06 	br	422be8 <plane+0xf838bf88>
  422c00:	d0a00f17 	ldw	r2,-32708(gp)
  422c04:	10000c26 	beq	r2,zero,422c38 <write+0x100>
  422c08:	103ee83a 	callr	r2
  422c0c:	0421c83a 	sub	r16,zero,r16
  422c10:	14000015 	stw	r16,0(r2)
  422c14:	00bfffc4 	movi	r2,-1
  422c18:	003fe806 	br	422bbc <plane+0xf838bf5c>
  422c1c:	d0a00f17 	ldw	r2,-32708(gp)
  422c20:	10000726 	beq	r2,zero,422c40 <write+0x108>
  422c24:	103ee83a 	callr	r2
  422c28:	00c01444 	movi	r3,81
  422c2c:	10c00015 	stw	r3,0(r2)
  422c30:	00bfffc4 	movi	r2,-1
  422c34:	003fe106 	br	422bbc <plane+0xf838bf5c>
  422c38:	d0a21c04 	addi	r2,gp,-30608
  422c3c:	003ff306 	br	422c0c <plane+0xf838bfac>
  422c40:	d0a21c04 	addi	r2,gp,-30608
  422c44:	003ff806 	br	422c28 <plane+0xf838bfc8>

00422c48 <alt_irq_init>:
  422c48:	deffff04 	addi	sp,sp,-4
  422c4c:	dfc00015 	stw	ra,0(sp)
  422c50:	0423d180 	call	423d18 <altera_nios2_gen2_irq_init>
  422c54:	00800044 	movi	r2,1
  422c58:	1001703a 	wrctl	status,r2
  422c5c:	dfc00017 	ldw	ra,0(sp)
  422c60:	dec00104 	addi	sp,sp,4
  422c64:	f800283a 	ret

00422c68 <alt_sys_init>:
  422c68:	01001134 	movhi	r4,68
  422c6c:	deffff04 	addi	sp,sp,-4
  422c70:	01c0fa04 	movi	r7,1000
  422c74:	01800044 	movi	r6,1
  422c78:	21069004 	addi	r4,r4,6720
  422c7c:	000b883a 	mov	r5,zero
  422c80:	dfc00015 	stw	ra,0(sp)
  422c84:	04235900 	call	423590 <alt_avalon_timer_sc_init>
  422c88:	010010b4 	movhi	r4,66
  422c8c:	21121d04 	addi	r4,r4,18548
  422c90:	d1600b04 	addi	r5,gp,-32724
  422c94:	04237300 	call	423730 <alt_dev_llist_insert>
  422c98:	010010b4 	movhi	r4,66
  422c9c:	21121104 	addi	r4,r4,18500
  422ca0:	01800084 	movi	r6,2
  422ca4:	000b883a 	mov	r5,zero
  422ca8:	04234d00 	call	4234d0 <alt_avalon_sgdma_init>
  422cac:	010010b4 	movhi	r4,66
  422cb0:	21120504 	addi	r4,r4,18452
  422cb4:	018000c4 	movi	r6,3
  422cb8:	000b883a 	mov	r5,zero
  422cbc:	04234d00 	call	4234d0 <alt_avalon_sgdma_init>
  422cc0:	010010b4 	movhi	r4,66
  422cc4:	2111f904 	addi	r4,r4,18404
  422cc8:	01800104 	movi	r6,4
  422ccc:	000b883a 	mov	r5,zero
  422cd0:	04234d00 	call	4234d0 <alt_avalon_sgdma_init>
  422cd4:	010010b4 	movhi	r4,66
  422cd8:	2111ed04 	addi	r4,r4,18356
  422cdc:	01800144 	movi	r6,5
  422ce0:	000b883a 	mov	r5,zero
  422ce4:	dfc00017 	ldw	ra,0(sp)
  422ce8:	dec00104 	addi	sp,sp,4
  422cec:	04234d01 	jmpi	4234d0 <alt_avalon_sgdma_init>

00422cf0 <altera_avalon_jtag_uart_read_fd>:
  422cf0:	20800017 	ldw	r2,0(r4)
  422cf4:	21c00217 	ldw	r7,8(r4)
  422cf8:	11000a04 	addi	r4,r2,40
  422cfc:	0422d101 	jmpi	422d10 <altera_avalon_jtag_uart_read>

00422d00 <altera_avalon_jtag_uart_write_fd>:
  422d00:	20800017 	ldw	r2,0(r4)
  422d04:	21c00217 	ldw	r7,8(r4)
  422d08:	11000a04 	addi	r4,r2,40
  422d0c:	0422d841 	jmpi	422d84 <altera_avalon_jtag_uart_write>

00422d10 <altera_avalon_jtag_uart_read>:
  422d10:	298d883a 	add	r6,r5,r6
  422d14:	22400017 	ldw	r9,0(r4)
  422d18:	2980162e 	bgeu	r5,r6,422d74 <altera_avalon_jtag_uart_read+0x64>
  422d1c:	2807883a 	mov	r3,r5
  422d20:	3a90000c 	andi	r10,r7,16384
  422d24:	00000306 	br	422d34 <altera_avalon_jtag_uart_read+0x24>
  422d28:	19000005 	stb	r4,0(r3)
  422d2c:	1180092e 	bgeu	r2,r6,422d54 <altera_avalon_jtag_uart_read+0x44>
  422d30:	1007883a 	mov	r3,r2
  422d34:	49000037 	ldwio	r4,0(r9)
  422d38:	2220000c 	andi	r8,r4,32768
  422d3c:	18800044 	addi	r2,r3,1
  422d40:	403ff91e 	bne	r8,zero,422d28 <plane+0xf838c0c8>
  422d44:	28c0061e 	bne	r5,r3,422d60 <altera_avalon_jtag_uart_read+0x50>
  422d48:	5000081e 	bne	r10,zero,422d6c <altera_avalon_jtag_uart_read+0x5c>
  422d4c:	2805883a 	mov	r2,r5
  422d50:	003ff706 	br	422d30 <plane+0xf838c0d0>
  422d54:	28800726 	beq	r5,r2,422d74 <altera_avalon_jtag_uart_read+0x64>
  422d58:	1145c83a 	sub	r2,r2,r5
  422d5c:	f800283a 	ret
  422d60:	1805883a 	mov	r2,r3
  422d64:	1145c83a 	sub	r2,r2,r5
  422d68:	f800283a 	ret
  422d6c:	00bffd44 	movi	r2,-11
  422d70:	f800283a 	ret
  422d74:	39d0000c 	andi	r7,r7,16384
  422d78:	383ffc1e 	bne	r7,zero,422d6c <plane+0xf838c10c>
  422d7c:	00bffec4 	movi	r2,-5
  422d80:	f800283a 	ret

00422d84 <altera_avalon_jtag_uart_write>:
  422d84:	21c00017 	ldw	r7,0(r4)
  422d88:	3005883a 	mov	r2,r6
  422d8c:	298d883a 	add	r6,r5,r6
  422d90:	39000104 	addi	r4,r7,4
  422d94:	2980072e 	bgeu	r5,r6,422db4 <altera_avalon_jtag_uart_write+0x30>
  422d98:	20c00037 	ldwio	r3,0(r4)
  422d9c:	18ffffec 	andhi	r3,r3,65535
  422da0:	183ffd26 	beq	r3,zero,422d98 <plane+0xf838c138>
  422da4:	28c00007 	ldb	r3,0(r5)
  422da8:	38c00035 	stwio	r3,0(r7)
  422dac:	29400044 	addi	r5,r5,1
  422db0:	003ff806 	br	422d94 <plane+0xf838c134>
  422db4:	f800283a 	ret

00422db8 <alt_avalon_sgdma_irq>:
  422db8:	20800317 	ldw	r2,12(r4)
  422dbc:	10800404 	addi	r2,r2,16
  422dc0:	10c00037 	ldwio	r3,0(r2)
  422dc4:	18e00034 	orhi	r3,r3,32768
  422dc8:	10c00035 	stwio	r3,0(r2)
  422dcc:	20800317 	ldw	r2,12(r4)
  422dd0:	10800437 	ldwio	r2,16(r2)
  422dd4:	20c00917 	ldw	r3,36(r4)
  422dd8:	18000d26 	beq	r3,zero,422e10 <alt_avalon_sgdma_irq+0x58>
  422ddc:	defffe04 	addi	sp,sp,-8
  422de0:	dfc00115 	stw	ra,4(sp)
  422de4:	dc000015 	stw	r16,0(sp)
  422de8:	0021303a 	rdctl	r16,status
  422dec:	00bfff84 	movi	r2,-2
  422df0:	8084703a 	and	r2,r16,r2
  422df4:	1001703a 	wrctl	status,r2
  422df8:	21000a17 	ldw	r4,40(r4)
  422dfc:	183ee83a 	callr	r3
  422e00:	8001703a 	wrctl	status,r16
  422e04:	dfc00117 	ldw	ra,4(sp)
  422e08:	dc000017 	ldw	r16,0(sp)
  422e0c:	dec00204 	addi	sp,sp,8
  422e10:	f800283a 	ret

00422e14 <alt_avalon_sgdma_do_async_transfer>:
  422e14:	20c00317 	ldw	r3,12(r4)
  422e18:	18800037 	ldwio	r2,0(r3)
  422e1c:	1080040c 	andi	r2,r2,16
  422e20:	10001c1e 	bne	r2,zero,422e94 <alt_avalon_sgdma_do_async_transfer+0x80>
  422e24:	18c00404 	addi	r3,r3,16
  422e28:	19c00037 	ldwio	r7,0(r3)
  422e2c:	01bff7c4 	movi	r6,-33
  422e30:	398c703a 	and	r6,r7,r6
  422e34:	19800035 	stwio	r6,0(r3)
  422e38:	20c00317 	ldw	r3,12(r4)
  422e3c:	01803fc4 	movi	r6,255
  422e40:	19800035 	stwio	r6,0(r3)
  422e44:	20c00317 	ldw	r3,12(r4)
  422e48:	19400835 	stwio	r5,32(r3)
  422e4c:	20c00917 	ldw	r3,36(r4)
  422e50:	18000826 	beq	r3,zero,422e74 <alt_avalon_sgdma_do_async_transfer+0x60>
  422e54:	20c00317 	ldw	r3,12(r4)
  422e58:	18c00404 	addi	r3,r3,16
  422e5c:	19400037 	ldwio	r5,0(r3)
  422e60:	21000b17 	ldw	r4,44(r4)
  422e64:	21001814 	ori	r4,r4,96
  422e68:	2148b03a 	or	r4,r4,r5
  422e6c:	19000035 	stwio	r4,0(r3)
  422e70:	f800283a 	ret
  422e74:	21000317 	ldw	r4,12(r4)
  422e78:	21000404 	addi	r4,r4,16
  422e7c:	21400037 	ldwio	r5,0(r4)
  422e80:	00fffbc4 	movi	r3,-17
  422e84:	28c6703a 	and	r3,r5,r3
  422e88:	18c01814 	ori	r3,r3,96
  422e8c:	20c00035 	stwio	r3,0(r4)
  422e90:	f800283a 	ret
  422e94:	00bffc04 	movi	r2,-16
  422e98:	f800283a 	ret

00422e9c <alt_avalon_sgdma_do_sync_transfer>:
  422e9c:	20c00317 	ldw	r3,12(r4)
  422ea0:	18800037 	ldwio	r2,0(r3)
  422ea4:	1080040c 	andi	r2,r2,16
  422ea8:	103ffd1e 	bne	r2,zero,422ea0 <plane+0xf838c240>
  422eac:	18c00404 	addi	r3,r3,16
  422eb0:	19800037 	ldwio	r6,0(r3)
  422eb4:	00bff7c4 	movi	r2,-33
  422eb8:	3084703a 	and	r2,r6,r2
  422ebc:	18800035 	stwio	r2,0(r3)
  422ec0:	20800317 	ldw	r2,12(r4)
  422ec4:	00c03fc4 	movi	r3,255
  422ec8:	10c00035 	stwio	r3,0(r2)
  422ecc:	20800317 	ldw	r2,12(r4)
  422ed0:	11400835 	stwio	r5,32(r2)
  422ed4:	20800317 	ldw	r2,12(r4)
  422ed8:	10800404 	addi	r2,r2,16
  422edc:	10c00037 	ldwio	r3,0(r2)
  422ee0:	18c01814 	ori	r3,r3,96
  422ee4:	10c00035 	stwio	r3,0(r2)
  422ee8:	20c00317 	ldw	r3,12(r4)
  422eec:	18800037 	ldwio	r2,0(r3)
  422ef0:	1080040c 	andi	r2,r2,16
  422ef4:	103ffd1e 	bne	r2,zero,422eec <plane+0xf838c28c>
  422ef8:	18c00404 	addi	r3,r3,16
  422efc:	19400037 	ldwio	r5,0(r3)
  422f00:	00bff7c4 	movi	r2,-33
  422f04:	2884703a 	and	r2,r5,r2
  422f08:	18800035 	stwio	r2,0(r3)
  422f0c:	20c00317 	ldw	r3,12(r4)
  422f10:	18800037 	ldwio	r2,0(r3)
  422f14:	01003fc4 	movi	r4,255
  422f18:	19000035 	stwio	r4,0(r3)
  422f1c:	f800283a 	ret

00422f20 <alt_avalon_sgdma_construct_mem_to_mem_desc_burst>:
  422f20:	defffb04 	addi	sp,sp,-20
  422f24:	dfc00415 	stw	ra,16(sp)
  422f28:	dcc00315 	stw	r19,12(sp)
  422f2c:	dc800215 	stw	r18,8(sp)
  422f30:	dc400115 	stw	r17,4(sp)
  422f34:	dc000015 	stw	r16,0(sp)
  422f38:	2a4007c3 	ldbu	r9,31(r5)
  422f3c:	da000517 	ldw	r8,20(sp)
  422f40:	da800617 	ldw	r10,24(sp)
  422f44:	d8c00717 	ldw	r3,28(sp)
  422f48:	db000817 	ldw	r12,32(sp)
  422f4c:	dac00917 	ldw	r11,36(sp)
  422f50:	2005883a 	mov	r2,r4
  422f54:	4a401fcc 	andi	r9,r9,127
  422f58:	2a4007e5 	stbio	r9,31(r5)
  422f5c:	413fffcc 	andi	r4,r8,65535
  422f60:	3026d23a 	srli	r19,r6,8
  422f64:	3024d43a 	srli	r18,r6,16
  422f68:	3022d63a 	srli	r17,r6,24
  422f6c:	3820d23a 	srli	r16,r7,8
  422f70:	383ed43a 	srli	ra,r7,16
  422f74:	381ed63a 	srli	r15,r7,24
  422f78:	281cd23a 	srli	r14,r5,8
  422f7c:	281ad43a 	srli	r13,r5,16
  422f80:	2812d63a 	srli	r9,r5,24
  422f84:	2010d23a 	srli	r8,r4,8
  422f88:	11800005 	stb	r6,0(r2)
  422f8c:	14c00045 	stb	r19,1(r2)
  422f90:	14800085 	stb	r18,2(r2)
  422f94:	144000c5 	stb	r17,3(r2)
  422f98:	11c00205 	stb	r7,8(r2)
  422f9c:	14000245 	stb	r16,9(r2)
  422fa0:	17c00285 	stb	ra,10(r2)
  422fa4:	13c002c5 	stb	r15,11(r2)
  422fa8:	11400405 	stb	r5,16(r2)
  422fac:	13800445 	stb	r14,17(r2)
  422fb0:	13400485 	stb	r13,18(r2)
  422fb4:	124004c5 	stb	r9,19(r2)
  422fb8:	10000105 	stb	zero,4(r2)
  422fbc:	10000145 	stb	zero,5(r2)
  422fc0:	10000185 	stb	zero,6(r2)
  422fc4:	100001c5 	stb	zero,7(r2)
  422fc8:	10000305 	stb	zero,12(r2)
  422fcc:	10000345 	stb	zero,13(r2)
  422fd0:	10000385 	stb	zero,14(r2)
  422fd4:	100003c5 	stb	zero,15(r2)
  422fd8:	10000505 	stb	zero,20(r2)
  422fdc:	10000545 	stb	zero,21(r2)
  422fe0:	10000585 	stb	zero,22(r2)
  422fe4:	100005c5 	stb	zero,23(r2)
  422fe8:	11000605 	stb	r4,24(r2)
  422fec:	12000645 	stb	r8,25(r2)
  422ff0:	10000705 	stb	zero,28(r2)
  422ff4:	10000745 	stb	zero,29(r2)
  422ff8:	10000785 	stb	zero,30(r2)
  422ffc:	13000685 	stb	r12,26(r2)
  423000:	12c006c5 	stb	r11,27(r2)
  423004:	50000e26 	beq	r10,zero,423040 <alt_avalon_sgdma_construct_mem_to_mem_desc_burst+0x120>
  423008:	01bfe084 	movi	r6,-126
  42300c:	1806c03a 	cmpne	r3,r3,zero
  423010:	180690ba 	slli	r3,r3,2
  423014:	01400804 	movi	r5,32
  423018:	1009883a 	mov	r4,r2
  42301c:	1986b03a 	or	r3,r3,r6
  423020:	10c007c5 	stb	r3,31(r2)
  423024:	dfc00417 	ldw	ra,16(sp)
  423028:	dcc00317 	ldw	r19,12(sp)
  42302c:	dc800217 	ldw	r18,8(sp)
  423030:	dc400117 	ldw	r17,4(sp)
  423034:	dc000017 	ldw	r16,0(sp)
  423038:	dec00504 	addi	sp,sp,20
  42303c:	04237201 	jmpi	423720 <alt_dcache_flush>
  423040:	01bfe004 	movi	r6,-128
  423044:	003ff106 	br	42300c <plane+0xf838c3ac>

00423048 <alt_avalon_sgdma_construct_mem_to_mem_desc>:
  423048:	defffa04 	addi	sp,sp,-24
  42304c:	d8c00817 	ldw	r3,32(sp)
  423050:	d880060b 	ldhu	r2,24(sp)
  423054:	d8000415 	stw	zero,16(sp)
  423058:	d8c00215 	stw	r3,8(sp)
  42305c:	d8c00717 	ldw	r3,28(sp)
  423060:	d8000315 	stw	zero,12(sp)
  423064:	d8800015 	stw	r2,0(sp)
  423068:	d8c00115 	stw	r3,4(sp)
  42306c:	dfc00515 	stw	ra,20(sp)
  423070:	0422f200 	call	422f20 <alt_avalon_sgdma_construct_mem_to_mem_desc_burst>
  423074:	dfc00517 	ldw	ra,20(sp)
  423078:	dec00604 	addi	sp,sp,24
  42307c:	f800283a 	ret

00423080 <alt_avalon_sgdma_construct_stream_to_mem_desc_burst>:
  423080:	288007c3 	ldbu	r2,31(r5)
  423084:	d8c00017 	ldw	r3,0(sp)
  423088:	da000117 	ldw	r8,4(sp)
  42308c:	10801fcc 	andi	r2,r2,127
  423090:	288007e5 	stbio	r2,31(r5)
  423094:	39ffffcc 	andi	r7,r7,65535
  423098:	301cd23a 	srli	r14,r6,8
  42309c:	301ad43a 	srli	r13,r6,16
  4230a0:	3018d63a 	srli	r12,r6,24
  4230a4:	2816d23a 	srli	r11,r5,8
  4230a8:	2814d43a 	srli	r10,r5,16
  4230ac:	2812d63a 	srli	r9,r5,24
  4230b0:	3804d23a 	srli	r2,r7,8
  4230b4:	20000005 	stb	zero,0(r4)
  4230b8:	20000045 	stb	zero,1(r4)
  4230bc:	20000085 	stb	zero,2(r4)
  4230c0:	200000c5 	stb	zero,3(r4)
  4230c4:	21800205 	stb	r6,8(r4)
  4230c8:	23800245 	stb	r14,9(r4)
  4230cc:	23400285 	stb	r13,10(r4)
  4230d0:	230002c5 	stb	r12,11(r4)
  4230d4:	21400405 	stb	r5,16(r4)
  4230d8:	22c00445 	stb	r11,17(r4)
  4230dc:	22800485 	stb	r10,18(r4)
  4230e0:	224004c5 	stb	r9,19(r4)
  4230e4:	20000105 	stb	zero,4(r4)
  4230e8:	20000145 	stb	zero,5(r4)
  4230ec:	20000185 	stb	zero,6(r4)
  4230f0:	200001c5 	stb	zero,7(r4)
  4230f4:	20000305 	stb	zero,12(r4)
  4230f8:	20000345 	stb	zero,13(r4)
  4230fc:	20000385 	stb	zero,14(r4)
  423100:	200003c5 	stb	zero,15(r4)
  423104:	20000505 	stb	zero,20(r4)
  423108:	20000545 	stb	zero,21(r4)
  42310c:	20000585 	stb	zero,22(r4)
  423110:	200005c5 	stb	zero,23(r4)
  423114:	21c00605 	stb	r7,24(r4)
  423118:	20800645 	stb	r2,25(r4)
  42311c:	20000705 	stb	zero,28(r4)
  423120:	20000745 	stb	zero,29(r4)
  423124:	20000785 	stb	zero,30(r4)
  423128:	20000685 	stb	zero,26(r4)
  42312c:	220006c5 	stb	r8,27(r4)
  423130:	1800041e 	bne	r3,zero,423144 <alt_avalon_sgdma_construct_stream_to_mem_desc_burst+0xc4>
  423134:	00bfe004 	movi	r2,-128
  423138:	01400804 	movi	r5,32
  42313c:	208007c5 	stb	r2,31(r4)
  423140:	04237201 	jmpi	423720 <alt_dcache_flush>
  423144:	00bfe104 	movi	r2,-124
  423148:	01400804 	movi	r5,32
  42314c:	208007c5 	stb	r2,31(r4)
  423150:	04237201 	jmpi	423720 <alt_dcache_flush>

00423154 <alt_avalon_sgdma_construct_stream_to_mem_desc>:
  423154:	defffd04 	addi	sp,sp,-12
  423158:	d8800317 	ldw	r2,12(sp)
  42315c:	d8000115 	stw	zero,4(sp)
  423160:	39ffffcc 	andi	r7,r7,65535
  423164:	d8800015 	stw	r2,0(sp)
  423168:	dfc00215 	stw	ra,8(sp)
  42316c:	04230800 	call	423080 <alt_avalon_sgdma_construct_stream_to_mem_desc_burst>
  423170:	dfc00217 	ldw	ra,8(sp)
  423174:	dec00304 	addi	sp,sp,12
  423178:	f800283a 	ret

0042317c <alt_avalon_sgdma_register_callback>:
  42317c:	21400915 	stw	r5,36(r4)
  423180:	21c00a15 	stw	r7,40(r4)
  423184:	21800b15 	stw	r6,44(r4)
  423188:	f800283a 	ret

0042318c <alt_avalon_sgdma_start>:
  42318c:	20800317 	ldw	r2,12(r4)
  423190:	10800404 	addi	r2,r2,16
  423194:	10c00037 	ldwio	r3,0(r2)
  423198:	18c00814 	ori	r3,r3,32
  42319c:	10c00035 	stwio	r3,0(r2)
  4231a0:	f800283a 	ret

004231a4 <alt_avalon_sgdma_stop>:
  4231a4:	20800317 	ldw	r2,12(r4)
  4231a8:	10800404 	addi	r2,r2,16
  4231ac:	11000037 	ldwio	r4,0(r2)
  4231b0:	00fff7c4 	movi	r3,-33
  4231b4:	20c6703a 	and	r3,r4,r3
  4231b8:	10c00035 	stwio	r3,0(r2)
  4231bc:	f800283a 	ret

004231c0 <alt_avalon_sgdma_check_descriptor_status>:
  4231c0:	208007a3 	ldbuio	r2,30(r4)
  4231c4:	10801fcc 	andi	r2,r2,127
  4231c8:	1000041e 	bne	r2,zero,4231dc <alt_avalon_sgdma_check_descriptor_status+0x1c>
  4231cc:	208007e3 	ldbuio	r2,31(r4)
  4231d0:	1080200c 	andi	r2,r2,128
  4231d4:	1000031e 	bne	r2,zero,4231e4 <alt_avalon_sgdma_check_descriptor_status+0x24>
  4231d8:	f800283a 	ret
  4231dc:	00bffec4 	movi	r2,-5
  4231e0:	f800283a 	ret
  4231e4:	00bfe244 	movi	r2,-119
  4231e8:	f800283a 	ret

004231ec <alt_avalon_sgdma_open>:
  4231ec:	defffe04 	addi	sp,sp,-8
  4231f0:	d1600804 	addi	r5,gp,-32736
  4231f4:	dc000015 	stw	r16,0(sp)
  4231f8:	dfc00115 	stw	ra,4(sp)
  4231fc:	042379c0 	call	42379c <alt_find_dev>
  423200:	1021883a 	mov	r16,r2
  423204:	10000526 	beq	r2,zero,42321c <alt_avalon_sgdma_open+0x30>
  423208:	8005883a 	mov	r2,r16
  42320c:	dfc00117 	ldw	ra,4(sp)
  423210:	dc000017 	ldw	r16,0(sp)
  423214:	dec00204 	addi	sp,sp,8
  423218:	f800283a 	ret
  42321c:	d0a00f17 	ldw	r2,-32708(gp)
  423220:	10000426 	beq	r2,zero,423234 <alt_avalon_sgdma_open+0x48>
  423224:	103ee83a 	callr	r2
  423228:	00c004c4 	movi	r3,19
  42322c:	10c00015 	stw	r3,0(r2)
  423230:	003ff506 	br	423208 <plane+0xf838c5a8>
  423234:	d0a21c04 	addi	r2,gp,-30608
  423238:	003ffb06 	br	423228 <plane+0xf838c5c8>

0042323c <alt_avalon_sgdma_enable_desc_poll>:
  42323c:	20c00317 	ldw	r3,12(r4)
  423240:	18c00404 	addi	r3,r3,16
  423244:	19000037 	ldwio	r4,0(r3)
  423248:	00a00434 	movhi	r2,32784
  42324c:	280a953a 	slli	r5,r5,20
  423250:	10bfffc4 	addi	r2,r2,-1
  423254:	2084703a 	and	r2,r4,r2
  423258:	295ffc2c 	andhi	r5,r5,32752
  42325c:	29400134 	orhi	r5,r5,4
  423260:	288ab03a 	or	r5,r5,r2
  423264:	19400035 	stwio	r5,0(r3)
  423268:	f800283a 	ret

0042326c <alt_avalon_sgdma_disable_desc_poll>:
  42326c:	20800317 	ldw	r2,12(r4)
  423270:	10800404 	addi	r2,r2,16
  423274:	11000037 	ldwio	r4,0(r2)
  423278:	00ffff34 	movhi	r3,65532
  42327c:	18ffffc4 	addi	r3,r3,-1
  423280:	20c6703a 	and	r3,r4,r3
  423284:	10c00035 	stwio	r3,0(r2)
  423288:	f800283a 	ret

0042328c <alt_avalon_sgdma_construct_descriptor_burst>:
  42328c:	defff804 	addi	sp,sp,-32
  423290:	dfc00715 	stw	ra,28(sp)
  423294:	dd800615 	stw	r22,24(sp)
  423298:	dd400515 	stw	r21,20(sp)
  42329c:	dd000415 	stw	r20,16(sp)
  4232a0:	dcc00315 	stw	r19,12(sp)
  4232a4:	dc800215 	stw	r18,8(sp)
  4232a8:	dc400115 	stw	r17,4(sp)
  4232ac:	dc000015 	stw	r16,0(sp)
  4232b0:	2b4007c3 	ldbu	r13,31(r5)
  4232b4:	da800817 	ldw	r10,32(sp)
  4232b8:	d8c00917 	ldw	r3,36(sp)
  4232bc:	da000a17 	ldw	r8,40(sp)
  4232c0:	d8800b17 	ldw	r2,44(sp)
  4232c4:	db000c17 	ldw	r12,48(sp)
  4232c8:	dac00d17 	ldw	r11,52(sp)
  4232cc:	da400e17 	ldw	r9,56(sp)
  4232d0:	6b401fcc 	andi	r13,r13,127
  4232d4:	2b4007e5 	stbio	r13,31(r5)
  4232d8:	52bfffcc 	andi	r10,r10,65535
  4232dc:	4010c03a 	cmpne	r8,r8,zero
  4232e0:	283ed23a 	srli	ra,r5,8
  4232e4:	281ed43a 	srli	r15,r5,16
  4232e8:	281cd63a 	srli	r14,r5,24
  4232ec:	1004c03a 	cmpne	r2,r2,zero
  4232f0:	302ad23a 	srli	r21,r6,8
  4232f4:	3028d43a 	srli	r20,r6,16
  4232f8:	3026d63a 	srli	r19,r6,24
  4232fc:	3824d23a 	srli	r18,r7,8
  423300:	3822d43a 	srli	r17,r7,16
  423304:	3820d63a 	srli	r16,r7,24
  423308:	501ad23a 	srli	r13,r10,8
  42330c:	4010907a 	slli	r8,r8,1
  423310:	182cc03a 	cmpne	r22,r3,zero
  423314:	100690ba 	slli	r3,r2,2
  423318:	b0bfe004 	addi	r2,r22,-128
  42331c:	1204b03a 	or	r2,r2,r8
  423320:	21400405 	stb	r5,16(r4)
  423324:	21800005 	stb	r6,0(r4)
  423328:	25400045 	stb	r21,1(r4)
  42332c:	25000085 	stb	r20,2(r4)
  423330:	24c000c5 	stb	r19,3(r4)
  423334:	21c00205 	stb	r7,8(r4)
  423338:	24800245 	stb	r18,9(r4)
  42333c:	24400285 	stb	r17,10(r4)
  423340:	240002c5 	stb	r16,11(r4)
  423344:	27c00445 	stb	ra,17(r4)
  423348:	23c00485 	stb	r15,18(r4)
  42334c:	238004c5 	stb	r14,19(r4)
  423350:	20000105 	stb	zero,4(r4)
  423354:	20000145 	stb	zero,5(r4)
  423358:	20000185 	stb	zero,6(r4)
  42335c:	200001c5 	stb	zero,7(r4)
  423360:	20000305 	stb	zero,12(r4)
  423364:	20000345 	stb	zero,13(r4)
  423368:	20000385 	stb	zero,14(r4)
  42336c:	200003c5 	stb	zero,15(r4)
  423370:	20000505 	stb	zero,20(r4)
  423374:	20000545 	stb	zero,21(r4)
  423378:	20000585 	stb	zero,22(r4)
  42337c:	200005c5 	stb	zero,23(r4)
  423380:	22800605 	stb	r10,24(r4)
  423384:	23400645 	stb	r13,25(r4)
  423388:	20000705 	stb	zero,28(r4)
  42338c:	20000745 	stb	zero,29(r4)
  423390:	20000785 	stb	zero,30(r4)
  423394:	23000685 	stb	r12,26(r4)
  423398:	22c006c5 	stb	r11,27(r4)
  42339c:	49403fcc 	andi	r5,r9,255
  4233a0:	10c4b03a 	or	r2,r2,r3
  4233a4:	28000f26 	beq	r5,zero,4233e4 <alt_avalon_sgdma_construct_descriptor_burst+0x158>
  4233a8:	4a4003cc 	andi	r9,r9,15
  4233ac:	481290fa 	slli	r9,r9,3
  4233b0:	1244b03a 	or	r2,r2,r9
  4233b4:	01400804 	movi	r5,32
  4233b8:	208007c5 	stb	r2,31(r4)
  4233bc:	dfc00717 	ldw	ra,28(sp)
  4233c0:	dd800617 	ldw	r22,24(sp)
  4233c4:	dd400517 	ldw	r21,20(sp)
  4233c8:	dd000417 	ldw	r20,16(sp)
  4233cc:	dcc00317 	ldw	r19,12(sp)
  4233d0:	dc800217 	ldw	r18,8(sp)
  4233d4:	dc400117 	ldw	r17,4(sp)
  4233d8:	dc000017 	ldw	r16,0(sp)
  4233dc:	dec00804 	addi	sp,sp,32
  4233e0:	04237201 	jmpi	423720 <alt_dcache_flush>
  4233e4:	0013883a 	mov	r9,zero
  4233e8:	003ff106 	br	4233b0 <plane+0xf838c750>

004233ec <alt_avalon_sgdma_construct_mem_to_stream_desc_burst>:
  4233ec:	defff804 	addi	sp,sp,-32
  4233f0:	d8800c03 	ldbu	r2,48(sp)
  4233f4:	39ffffcc 	andi	r7,r7,65535
  4233f8:	d9c00015 	stw	r7,0(sp)
  4233fc:	d8800615 	stw	r2,24(sp)
  423400:	d8800b17 	ldw	r2,44(sp)
  423404:	d8000515 	stw	zero,20(sp)
  423408:	000f883a 	mov	r7,zero
  42340c:	d8800415 	stw	r2,16(sp)
  423410:	d8800917 	ldw	r2,36(sp)
  423414:	dfc00715 	stw	ra,28(sp)
  423418:	d8800315 	stw	r2,12(sp)
  42341c:	d8800817 	ldw	r2,32(sp)
  423420:	d8800215 	stw	r2,8(sp)
  423424:	d8800a17 	ldw	r2,40(sp)
  423428:	d8800115 	stw	r2,4(sp)
  42342c:	042328c0 	call	42328c <alt_avalon_sgdma_construct_descriptor_burst>
  423430:	dfc00717 	ldw	ra,28(sp)
  423434:	dec00804 	addi	sp,sp,32
  423438:	f800283a 	ret

0042343c <alt_avalon_sgdma_construct_mem_to_stream_desc>:
  42343c:	defff804 	addi	sp,sp,-32
  423440:	d8800b03 	ldbu	r2,44(sp)
  423444:	39ffffcc 	andi	r7,r7,65535
  423448:	d9c00015 	stw	r7,0(sp)
  42344c:	d8800615 	stw	r2,24(sp)
  423450:	d8800917 	ldw	r2,36(sp)
  423454:	d8000515 	stw	zero,20(sp)
  423458:	d8000415 	stw	zero,16(sp)
  42345c:	d8800315 	stw	r2,12(sp)
  423460:	d8800817 	ldw	r2,32(sp)
  423464:	000f883a 	mov	r7,zero
  423468:	dfc00715 	stw	ra,28(sp)
  42346c:	d8800215 	stw	r2,8(sp)
  423470:	d8800a17 	ldw	r2,40(sp)
  423474:	d8800115 	stw	r2,4(sp)
  423478:	042328c0 	call	42328c <alt_avalon_sgdma_construct_descriptor_burst>
  42347c:	dfc00717 	ldw	ra,28(sp)
  423480:	dec00804 	addi	sp,sp,32
  423484:	f800283a 	ret

00423488 <alt_avalon_sgdma_construct_descriptor>:
  423488:	defff804 	addi	sp,sp,-32
  42348c:	d8c00c03 	ldbu	r3,48(sp)
  423490:	d880080b 	ldhu	r2,32(sp)
  423494:	d8000515 	stw	zero,20(sp)
  423498:	d8c00615 	stw	r3,24(sp)
  42349c:	d8c00b17 	ldw	r3,44(sp)
  4234a0:	d8000415 	stw	zero,16(sp)
  4234a4:	d8800015 	stw	r2,0(sp)
  4234a8:	d8c00315 	stw	r3,12(sp)
  4234ac:	d8c00a17 	ldw	r3,40(sp)
  4234b0:	dfc00715 	stw	ra,28(sp)
  4234b4:	d8c00215 	stw	r3,8(sp)
  4234b8:	d8c00917 	ldw	r3,36(sp)
  4234bc:	d8c00115 	stw	r3,4(sp)
  4234c0:	042328c0 	call	42328c <alt_avalon_sgdma_construct_descriptor_burst>
  4234c4:	dfc00717 	ldw	ra,28(sp)
  4234c8:	dec00804 	addi	sp,sp,32
  4234cc:	f800283a 	ret

004234d0 <alt_avalon_sgdma_init>:
  4234d0:	20c00317 	ldw	r3,12(r4)
  4234d4:	defffb04 	addi	sp,sp,-20
  4234d8:	dc800315 	stw	r18,12(sp)
  4234dc:	dc400215 	stw	r17,8(sp)
  4234e0:	dc000115 	stw	r16,4(sp)
  4234e4:	dfc00415 	stw	ra,16(sp)
  4234e8:	2021883a 	mov	r16,r4
  4234ec:	2823883a 	mov	r17,r5
  4234f0:	3025883a 	mov	r18,r6
  4234f4:	00800074 	movhi	r2,1
  4234f8:	18800435 	stwio	r2,16(r3)
  4234fc:	20c00317 	ldw	r3,12(r4)
  423500:	18800435 	stwio	r2,16(r3)
  423504:	20800317 	ldw	r2,12(r4)
  423508:	10000435 	stwio	zero,16(r2)
  42350c:	20800317 	ldw	r2,12(r4)
  423510:	00c03fc4 	movi	r3,255
  423514:	10c00035 	stwio	r3,0(r2)
  423518:	d1600804 	addi	r5,gp,-32736
  42351c:	04237300 	call	423730 <alt_dev_llist_insert>
  423520:	018010b4 	movhi	r6,66
  423524:	318b6e04 	addi	r6,r6,11704
  423528:	d8000015 	stw	zero,0(sp)
  42352c:	800f883a 	mov	r7,r16
  423530:	900b883a 	mov	r5,r18
  423534:	8809883a 	mov	r4,r17
  423538:	04238180 	call	423818 <alt_ic_isr_register>
  42353c:	dfc00417 	ldw	ra,16(sp)
  423540:	dc800317 	ldw	r18,12(sp)
  423544:	dc400217 	ldw	r17,8(sp)
  423548:	dc000117 	ldw	r16,4(sp)
  42354c:	dec00504 	addi	sp,sp,20
  423550:	f800283a 	ret

00423554 <alt_avalon_timer_sc_irq>:
  423554:	defffe04 	addi	sp,sp,-8
  423558:	dfc00115 	stw	ra,4(sp)
  42355c:	dc000015 	stw	r16,0(sp)
  423560:	20000035 	stwio	zero,0(r4)
  423564:	20800137 	ldwio	r2,4(r4)
  423568:	0021303a 	rdctl	r16,status
  42356c:	00bfff84 	movi	r2,-2
  423570:	8084703a 	and	r2,r16,r2
  423574:	1001703a 	wrctl	status,r2
  423578:	0423c240 	call	423c24 <alt_tick>
  42357c:	8001703a 	wrctl	status,r16
  423580:	dfc00117 	ldw	ra,4(sp)
  423584:	dc000017 	ldw	r16,0(sp)
  423588:	dec00204 	addi	sp,sp,8
  42358c:	f800283a 	ret

00423590 <alt_avalon_timer_sc_init>:
  423590:	d0e22217 	ldw	r3,-30584(gp)
  423594:	defffe04 	addi	sp,sp,-8
  423598:	dfc00115 	stw	ra,4(sp)
  42359c:	2005883a 	mov	r2,r4
  4235a0:	2809883a 	mov	r4,r5
  4235a4:	300b883a 	mov	r5,r6
  4235a8:	1800011e 	bne	r3,zero,4235b0 <alt_avalon_timer_sc_init+0x20>
  4235ac:	d1e22215 	stw	r7,-30584(gp)
  4235b0:	00c001c4 	movi	r3,7
  4235b4:	10c00135 	stwio	r3,4(r2)
  4235b8:	018010b4 	movhi	r6,66
  4235bc:	318d5504 	addi	r6,r6,13652
  4235c0:	d8000015 	stw	zero,0(sp)
  4235c4:	100f883a 	mov	r7,r2
  4235c8:	04238180 	call	423818 <alt_ic_isr_register>
  4235cc:	dfc00117 	ldw	ra,4(sp)
  4235d0:	dec00204 	addi	sp,sp,8
  4235d4:	f800283a 	ret

004235d8 <alt_busy_sleep>:
  4235d8:	014666b4 	movhi	r5,6554
  4235dc:	defffe04 	addi	sp,sp,-8
  4235e0:	29666644 	addi	r5,r5,-26215
  4235e4:	dc000015 	stw	r16,0(sp)
  4235e8:	dfc00115 	stw	ra,4(sp)
  4235ec:	2021883a 	mov	r16,r4
  4235f0:	0421f680 	call	421f68 <__udivsi3>
  4235f4:	10001426 	beq	r2,zero,423648 <alt_busy_sleep+0x70>
  4235f8:	01600034 	movhi	r5,32768
  4235fc:	013999b4 	movhi	r4,58982
  423600:	297fffc4 	addi	r5,r5,-1
  423604:	211999c4 	addi	r4,r4,26215
  423608:	0007883a 	mov	r3,zero
  42360c:	297fffc4 	addi	r5,r5,-1
  423610:	283ffe1e 	bne	r5,zero,42360c <plane+0xf838c9ac>
  423614:	18c00044 	addi	r3,r3,1
  423618:	8121883a 	add	r16,r16,r4
  42361c:	18bffb16 	blt	r3,r2,42360c <plane+0xf838c9ac>
  423620:	01400144 	movi	r5,5
  423624:	8009883a 	mov	r4,r16
  423628:	04220240 	call	422024 <__mulsi3>
  42362c:	10bfffc4 	addi	r2,r2,-1
  423630:	103ffe1e 	bne	r2,zero,42362c <plane+0xf838c9cc>
  423634:	0005883a 	mov	r2,zero
  423638:	dfc00117 	ldw	ra,4(sp)
  42363c:	dc000017 	ldw	r16,0(sp)
  423640:	dec00204 	addi	sp,sp,8
  423644:	f800283a 	ret
  423648:	01400144 	movi	r5,5
  42364c:	8009883a 	mov	r4,r16
  423650:	04220240 	call	422024 <__mulsi3>
  423654:	10bfffc4 	addi	r2,r2,-1
  423658:	00bffe16 	blt	zero,r2,423654 <plane+0xf838c9f4>
  42365c:	003ff506 	br	423634 <plane+0xf838c9d4>

00423660 <close>:
  423660:	defffd04 	addi	sp,sp,-12
  423664:	dfc00215 	stw	ra,8(sp)
  423668:	dc400115 	stw	r17,4(sp)
  42366c:	dc000015 	stw	r16,0(sp)
  423670:	20002016 	blt	r4,zero,4236f4 <close+0x94>
  423674:	01400304 	movi	r5,12
  423678:	2021883a 	mov	r16,r4
  42367c:	04220240 	call	422024 <__mulsi3>
  423680:	010010b4 	movhi	r4,66
  423684:	21122804 	addi	r4,r4,18592
  423688:	2089883a 	add	r4,r4,r2
  42368c:	20001926 	beq	r4,zero,4236f4 <close+0x94>
  423690:	20800017 	ldw	r2,0(r4)
  423694:	10800417 	ldw	r2,16(r2)
  423698:	10000b26 	beq	r2,zero,4236c8 <close+0x68>
  42369c:	103ee83a 	callr	r2
  4236a0:	8009883a 	mov	r4,r16
  4236a4:	1023883a 	mov	r17,r2
  4236a8:	0423b940 	call	423b94 <alt_release_fd>
  4236ac:	0005883a 	mov	r2,zero
  4236b0:	88000916 	blt	r17,zero,4236d8 <close+0x78>
  4236b4:	dfc00217 	ldw	ra,8(sp)
  4236b8:	dc400117 	ldw	r17,4(sp)
  4236bc:	dc000017 	ldw	r16,0(sp)
  4236c0:	dec00304 	addi	sp,sp,12
  4236c4:	f800283a 	ret
  4236c8:	8009883a 	mov	r4,r16
  4236cc:	0423b940 	call	423b94 <alt_release_fd>
  4236d0:	0005883a 	mov	r2,zero
  4236d4:	003ff706 	br	4236b4 <plane+0xf838ca54>
  4236d8:	d0a00f17 	ldw	r2,-32708(gp)
  4236dc:	10000c26 	beq	r2,zero,423710 <close+0xb0>
  4236e0:	103ee83a 	callr	r2
  4236e4:	0463c83a 	sub	r17,zero,r17
  4236e8:	14400015 	stw	r17,0(r2)
  4236ec:	00bfffc4 	movi	r2,-1
  4236f0:	003ff006 	br	4236b4 <plane+0xf838ca54>
  4236f4:	d0a00f17 	ldw	r2,-32708(gp)
  4236f8:	10000726 	beq	r2,zero,423718 <close+0xb8>
  4236fc:	103ee83a 	callr	r2
  423700:	00c01444 	movi	r3,81
  423704:	10c00015 	stw	r3,0(r2)
  423708:	00bfffc4 	movi	r2,-1
  42370c:	003fe906 	br	4236b4 <plane+0xf838ca54>
  423710:	d0a21c04 	addi	r2,gp,-30608
  423714:	003ff306 	br	4236e4 <plane+0xf838ca84>
  423718:	d0a21c04 	addi	r2,gp,-30608
  42371c:	003ff806 	br	423700 <plane+0xf838caa0>

00423720 <alt_dcache_flush>:
  423720:	f800283a 	ret

00423724 <alt_dcache_flush_all>:
  423724:	f800283a 	ret

00423728 <alt_dev_null_write>:
  423728:	3005883a 	mov	r2,r6
  42372c:	f800283a 	ret

00423730 <alt_dev_llist_insert>:
  423730:	20000a26 	beq	r4,zero,42375c <alt_dev_llist_insert+0x2c>
  423734:	20800217 	ldw	r2,8(r4)
  423738:	10000826 	beq	r2,zero,42375c <alt_dev_llist_insert+0x2c>
  42373c:	28c00017 	ldw	r3,0(r5)
  423740:	21400115 	stw	r5,4(r4)
  423744:	0005883a 	mov	r2,zero
  423748:	20c00015 	stw	r3,0(r4)
  42374c:	28c00017 	ldw	r3,0(r5)
  423750:	19000115 	stw	r4,4(r3)
  423754:	29000015 	stw	r4,0(r5)
  423758:	f800283a 	ret
  42375c:	d0a00f17 	ldw	r2,-32708(gp)
  423760:	10000926 	beq	r2,zero,423788 <alt_dev_llist_insert+0x58>
  423764:	deffff04 	addi	sp,sp,-4
  423768:	dfc00015 	stw	ra,0(sp)
  42376c:	103ee83a 	callr	r2
  423770:	00c00584 	movi	r3,22
  423774:	10c00015 	stw	r3,0(r2)
  423778:	00bffa84 	movi	r2,-22
  42377c:	dfc00017 	ldw	ra,0(sp)
  423780:	dec00104 	addi	sp,sp,4
  423784:	f800283a 	ret
  423788:	d0a21c04 	addi	r2,gp,-30608
  42378c:	00c00584 	movi	r3,22
  423790:	10c00015 	stw	r3,0(r2)
  423794:	00bffa84 	movi	r2,-22
  423798:	f800283a 	ret

0042379c <alt_find_dev>:
  42379c:	defffb04 	addi	sp,sp,-20
  4237a0:	dc000015 	stw	r16,0(sp)
  4237a4:	2c000017 	ldw	r16,0(r5)
  4237a8:	dc400115 	stw	r17,4(sp)
  4237ac:	2823883a 	mov	r17,r5
  4237b0:	dcc00315 	stw	r19,12(sp)
  4237b4:	dfc00415 	stw	ra,16(sp)
  4237b8:	dc800215 	stw	r18,8(sp)
  4237bc:	2027883a 	mov	r19,r4
  4237c0:	04221680 	call	422168 <strlen>
  4237c4:	8c000b26 	beq	r17,r16,4237f4 <alt_find_dev+0x58>
  4237c8:	14800044 	addi	r18,r2,1
  4237cc:	00000206 	br	4237d8 <alt_find_dev+0x3c>
  4237d0:	84000017 	ldw	r16,0(r16)
  4237d4:	8c000726 	beq	r17,r16,4237f4 <alt_find_dev+0x58>
  4237d8:	81000217 	ldw	r4,8(r16)
  4237dc:	900d883a 	mov	r6,r18
  4237e0:	980b883a 	mov	r5,r19
  4237e4:	0423ee80 	call	423ee8 <memcmp>
  4237e8:	103ff91e 	bne	r2,zero,4237d0 <plane+0xf838cb70>
  4237ec:	8005883a 	mov	r2,r16
  4237f0:	00000106 	br	4237f8 <alt_find_dev+0x5c>
  4237f4:	0005883a 	mov	r2,zero
  4237f8:	dfc00417 	ldw	ra,16(sp)
  4237fc:	dcc00317 	ldw	r19,12(sp)
  423800:	dc800217 	ldw	r18,8(sp)
  423804:	dc400117 	ldw	r17,4(sp)
  423808:	dc000017 	ldw	r16,0(sp)
  42380c:	dec00504 	addi	sp,sp,20
  423810:	f800283a 	ret

00423814 <alt_icache_flush_all>:
  423814:	f800283a 	ret

00423818 <alt_ic_isr_register>:
  423818:	04238a41 	jmpi	4238a4 <alt_iic_isr_register>

0042381c <alt_ic_irq_enable>:
  42381c:	0009303a 	rdctl	r4,status
  423820:	00bfff84 	movi	r2,-2
  423824:	2084703a 	and	r2,r4,r2
  423828:	1001703a 	wrctl	status,r2
  42382c:	00c00044 	movi	r3,1
  423830:	d0a22017 	ldw	r2,-30592(gp)
  423834:	194a983a 	sll	r5,r3,r5
  423838:	288ab03a 	or	r5,r5,r2
  42383c:	d1622015 	stw	r5,-30592(gp)
  423840:	d0a22017 	ldw	r2,-30592(gp)
  423844:	100170fa 	wrctl	ienable,r2
  423848:	2001703a 	wrctl	status,r4
  42384c:	0005883a 	mov	r2,zero
  423850:	f800283a 	ret

00423854 <alt_ic_irq_disable>:
  423854:	0009303a 	rdctl	r4,status
  423858:	00bfff84 	movi	r2,-2
  42385c:	2084703a 	and	r2,r4,r2
  423860:	1001703a 	wrctl	status,r2
  423864:	00ffff84 	movi	r3,-2
  423868:	d0a22017 	ldw	r2,-30592(gp)
  42386c:	194a183a 	rol	r5,r3,r5
  423870:	288a703a 	and	r5,r5,r2
  423874:	d1622015 	stw	r5,-30592(gp)
  423878:	d0a22017 	ldw	r2,-30592(gp)
  42387c:	100170fa 	wrctl	ienable,r2
  423880:	2001703a 	wrctl	status,r4
  423884:	0005883a 	mov	r2,zero
  423888:	f800283a 	ret

0042388c <alt_ic_irq_enabled>:
  42388c:	000730fa 	rdctl	r3,ienable
  423890:	00800044 	movi	r2,1
  423894:	1144983a 	sll	r2,r2,r5
  423898:	10c4703a 	and	r2,r2,r3
  42389c:	1004c03a 	cmpne	r2,r2,zero
  4238a0:	f800283a 	ret

004238a4 <alt_iic_isr_register>:
  4238a4:	00c007c4 	movi	r3,31
  4238a8:	19401616 	blt	r3,r5,423904 <alt_iic_isr_register+0x60>
  4238ac:	defffe04 	addi	sp,sp,-8
  4238b0:	dfc00115 	stw	ra,4(sp)
  4238b4:	dc000015 	stw	r16,0(sp)
  4238b8:	0021303a 	rdctl	r16,status
  4238bc:	00ffff84 	movi	r3,-2
  4238c0:	80c6703a 	and	r3,r16,r3
  4238c4:	1801703a 	wrctl	status,r3
  4238c8:	280490fa 	slli	r2,r5,3
  4238cc:	00c010b4 	movhi	r3,66
  4238d0:	18da7604 	addi	r3,r3,27096
  4238d4:	1885883a 	add	r2,r3,r2
  4238d8:	11800015 	stw	r6,0(r2)
  4238dc:	11c00115 	stw	r7,4(r2)
  4238e0:	30000626 	beq	r6,zero,4238fc <alt_iic_isr_register+0x58>
  4238e4:	042381c0 	call	42381c <alt_ic_irq_enable>
  4238e8:	8001703a 	wrctl	status,r16
  4238ec:	dfc00117 	ldw	ra,4(sp)
  4238f0:	dc000017 	ldw	r16,0(sp)
  4238f4:	dec00204 	addi	sp,sp,8
  4238f8:	f800283a 	ret
  4238fc:	04238540 	call	423854 <alt_ic_irq_disable>
  423900:	003ff906 	br	4238e8 <plane+0xf838cc88>
  423904:	00bffa84 	movi	r2,-22
  423908:	f800283a 	ret

0042390c <alt_open_fd.constprop.0>:
  42390c:	defffd04 	addi	sp,sp,-12
  423910:	2805883a 	mov	r2,r5
  423914:	dc400115 	stw	r17,4(sp)
  423918:	300b883a 	mov	r5,r6
  42391c:	2023883a 	mov	r17,r4
  423920:	01807fc4 	movi	r6,511
  423924:	1009883a 	mov	r4,r2
  423928:	dfc00215 	stw	ra,8(sp)
  42392c:	dc000015 	stw	r16,0(sp)
  423930:	0423a0c0 	call	423a0c <open>
  423934:	10001316 	blt	r2,zero,423984 <alt_open_fd.constprop.0+0x78>
  423938:	1009883a 	mov	r4,r2
  42393c:	01400304 	movi	r5,12
  423940:	1021883a 	mov	r16,r2
  423944:	04220240 	call	422024 <__mulsi3>
  423948:	00c010b4 	movhi	r3,66
  42394c:	18d22804 	addi	r3,r3,18592
  423950:	1885883a 	add	r2,r3,r2
  423954:	11400017 	ldw	r5,0(r2)
  423958:	10c00217 	ldw	r3,8(r2)
  42395c:	8009883a 	mov	r4,r16
  423960:	89400015 	stw	r5,0(r17)
  423964:	10800117 	ldw	r2,4(r2)
  423968:	88c00215 	stw	r3,8(r17)
  42396c:	88800115 	stw	r2,4(r17)
  423970:	dfc00217 	ldw	ra,8(sp)
  423974:	dc400117 	ldw	r17,4(sp)
  423978:	dc000017 	ldw	r16,0(sp)
  42397c:	dec00304 	addi	sp,sp,12
  423980:	0423b941 	jmpi	423b94 <alt_release_fd>
  423984:	dfc00217 	ldw	ra,8(sp)
  423988:	dc400117 	ldw	r17,4(sp)
  42398c:	dc000017 	ldw	r16,0(sp)
  423990:	dec00304 	addi	sp,sp,12
  423994:	f800283a 	ret

00423998 <alt_io_redirect>:
  423998:	defffb04 	addi	sp,sp,-20
  42399c:	dc000015 	stw	r16,0(sp)
  4239a0:	040010b4 	movhi	r16,66
  4239a4:	84122b04 	addi	r16,r16,18604
  4239a8:	dc400115 	stw	r17,4(sp)
  4239ac:	04400044 	movi	r17,1
  4239b0:	dcc00315 	stw	r19,12(sp)
  4239b4:	dc800215 	stw	r18,8(sp)
  4239b8:	2827883a 	mov	r19,r5
  4239bc:	3025883a 	mov	r18,r6
  4239c0:	200b883a 	mov	r5,r4
  4239c4:	880d883a 	mov	r6,r17
  4239c8:	8009883a 	mov	r4,r16
  4239cc:	dfc00415 	stw	ra,16(sp)
  4239d0:	042390c0 	call	42390c <alt_open_fd.constprop.0>
  4239d4:	813ffd04 	addi	r4,r16,-12
  4239d8:	980b883a 	mov	r5,r19
  4239dc:	000d883a 	mov	r6,zero
  4239e0:	042390c0 	call	42390c <alt_open_fd.constprop.0>
  4239e4:	880d883a 	mov	r6,r17
  4239e8:	900b883a 	mov	r5,r18
  4239ec:	81000304 	addi	r4,r16,12
  4239f0:	dfc00417 	ldw	ra,16(sp)
  4239f4:	dcc00317 	ldw	r19,12(sp)
  4239f8:	dc800217 	ldw	r18,8(sp)
  4239fc:	dc400117 	ldw	r17,4(sp)
  423a00:	dc000017 	ldw	r16,0(sp)
  423a04:	dec00504 	addi	sp,sp,20
  423a08:	042390c1 	jmpi	42390c <alt_open_fd.constprop.0>

00423a0c <open>:
  423a0c:	defffa04 	addi	sp,sp,-24
  423a10:	dc000015 	stw	r16,0(sp)
  423a14:	2821883a 	mov	r16,r5
  423a18:	d1600b04 	addi	r5,gp,-32724
  423a1c:	dc800215 	stw	r18,8(sp)
  423a20:	dc400115 	stw	r17,4(sp)
  423a24:	dfc00515 	stw	ra,20(sp)
  423a28:	dd000415 	stw	r20,16(sp)
  423a2c:	dcc00315 	stw	r19,12(sp)
  423a30:	2023883a 	mov	r17,r4
  423a34:	3025883a 	mov	r18,r6
  423a38:	042379c0 	call	42379c <alt_find_dev>
  423a3c:	10004a26 	beq	r2,zero,423b68 <open+0x15c>
  423a40:	1009883a 	mov	r4,r2
  423a44:	1029883a 	mov	r20,r2
  423a48:	0423dcc0 	call	423dcc <alt_get_fd>
  423a4c:	1027883a 	mov	r19,r2
  423a50:	1000090e 	bge	r2,zero,423a78 <open+0x6c>
  423a54:	04e1c83a 	sub	r16,zero,r19
  423a58:	9809883a 	mov	r4,r19
  423a5c:	0423b940 	call	423b94 <alt_release_fd>
  423a60:	d0a00f17 	ldw	r2,-32708(gp)
  423a64:	10004726 	beq	r2,zero,423b84 <open+0x178>
  423a68:	103ee83a 	callr	r2
  423a6c:	14000015 	stw	r16,0(r2)
  423a70:	00bfffc4 	movi	r2,-1
  423a74:	00003206 	br	423b40 <open+0x134>
  423a78:	01400304 	movi	r5,12
  423a7c:	9809883a 	mov	r4,r19
  423a80:	04220240 	call	422024 <__mulsi3>
  423a84:	01500034 	movhi	r5,16384
  423a88:	00c010b4 	movhi	r3,66
  423a8c:	297fffc4 	addi	r5,r5,-1
  423a90:	18d22804 	addi	r3,r3,18592
  423a94:	814a703a 	and	r5,r16,r5
  423a98:	1889883a 	add	r4,r3,r2
  423a9c:	29500034 	orhi	r5,r5,16384
  423aa0:	d2600a17 	ldw	r9,-32728(gp)
  423aa4:	22000017 	ldw	r8,0(r4)
  423aa8:	21400215 	stw	r5,8(r4)
  423aac:	19800204 	addi	r6,r3,8
  423ab0:	000b883a 	mov	r5,zero
  423ab4:	00000306 	br	423ac4 <open+0xb8>
  423ab8:	18c00304 	addi	r3,r3,12
  423abc:	31800304 	addi	r6,r6,12
  423ac0:	49401636 	bltu	r9,r5,423b1c <open+0x110>
  423ac4:	19c00017 	ldw	r7,0(r3)
  423ac8:	29400044 	addi	r5,r5,1
  423acc:	3a3ffa1e 	bne	r7,r8,423ab8 <plane+0xf838ce58>
  423ad0:	30800017 	ldw	r2,0(r6)
  423ad4:	103ff80e 	bge	r2,zero,423ab8 <plane+0xf838ce58>
  423ad8:	20fff726 	beq	r4,r3,423ab8 <plane+0xf838ce58>
  423adc:	04000344 	movi	r16,13
  423ae0:	003fdd06 	br	423a58 <plane+0xf838cdf8>
  423ae4:	1009883a 	mov	r4,r2
  423ae8:	0423dcc0 	call	423dcc <alt_get_fd>
  423aec:	1027883a 	mov	r19,r2
  423af0:	103fd816 	blt	r2,zero,423a54 <plane+0xf838cdf4>
  423af4:	9809883a 	mov	r4,r19
  423af8:	01400304 	movi	r5,12
  423afc:	04220240 	call	422024 <__mulsi3>
  423b00:	010010b4 	movhi	r4,66
  423b04:	21122804 	addi	r4,r4,18592
  423b08:	2089883a 	add	r4,r4,r2
  423b0c:	00900034 	movhi	r2,16384
  423b10:	10bfffc4 	addi	r2,r2,-1
  423b14:	8084703a 	and	r2,r16,r2
  423b18:	20800215 	stw	r2,8(r4)
  423b1c:	a0800317 	ldw	r2,12(r20)
  423b20:	10000f26 	beq	r2,zero,423b60 <open+0x154>
  423b24:	900f883a 	mov	r7,r18
  423b28:	800d883a 	mov	r6,r16
  423b2c:	880b883a 	mov	r5,r17
  423b30:	103ee83a 	callr	r2
  423b34:	1007883a 	mov	r3,r2
  423b38:	9805883a 	mov	r2,r19
  423b3c:	18001316 	blt	r3,zero,423b8c <open+0x180>
  423b40:	dfc00517 	ldw	ra,20(sp)
  423b44:	dd000417 	ldw	r20,16(sp)
  423b48:	dcc00317 	ldw	r19,12(sp)
  423b4c:	dc800217 	ldw	r18,8(sp)
  423b50:	dc400117 	ldw	r17,4(sp)
  423b54:	dc000017 	ldw	r16,0(sp)
  423b58:	dec00604 	addi	sp,sp,24
  423b5c:	f800283a 	ret
  423b60:	9805883a 	mov	r2,r19
  423b64:	003ff606 	br	423b40 <plane+0xf838cee0>
  423b68:	8809883a 	mov	r4,r17
  423b6c:	0423d200 	call	423d20 <alt_find_file>
  423b70:	1029883a 	mov	r20,r2
  423b74:	103fdb1e 	bne	r2,zero,423ae4 <plane+0xf838ce84>
  423b78:	040004c4 	movi	r16,19
  423b7c:	04ffffc4 	movi	r19,-1
  423b80:	003fb506 	br	423a58 <plane+0xf838cdf8>
  423b84:	d0a21c04 	addi	r2,gp,-30608
  423b88:	003fb806 	br	423a6c <plane+0xf838ce0c>
  423b8c:	00e1c83a 	sub	r16,zero,r3
  423b90:	003fb106 	br	423a58 <plane+0xf838cdf8>

00423b94 <alt_release_fd>:
  423b94:	00c00084 	movi	r3,2
  423b98:	1900140e 	bge	r3,r4,423bec <alt_release_fd+0x58>
  423b9c:	defffd04 	addi	sp,sp,-12
  423ba0:	dc400115 	stw	r17,4(sp)
  423ba4:	01400304 	movi	r5,12
  423ba8:	044010b4 	movhi	r17,66
  423bac:	dfc00215 	stw	ra,8(sp)
  423bb0:	dc000015 	stw	r16,0(sp)
  423bb4:	8c522804 	addi	r17,r17,18592
  423bb8:	2021883a 	mov	r16,r4
  423bbc:	04220240 	call	422024 <__mulsi3>
  423bc0:	8885883a 	add	r2,r17,r2
  423bc4:	01400304 	movi	r5,12
  423bc8:	8009883a 	mov	r4,r16
  423bcc:	10000215 	stw	zero,8(r2)
  423bd0:	04220240 	call	422024 <__mulsi3>
  423bd4:	8885883a 	add	r2,r17,r2
  423bd8:	10000015 	stw	zero,0(r2)
  423bdc:	dfc00217 	ldw	ra,8(sp)
  423be0:	dc400117 	ldw	r17,4(sp)
  423be4:	dc000017 	ldw	r16,0(sp)
  423be8:	dec00304 	addi	sp,sp,12
  423bec:	f800283a 	ret

00423bf0 <alt_alarm_stop>:
  423bf0:	0007303a 	rdctl	r3,status
  423bf4:	00bfff84 	movi	r2,-2
  423bf8:	1884703a 	and	r2,r3,r2
  423bfc:	1001703a 	wrctl	status,r2
  423c00:	21400117 	ldw	r5,4(r4)
  423c04:	20800017 	ldw	r2,0(r4)
  423c08:	11400115 	stw	r5,4(r2)
  423c0c:	21400117 	ldw	r5,4(r4)
  423c10:	28800015 	stw	r2,0(r5)
  423c14:	21000115 	stw	r4,4(r4)
  423c18:	21000015 	stw	r4,0(r4)
  423c1c:	1801703a 	wrctl	status,r3
  423c20:	f800283a 	ret

00423c24 <alt_tick>:
  423c24:	d0a22117 	ldw	r2,-30588(gp)
  423c28:	defffa04 	addi	sp,sp,-24
  423c2c:	dc000015 	stw	r16,0(sp)
  423c30:	d4201117 	ldw	r16,-32700(gp)
  423c34:	10800044 	addi	r2,r2,1
  423c38:	dc800215 	stw	r18,8(sp)
  423c3c:	dfc00515 	stw	ra,20(sp)
  423c40:	dd000415 	stw	r20,16(sp)
  423c44:	dcc00315 	stw	r19,12(sp)
  423c48:	dc400115 	stw	r17,4(sp)
  423c4c:	d4a01104 	addi	r18,gp,-32700
  423c50:	d0a22115 	stw	r2,-30588(gp)
  423c54:	84801126 	beq	r16,r18,423c9c <alt_tick+0x78>
  423c58:	04c00044 	movi	r19,1
  423c5c:	053fff84 	movi	r20,-2
  423c60:	00000606 	br	423c7c <alt_tick+0x58>
  423c64:	80000405 	stb	zero,16(r16)
  423c68:	d0e22117 	ldw	r3,-30588(gp)
  423c6c:	80800217 	ldw	r2,8(r16)
  423c70:	1880122e 	bgeu	r3,r2,423cbc <alt_tick+0x98>
  423c74:	8821883a 	mov	r16,r17
  423c78:	8c800826 	beq	r17,r18,423c9c <alt_tick+0x78>
  423c7c:	80800403 	ldbu	r2,16(r16)
  423c80:	84400017 	ldw	r17,0(r16)
  423c84:	103ff826 	beq	r2,zero,423c68 <plane+0xf838d008>
  423c88:	d0a22117 	ldw	r2,-30588(gp)
  423c8c:	103ff526 	beq	r2,zero,423c64 <plane+0xf838d004>
  423c90:	d0a22117 	ldw	r2,-30588(gp)
  423c94:	8821883a 	mov	r16,r17
  423c98:	8cbff81e 	bne	r17,r18,423c7c <plane+0xf838d01c>
  423c9c:	dfc00517 	ldw	ra,20(sp)
  423ca0:	dd000417 	ldw	r20,16(sp)
  423ca4:	dcc00317 	ldw	r19,12(sp)
  423ca8:	dc800217 	ldw	r18,8(sp)
  423cac:	dc400117 	ldw	r17,4(sp)
  423cb0:	dc000017 	ldw	r16,0(sp)
  423cb4:	dec00604 	addi	sp,sp,24
  423cb8:	f800283a 	ret
  423cbc:	80800317 	ldw	r2,12(r16)
  423cc0:	81000517 	ldw	r4,20(r16)
  423cc4:	103ee83a 	callr	r2
  423cc8:	10000726 	beq	r2,zero,423ce8 <alt_tick+0xc4>
  423ccc:	80c00217 	ldw	r3,8(r16)
  423cd0:	d1222117 	ldw	r4,-30588(gp)
  423cd4:	10c5883a 	add	r2,r2,r3
  423cd8:	80800215 	stw	r2,8(r16)
  423cdc:	113fe52e 	bgeu	r2,r4,423c74 <plane+0xf838d014>
  423ce0:	84c00405 	stb	r19,16(r16)
  423ce4:	003fe306 	br	423c74 <plane+0xf838d014>
  423ce8:	0005303a 	rdctl	r2,status
  423cec:	1506703a 	and	r3,r2,r20
  423cf0:	1801703a 	wrctl	status,r3
  423cf4:	81000117 	ldw	r4,4(r16)
  423cf8:	80c00017 	ldw	r3,0(r16)
  423cfc:	19000115 	stw	r4,4(r3)
  423d00:	81000117 	ldw	r4,4(r16)
  423d04:	20c00015 	stw	r3,0(r4)
  423d08:	84000115 	stw	r16,4(r16)
  423d0c:	84000015 	stw	r16,0(r16)
  423d10:	1001703a 	wrctl	status,r2
  423d14:	003fd706 	br	423c74 <plane+0xf838d014>

00423d18 <altera_nios2_gen2_irq_init>:
  423d18:	000170fa 	wrctl	ienable,zero
  423d1c:	f800283a 	ret

00423d20 <alt_find_file>:
  423d20:	defffa04 	addi	sp,sp,-24
  423d24:	dc000015 	stw	r16,0(sp)
  423d28:	d4200d17 	ldw	r16,-32716(gp)
  423d2c:	dd000415 	stw	r20,16(sp)
  423d30:	dfc00515 	stw	ra,20(sp)
  423d34:	dcc00315 	stw	r19,12(sp)
  423d38:	dc800215 	stw	r18,8(sp)
  423d3c:	dc400115 	stw	r17,4(sp)
  423d40:	d5200d04 	addi	r20,gp,-32716
  423d44:	85001626 	beq	r16,r20,423da0 <alt_find_file+0x80>
  423d48:	2025883a 	mov	r18,r4
  423d4c:	04c00bc4 	movi	r19,47
  423d50:	00000806 	br	423d74 <alt_find_file+0x54>
  423d54:	9185883a 	add	r2,r18,r6
  423d58:	10800007 	ldb	r2,0(r2)
  423d5c:	14c00126 	beq	r2,r19,423d64 <alt_find_file+0x44>
  423d60:	1000021e 	bne	r2,zero,423d6c <alt_find_file+0x4c>
  423d64:	0423ee80 	call	423ee8 <memcmp>
  423d68:	10001626 	beq	r2,zero,423dc4 <alt_find_file+0xa4>
  423d6c:	84000017 	ldw	r16,0(r16)
  423d70:	85000b26 	beq	r16,r20,423da0 <alt_find_file+0x80>
  423d74:	84400217 	ldw	r17,8(r16)
  423d78:	8809883a 	mov	r4,r17
  423d7c:	04221680 	call	422168 <strlen>
  423d80:	100d883a 	mov	r6,r2
  423d84:	8885883a 	add	r2,r17,r2
  423d88:	10bfffc7 	ldb	r2,-1(r2)
  423d8c:	900b883a 	mov	r5,r18
  423d90:	8809883a 	mov	r4,r17
  423d94:	14ffef1e 	bne	r2,r19,423d54 <plane+0xf838d0f4>
  423d98:	31bfffc4 	addi	r6,r6,-1
  423d9c:	003fed06 	br	423d54 <plane+0xf838d0f4>
  423da0:	0005883a 	mov	r2,zero
  423da4:	dfc00517 	ldw	ra,20(sp)
  423da8:	dd000417 	ldw	r20,16(sp)
  423dac:	dcc00317 	ldw	r19,12(sp)
  423db0:	dc800217 	ldw	r18,8(sp)
  423db4:	dc400117 	ldw	r17,4(sp)
  423db8:	dc000017 	ldw	r16,0(sp)
  423dbc:	dec00604 	addi	sp,sp,24
  423dc0:	f800283a 	ret
  423dc4:	8005883a 	mov	r2,r16
  423dc8:	003ff606 	br	423da4 <plane+0xf838d144>

00423dcc <alt_get_fd>:
  423dcc:	defffc04 	addi	sp,sp,-16
  423dd0:	dc400115 	stw	r17,4(sp)
  423dd4:	044010b4 	movhi	r17,66
  423dd8:	8c522804 	addi	r17,r17,18592
  423ddc:	dc000015 	stw	r16,0(sp)
  423de0:	dfc00315 	stw	ra,12(sp)
  423de4:	dc800215 	stw	r18,8(sp)
  423de8:	0021883a 	mov	r16,zero
  423dec:	8805883a 	mov	r2,r17
  423df0:	01400804 	movi	r5,32
  423df4:	00000206 	br	423e00 <alt_get_fd+0x34>
  423df8:	84000044 	addi	r16,r16,1
  423dfc:	81401326 	beq	r16,r5,423e4c <alt_get_fd+0x80>
  423e00:	10c00017 	ldw	r3,0(r2)
  423e04:	10800304 	addi	r2,r2,12
  423e08:	183ffb1e 	bne	r3,zero,423df8 <plane+0xf838d198>
  423e0c:	2025883a 	mov	r18,r4
  423e10:	01400304 	movi	r5,12
  423e14:	8009883a 	mov	r4,r16
  423e18:	04220240 	call	422024 <__mulsi3>
  423e1c:	8885883a 	add	r2,r17,r2
  423e20:	14800015 	stw	r18,0(r2)
  423e24:	d0a00a17 	ldw	r2,-32728(gp)
  423e28:	1400010e 	bge	r2,r16,423e30 <alt_get_fd+0x64>
  423e2c:	d4200a15 	stw	r16,-32728(gp)
  423e30:	8005883a 	mov	r2,r16
  423e34:	dfc00317 	ldw	ra,12(sp)
  423e38:	dc800217 	ldw	r18,8(sp)
  423e3c:	dc400117 	ldw	r17,4(sp)
  423e40:	dc000017 	ldw	r16,0(sp)
  423e44:	dec00404 	addi	sp,sp,16
  423e48:	f800283a 	ret
  423e4c:	043ffa04 	movi	r16,-24
  423e50:	003ff706 	br	423e30 <plane+0xf838d1d0>

00423e54 <alt_exception_cause_generated_bad_addr>:
  423e54:	213ffe84 	addi	r4,r4,-6
  423e58:	008003c4 	movi	r2,15
  423e5c:	11001636 	bltu	r2,r4,423eb8 <alt_exception_cause_generated_bad_addr+0x64>
  423e60:	200890ba 	slli	r4,r4,2
  423e64:	008010b4 	movhi	r2,66
  423e68:	108f9e04 	addi	r2,r2,15992
  423e6c:	2089883a 	add	r4,r4,r2
  423e70:	20800017 	ldw	r2,0(r4)
  423e74:	1000683a 	jmp	r2
  423e78:	00423ec0 	call	423ec <__alt_mem_audio_mem-0x3cdc14>
  423e7c:	00423ec0 	call	423ec <__alt_mem_audio_mem-0x3cdc14>
  423e80:	00423eb8 	rdprs	at,zero,2298
  423e84:	00423eb8 	rdprs	at,zero,2298
  423e88:	00423eb8 	rdprs	at,zero,2298
  423e8c:	00423ec0 	call	423ec <__alt_mem_audio_mem-0x3cdc14>
  423e90:	00423eb8 	rdprs	at,zero,2298
  423e94:	00423eb8 	rdprs	at,zero,2298
  423e98:	00423ec0 	call	423ec <__alt_mem_audio_mem-0x3cdc14>
  423e9c:	00423ec0 	call	423ec <__alt_mem_audio_mem-0x3cdc14>
  423ea0:	00423eb8 	rdprs	at,zero,2298
  423ea4:	00423ec0 	call	423ec <__alt_mem_audio_mem-0x3cdc14>
  423ea8:	00423eb8 	rdprs	at,zero,2298
  423eac:	00423eb8 	rdprs	at,zero,2298
  423eb0:	00423eb8 	rdprs	at,zero,2298
  423eb4:	00423ec0 	call	423ec <__alt_mem_audio_mem-0x3cdc14>
  423eb8:	0005883a 	mov	r2,zero
  423ebc:	f800283a 	ret
  423ec0:	00800044 	movi	r2,1
  423ec4:	f800283a 	ret

00423ec8 <exit>:
  423ec8:	defffe04 	addi	sp,sp,-8
  423ecc:	000b883a 	mov	r5,zero
  423ed0:	dc000015 	stw	r16,0(sp)
  423ed4:	dfc00115 	stw	ra,4(sp)
  423ed8:	2021883a 	mov	r16,r4
  423edc:	0423fc40 	call	423fc4 <__call_exitprocs>
  423ee0:	8009883a 	mov	r4,r16
  423ee4:	04241540 	call	424154 <_exit>

00423ee8 <memcmp>:
  423ee8:	218d883a 	add	r6,r4,r6
  423eec:	21800826 	beq	r4,r6,423f10 <memcmp+0x28>
  423ef0:	20800003 	ldbu	r2,0(r4)
  423ef4:	28c00003 	ldbu	r3,0(r5)
  423ef8:	10c00226 	beq	r2,r3,423f04 <memcmp+0x1c>
  423efc:	10c5c83a 	sub	r2,r2,r3
  423f00:	f800283a 	ret
  423f04:	21000044 	addi	r4,r4,1
  423f08:	29400044 	addi	r5,r5,1
  423f0c:	003ff706 	br	423eec <plane+0xf838d28c>
  423f10:	0005883a 	mov	r2,zero
  423f14:	f800283a 	ret

00423f18 <putc>:
  423f18:	defffd04 	addi	sp,sp,-12
  423f1c:	008010b4 	movhi	r2,66
  423f20:	dc000115 	stw	r16,4(sp)
  423f24:	dfc00215 	stw	ra,8(sp)
  423f28:	1089ce04 	addi	r2,r2,10040
  423f2c:	28800115 	stw	r2,4(r5)
  423f30:	008010b4 	movhi	r2,66
  423f34:	10929904 	addi	r2,r2,19044
  423f38:	d9000005 	stb	r4,0(sp)
  423f3c:	2021883a 	mov	r16,r4
  423f40:	11000017 	ldw	r4,0(r2)
  423f44:	01c00044 	movi	r7,1
  423f48:	d80d883a 	mov	r6,sp
  423f4c:	04227380 	call	422738 <__sfvwrite_small_dev>
  423f50:	00ffffc4 	movi	r3,-1
  423f54:	10c00126 	beq	r2,r3,423f5c <putc+0x44>
  423f58:	8005883a 	mov	r2,r16
  423f5c:	dfc00217 	ldw	ra,8(sp)
  423f60:	dc000117 	ldw	r16,4(sp)
  423f64:	dec00304 	addi	sp,sp,12
  423f68:	f800283a 	ret

00423f6c <_putc_r>:
  423f6c:	defffd04 	addi	sp,sp,-12
  423f70:	008010b4 	movhi	r2,66
  423f74:	dc000115 	stw	r16,4(sp)
  423f78:	dfc00215 	stw	ra,8(sp)
  423f7c:	1089ce04 	addi	r2,r2,10040
  423f80:	30800115 	stw	r2,4(r6)
  423f84:	008010b4 	movhi	r2,66
  423f88:	10929904 	addi	r2,r2,19044
  423f8c:	11000017 	ldw	r4,0(r2)
  423f90:	2821883a 	mov	r16,r5
  423f94:	01c00044 	movi	r7,1
  423f98:	300b883a 	mov	r5,r6
  423f9c:	d80d883a 	mov	r6,sp
  423fa0:	dc000005 	stb	r16,0(sp)
  423fa4:	04227380 	call	422738 <__sfvwrite_small_dev>
  423fa8:	00ffffc4 	movi	r3,-1
  423fac:	10c00126 	beq	r2,r3,423fb4 <_putc_r+0x48>
  423fb0:	8005883a 	mov	r2,r16
  423fb4:	dfc00217 	ldw	ra,8(sp)
  423fb8:	dc000117 	ldw	r16,4(sp)
  423fbc:	dec00304 	addi	sp,sp,12
  423fc0:	f800283a 	ret

00423fc4 <__call_exitprocs>:
  423fc4:	defff504 	addi	sp,sp,-44
  423fc8:	dd000515 	stw	r20,20(sp)
  423fcc:	050010b4 	movhi	r20,66
  423fd0:	dc800315 	stw	r18,12(sp)
  423fd4:	dfc00a15 	stw	ra,40(sp)
  423fd8:	df000915 	stw	fp,36(sp)
  423fdc:	ddc00815 	stw	r23,32(sp)
  423fe0:	dd800715 	stw	r22,28(sp)
  423fe4:	dd400615 	stw	r21,24(sp)
  423fe8:	dcc00415 	stw	r19,16(sp)
  423fec:	dc400215 	stw	r17,8(sp)
  423ff0:	dc000115 	stw	r16,4(sp)
  423ff4:	d9000015 	stw	r4,0(sp)
  423ff8:	2825883a 	mov	r18,r5
  423ffc:	a5129804 	addi	r20,r20,19040
  424000:	a4400017 	ldw	r17,0(r20)
  424004:	8cc00c17 	ldw	r19,48(r17)
  424008:	8c400c04 	addi	r17,r17,48
  42400c:	98004526 	beq	r19,zero,424124 <__call_exitprocs+0x160>
  424010:	9c000117 	ldw	r16,4(r19)
  424014:	00900034 	movhi	r2,16384
  424018:	10bfffc4 	addi	r2,r2,-1
  42401c:	9d402217 	ldw	r21,136(r19)
  424020:	85bfffc4 	addi	r22,r16,-1
  424024:	80a1883a 	add	r16,r16,r2
  424028:	8421883a 	add	r16,r16,r16
  42402c:	8421883a 	add	r16,r16,r16
  424030:	ac2f883a 	add	r23,r21,r16
  424034:	84000204 	addi	r16,r16,8
  424038:	9c21883a 	add	r16,r19,r16
  42403c:	b0002716 	blt	r22,zero,4240dc <__call_exitprocs+0x118>
  424040:	90000726 	beq	r18,zero,424060 <__call_exitprocs+0x9c>
  424044:	a800041e 	bne	r21,zero,424058 <__call_exitprocs+0x94>
  424048:	b5bfffc4 	addi	r22,r22,-1
  42404c:	bdffff04 	addi	r23,r23,-4
  424050:	843fff04 	addi	r16,r16,-4
  424054:	003ff906 	br	42403c <plane+0xf838d3dc>
  424058:	b9002017 	ldw	r4,128(r23)
  42405c:	913ffa1e 	bne	r18,r4,424048 <plane+0xf838d3e8>
  424060:	99000117 	ldw	r4,4(r19)
  424064:	82000017 	ldw	r8,0(r16)
  424068:	213fffc4 	addi	r4,r4,-1
  42406c:	b100021e 	bne	r22,r4,424078 <__call_exitprocs+0xb4>
  424070:	9d800115 	stw	r22,4(r19)
  424074:	00000106 	br	42407c <__call_exitprocs+0xb8>
  424078:	80000015 	stw	zero,0(r16)
  42407c:	403ff226 	beq	r8,zero,424048 <plane+0xf838d3e8>
  424080:	9f000117 	ldw	fp,4(r19)
  424084:	a8000526 	beq	r21,zero,42409c <__call_exitprocs+0xd8>
  424088:	00800044 	movi	r2,1
  42408c:	1592983a 	sll	r9,r2,r22
  424090:	a9404017 	ldw	r5,256(r21)
  424094:	494a703a 	and	r5,r9,r5
  424098:	2800021e 	bne	r5,zero,4240a4 <__call_exitprocs+0xe0>
  42409c:	403ee83a 	callr	r8
  4240a0:	00000906 	br	4240c8 <__call_exitprocs+0x104>
  4240a4:	a9004117 	ldw	r4,260(r21)
  4240a8:	4908703a 	and	r4,r9,r4
  4240ac:	2000041e 	bne	r4,zero,4240c0 <__call_exitprocs+0xfc>
  4240b0:	b9400017 	ldw	r5,0(r23)
  4240b4:	d9000017 	ldw	r4,0(sp)
  4240b8:	403ee83a 	callr	r8
  4240bc:	00000206 	br	4240c8 <__call_exitprocs+0x104>
  4240c0:	b9000017 	ldw	r4,0(r23)
  4240c4:	403ee83a 	callr	r8
  4240c8:	99000117 	ldw	r4,4(r19)
  4240cc:	e13fcc1e 	bne	fp,r4,424000 <plane+0xf838d3a0>
  4240d0:	89000017 	ldw	r4,0(r17)
  4240d4:	993fdc26 	beq	r19,r4,424048 <plane+0xf838d3e8>
  4240d8:	003fc906 	br	424000 <plane+0xf838d3a0>
  4240dc:	00800034 	movhi	r2,0
  4240e0:	10800004 	addi	r2,r2,0
  4240e4:	10000f26 	beq	r2,zero,424124 <__call_exitprocs+0x160>
  4240e8:	99400117 	ldw	r5,4(r19)
  4240ec:	99000017 	ldw	r4,0(r19)
  4240f0:	2800091e 	bne	r5,zero,424118 <__call_exitprocs+0x154>
  4240f4:	20000826 	beq	r4,zero,424118 <__call_exitprocs+0x154>
  4240f8:	89000015 	stw	r4,0(r17)
  4240fc:	a8000226 	beq	r21,zero,424108 <__call_exitprocs+0x144>
  424100:	a809883a 	mov	r4,r21
  424104:	00000000 	call	0 <__alt_mem_audio_mem-0x410000>
  424108:	9809883a 	mov	r4,r19
  42410c:	00000000 	call	0 <__alt_mem_audio_mem-0x410000>
  424110:	8cc00017 	ldw	r19,0(r17)
  424114:	003fbd06 	br	42400c <plane+0xf838d3ac>
  424118:	9823883a 	mov	r17,r19
  42411c:	2027883a 	mov	r19,r4
  424120:	003fba06 	br	42400c <plane+0xf838d3ac>
  424124:	dfc00a17 	ldw	ra,40(sp)
  424128:	df000917 	ldw	fp,36(sp)
  42412c:	ddc00817 	ldw	r23,32(sp)
  424130:	dd800717 	ldw	r22,28(sp)
  424134:	dd400617 	ldw	r21,24(sp)
  424138:	dd000517 	ldw	r20,20(sp)
  42413c:	dcc00417 	ldw	r19,16(sp)
  424140:	dc800317 	ldw	r18,12(sp)
  424144:	dc400217 	ldw	r17,8(sp)
  424148:	dc000117 	ldw	r16,4(sp)
  42414c:	dec00b04 	addi	sp,sp,44
  424150:	f800283a 	ret

00424154 <_exit>:
  424154:	20000226 	beq	r4,zero,424160 <_exit+0xc>
  424158:	002af070 	cmpltui	zero,zero,43969
  42415c:	003fff06 	br	42415c <plane+0xf838d4fc>
  424160:	002af0b0 	cmpltui	zero,zero,43970
  424164:	003ffd06 	br	42415c <plane+0xf838d4fc>
