
ECE385_src.elf:     file format elf32-littlenios2
ECE385_src.elf
architecture: nios2:r1, flags 0x00000112:
EXEC_P, HAS_SYMS, D_PAGED
start address 0x00420184

Program Header:
    LOAD off    0x00001000 vaddr 0x00420000 paddr 0x00420000 align 2**12
         filesz 0x00000020 memsz 0x00000020 flags r-x
    LOAD off    0x00001020 vaddr 0x00420020 paddr 0x00420020 align 2**12
         filesz 0x00010e88 memsz 0x00010e88 flags r-x
    LOAD off    0x00011ea8 vaddr 0x00430ea8 paddr 0x004329a4 align 2**12
         filesz 0x00001afc memsz 0x00001afc flags rw-
    LOAD off    0x000144a0 vaddr 0x004344a0 paddr 0x004344a0 align 2**12
         filesz 0x00000000 memsz 0x00000160 flags rw-

Sections:
Idx Name          Size      VMA       LMA       File off  Algn
  0 .entry        00000020  00420000  00420000  00001000  2**5
                  CONTENTS, ALLOC, LOAD, READONLY, CODE
  1 .exceptions   00000164  00420020  00420020  00001020  2**2
                  CONTENTS, ALLOC, LOAD, READONLY, CODE
  2 .text         0000edf8  00420184  00420184  00001184  2**2
                  CONTENTS, ALLOC, LOAD, READONLY, CODE
  3 .rodata       00001f2c  0042ef7c  0042ef7c  0000ff7c  2**2
                  CONTENTS, ALLOC, LOAD, READONLY, DATA
  4 .rwdata       00001afc  00430ea8  004329a4  00011ea8  2**2
                  CONTENTS, ALLOC, LOAD, DATA, SMALL_DATA
  5 .bss          00000160  004344a0  004344a0  000144a0  2**2
                  ALLOC, SMALL_DATA
  6 .nios2_onchip_mem 00000000  00434600  00434600  000139a4  2**0
                  CONTENTS
  7 .vga_sprite_8 00000000  00440000  00440000  000139a4  2**0
                  CONTENTS
  8 .vga_sprite_7 00000000  00442000  00442000  000139a4  2**0
                  CONTENTS
  9 .vga_sprite_6 00000000  00444000  00444000  000139a4  2**0
                  CONTENTS
 10 .vga_sprite_5 00000000  00446000  00446000  000139a4  2**0
                  CONTENTS
 11 .vga_sprite_4 00000000  00448000  00448000  000139a4  2**0
                  CONTENTS
 12 .vga_sprite_3 00000000  0044a000  0044a000  000139a4  2**0
                  CONTENTS
 13 .vga_sprite_2 00000000  0044c000  0044c000  000139a4  2**0
                  CONTENTS
 14 .vga_sprite_1 00000000  0044e000  0044e000  000139a4  2**0
                  CONTENTS
 15 .vga_sprite_0 00000000  00450000  00450000  000139a4  2**0
                  CONTENTS
 16 .usb_keycode  00000000  00453400  00453400  000139a4  2**0
                  CONTENTS
 17 .sdram        00000000  08000000  08000000  000139a4  2**0
                  CONTENTS
 18 .comment      00000023  00000000  00000000  000139a4  2**0
                  CONTENTS, READONLY
 19 .debug_aranges 00000980  00000000  00000000  000139c8  2**3
                  CONTENTS, READONLY, DEBUGGING
 20 .debug_info   0001bd57  00000000  00000000  00014348  2**0
                  CONTENTS, READONLY, DEBUGGING
 21 .debug_abbrev 000064de  00000000  00000000  0003009f  2**0
                  CONTENTS, READONLY, DEBUGGING
 22 .debug_line   00008c52  00000000  00000000  0003657d  2**0
                  CONTENTS, READONLY, DEBUGGING
 23 .debug_frame  00001434  00000000  00000000  0003f1d0  2**2
                  CONTENTS, READONLY, DEBUGGING
 24 .debug_str    00002681  00000000  00000000  00040604  2**0
                  CONTENTS, READONLY, DEBUGGING
 25 .debug_loc    000176bb  00000000  00000000  00042c85  2**0
                  CONTENTS, READONLY, DEBUGGING
 26 .debug_alt_sim_info 00000010  00000000  00000000  0005a340  2**2
                  CONTENTS, READONLY, DEBUGGING
 27 .debug_ranges 00001840  00000000  00000000  0005a350  2**3
                  CONTENTS, READONLY, DEBUGGING
 28 .thread_model 00000003  00000000  00000000  0005efc2  2**0
                  CONTENTS, READONLY
 29 .cpu          00000009  00000000  00000000  0005efc5  2**0
                  CONTENTS, READONLY
 30 .qsys         00000001  00000000  00000000  0005efce  2**0
                  CONTENTS, READONLY
 31 .simulation_enabled 00000001  00000000  00000000  0005efcf  2**0
                  CONTENTS, READONLY
 32 .sysid_hash   00000004  00000000  00000000  0005efd0  2**0
                  CONTENTS, READONLY
 33 .sysid_base   00000004  00000000  00000000  0005efd4  2**0
                  CONTENTS, READONLY
 34 .sysid_time   00000004  00000000  00000000  0005efd8  2**0
                  CONTENTS, READONLY
 35 .stderr_dev   0000000f  00000000  00000000  0005efdc  2**0
                  CONTENTS, READONLY
 36 .stdin_dev    0000000f  00000000  00000000  0005efeb  2**0
                  CONTENTS, READONLY
 37 .stdout_dev   0000000f  00000000  00000000  0005effa  2**0
                  CONTENTS, READONLY
 38 .sopc_system_name 00000006  00000000  00000000  0005f009  2**0
                  CONTENTS, READONLY
 39 .quartus_project_dir 00000028  00000000  00000000  0005f00f  2**0
                  CONTENTS, READONLY
 40 .jdi          00008817  00000000  00000000  0005f037  2**0
                  CONTENTS, READONLY
 41 .sopcinfo     001479dc  00000000  00000000  0006784e  2**0
                  CONTENTS, READONLY
SYMBOL TABLE:
00420000 l    d  .entry	00000000 .entry
00420020 l    d  .exceptions	00000000 .exceptions
00420184 l    d  .text	00000000 .text
0042ef7c l    d  .rodata	00000000 .rodata
00430ea8 l    d  .rwdata	00000000 .rwdata
004344a0 l    d  .bss	00000000 .bss
00434600 l    d  .nios2_onchip_mem	00000000 .nios2_onchip_mem
00440000 l    d  .vga_sprite_8	00000000 .vga_sprite_8
00442000 l    d  .vga_sprite_7	00000000 .vga_sprite_7
00444000 l    d  .vga_sprite_6	00000000 .vga_sprite_6
00446000 l    d  .vga_sprite_5	00000000 .vga_sprite_5
00448000 l    d  .vga_sprite_4	00000000 .vga_sprite_4
0044a000 l    d  .vga_sprite_3	00000000 .vga_sprite_3
0044c000 l    d  .vga_sprite_2	00000000 .vga_sprite_2
0044e000 l    d  .vga_sprite_1	00000000 .vga_sprite_1
00450000 l    d  .vga_sprite_0	00000000 .vga_sprite_0
00453400 l    d  .usb_keycode	00000000 .usb_keycode
08000000 l    d  .sdram	00000000 .sdram
00000000 l    d  .comment	00000000 .comment
00000000 l    d  .debug_aranges	00000000 .debug_aranges
00000000 l    d  .debug_info	00000000 .debug_info
00000000 l    d  .debug_abbrev	00000000 .debug_abbrev
00000000 l    d  .debug_line	00000000 .debug_line
00000000 l    d  .debug_frame	00000000 .debug_frame
00000000 l    d  .debug_str	00000000 .debug_str
00000000 l    d  .debug_loc	00000000 .debug_loc
00000000 l    d  .debug_alt_sim_info	00000000 .debug_alt_sim_info
00000000 l    d  .debug_ranges	00000000 .debug_ranges
00000000 l    df *ABS*	00000000 ../ECE385_bsp//obj/HAL/src/crt0.o
004201bc l       .text	00000000 alt_after_alt_main
00000000 l    df *ABS*	00000000 alt_irq_handler.c
00000000 l    df *ABS*	00000000 alt_instruction_exception_entry.c
00000000 l    df *ABS*	00000000 main.c
00000000 l    df *ABS*	00000000 resource.c
00000000 l    df *ABS*	00000000 vga.c
00000000 l    df *ABS*	00000000 lib2-mul.c
00000000 l    df *ABS*	00000000 printf.c
00000000 l    df *ABS*	00000000 puts.c
00000000 l    df *ABS*	00000000 strlen.c
00000000 l    df *ABS*	00000000 vfprintf.c
00430bfe l     O .rodata	00000010 zeroes.4404
00422d58 l     F .text	000000bc __sbprintf
00430c0e l     O .rodata	00000010 blanks.4403
00000000 l    df *ABS*	00000000 wsetup.c
00000000 l    df *ABS*	00000000 dtoa.c
00422f68 l     F .text	00000228 quorem
00000000 l    df *ABS*	00000000 fflush.c
00000000 l    df *ABS*	00000000 findfp.c
00424ac0 l     F .text	00000008 __fp_unlock
00424ad4 l     F .text	0000019c __sinit.part.1
00424c70 l     F .text	00000008 __fp_lock
00000000 l    df *ABS*	00000000 mallocr.c
00000000 l    df *ABS*	00000000 fvwrite.c
00000000 l    df *ABS*	00000000 fwalk.c
00000000 l    df *ABS*	00000000 impure.c
00430ea8 l     O .rwdata	00000424 impure_data
00000000 l    df *ABS*	00000000 locale.c
004312ec l     O .rwdata	00000020 lc_ctype_charset
004312cc l     O .rwdata	00000020 lc_message_charset
0043130c l     O .rwdata	00000038 lconv
00000000 l    df *ABS*	00000000 makebuf.c
00000000 l    df *ABS*	00000000 mallocr.c
00000000 l    df *ABS*	00000000 memchr.c
00000000 l    df *ABS*	00000000 memcpy.c
00000000 l    df *ABS*	00000000 memmove.c
00000000 l    df *ABS*	00000000 memset.c
00000000 l    df *ABS*	00000000 mprec.c
00430c40 l     O .rodata	0000000c p05.2768
00000000 l    df *ABS*	00000000 mallocr.c
00000000 l    df *ABS*	00000000 s_fpclassify.c
00000000 l    df *ABS*	00000000 sbrkr.c
00000000 l    df *ABS*	00000000 stdio.c
00000000 l    df *ABS*	00000000 strcmp.c
00000000 l    df *ABS*	00000000 vfprintf.c
00428144 l     F .text	000000fc __sprint_r.part.0
00430d64 l     O .rodata	00000010 zeroes.4349
00429780 l     F .text	000000bc __sbprintf
00430d74 l     O .rodata	00000010 blanks.4348
00000000 l    df *ABS*	00000000 writer.c
00000000 l    df *ABS*	00000000 closer.c
00000000 l    df *ABS*	00000000 mallocr.c
00000000 l    df *ABS*	00000000 fclose.c
00000000 l    df *ABS*	00000000 fputwc.c
00000000 l    df *ABS*	00000000 fstatr.c
00000000 l    df *ABS*	00000000 int_errno.c
00000000 l    df *ABS*	00000000 isattyr.c
00000000 l    df *ABS*	00000000 lseekr.c
00000000 l    df *ABS*	00000000 readr.c
00000000 l    df *ABS*	00000000 wbuf.c
00000000 l    df *ABS*	00000000 wcrtomb.c
00000000 l    df *ABS*	00000000 wctomb_r.c
00000000 l    df *ABS*	00000000 libgcc2.c
00000000 l    df *ABS*	00000000 libgcc2.c
00000000 l    df *ABS*	00000000 lib2-divmod.c
00000000 l    df *ABS*	00000000 adddf3.c
00000000 l    df *ABS*	00000000 divdf3.c
00000000 l    df *ABS*	00000000 eqdf2.c
00000000 l    df *ABS*	00000000 gedf2.c
00000000 l    df *ABS*	00000000 ledf2.c
00000000 l    df *ABS*	00000000 muldf3.c
00000000 l    df *ABS*	00000000 subdf3.c
00000000 l    df *ABS*	00000000 fixdfsi.c
00000000 l    df *ABS*	00000000 floatsidf.c
00000000 l    df *ABS*	00000000 floatunsidf.c
00000000 l    df *ABS*	00000000 libgcc2.c
00000000 l    df *ABS*	00000000 libgcc2.c
00000000 l    df *ABS*	00000000 alt_close.c
00000000 l    df *ABS*	00000000 alt_dev.c
0042d860 l     F .text	00000008 alt_dev_null_write
00000000 l    df *ABS*	00000000 alt_errno.c
00000000 l    df *ABS*	00000000 alt_fstat.c
00000000 l    df *ABS*	00000000 alt_isatty.c
00000000 l    df *ABS*	00000000 alt_load.c
00000000 l    df *ABS*	00000000 alt_lseek.c
00000000 l    df *ABS*	00000000 alt_main.c
00000000 l    df *ABS*	00000000 alt_malloc_lock.c
00000000 l    df *ABS*	00000000 alt_read.c
00000000 l    df *ABS*	00000000 alt_release_fd.c
00000000 l    df *ABS*	00000000 alt_sbrk.c
00432994 l     O .rwdata	00000004 heap_end
00000000 l    df *ABS*	00000000 alt_write.c
00000000 l    df *ABS*	00000000 alt_sys_init.c
004318f4 l     O .rwdata	00001060 nios2_jtag_uart
00000000 l    df *ABS*	00000000 altera_avalon_jtag_uart_fd.c
00000000 l    df *ABS*	00000000 altera_avalon_jtag_uart_init.c
0042df80 l     F .text	0000004c altera_avalon_jtag_uart_timeout
0042dfcc l     F .text	00000108 altera_avalon_jtag_uart_irq
00000000 l    df *ABS*	00000000 altera_avalon_jtag_uart_ioctl.c
00000000 l    df *ABS*	00000000 altera_avalon_jtag_uart_read.c
00000000 l    df *ABS*	00000000 altera_avalon_jtag_uart_write.c
00000000 l    df *ABS*	00000000 altera_avalon_timer_sc.c
0042e4f0 l     F .text	0000003c alt_avalon_timer_sc_irq
00000000 l    df *ABS*	00000000 alt_alarm_start.c
00000000 l    df *ABS*	00000000 alt_dcache_flush_all.c
00000000 l    df *ABS*	00000000 alt_dev_llist_insert.c
00000000 l    df *ABS*	00000000 alt_icache_flush_all.c
00000000 l    df *ABS*	00000000 alt_iic.c
00000000 l    df *ABS*	00000000 alt_iic_isr_register.c
00000000 l    df *ABS*	00000000 alt_io_redirect.c
0042e75c l     F .text	0000008c alt_open_fd.constprop.0
00000000 l    df *ABS*	00000000 alt_irq_vars.c
00000000 l    df *ABS*	00000000 alt_open.c
00000000 l    df *ABS*	00000000 alt_tick.c
00000000 l    df *ABS*	00000000 altera_nios2_gen2_irq.c
00000000 l    df *ABS*	00000000 alt_find_dev.c
00000000 l    df *ABS*	00000000 alt_find_file.c
00000000 l    df *ABS*	00000000 alt_get_fd.c
00000000 l    df *ABS*	00000000 exit.c
00000000 l    df *ABS*	00000000 memcmp.c
00000000 l    df *ABS*	00000000 __call_atexit.c
00000000 l    df *ABS*	00000000 alt_exit.c
004344d4 g     O .bss	00000004 alt_instruction_exception_handler
00427788 g     F .text	00000074 _mprec_log10
0044a000 g       *ABS*	00000000 __alt_mem_vga_sprite_3
00427874 g     F .text	0000008c __any_on
00429d34 g     F .text	00000054 _isatty_r
00430c4c g     O .rodata	00000028 __mprec_tinytens
0042dbac g     F .text	00000050 alt_main
004208f4 g     F .text	000000c0 _puts_r
00434500 g     O .bss	00000100 alt_irq
00429d88 g     F .text	00000060 _lseek_r
004329a4 g       *ABS*	00000000 __flash_rwdata_start
0042c178 g     F .text	00000088 .hidden __eqdf2
00434600 g       *ABS*	00000000 __alt_heap_start
004208b8 g     F .text	0000003c printf
00429fa0 g     F .text	0000009c _wcrtomb_r
00428004 g     F .text	0000005c __sseek
00424e20 g     F .text	00000010 __sinit
00429e48 g     F .text	00000140 __swbuf_r
004258f4 g     F .text	0000007c _setlocale_r
00424c78 g     F .text	00000078 __sfmoreglue
0042dc00 g     F .text	00000004 __malloc_unlock
004265c4 g     F .text	0000015c memmove
00424e08 g     F .text	00000018 _cleanup
00426848 g     F .text	000000a8 _Balloc
0042c200 g     F .text	000000dc .hidden __gtdf2
0042eb0c g     F .text	00000008 altera_nios2_gen2_irq_init
00420000 g     F .entry	0000000c __reset
00420020 g       *ABS*	00000000 __flash_exceptions_start
00429cd8 g     F .text	0000005c _fstat_r
004344b8 g     O .bss	00000004 errno
00427f80 g     F .text	00000008 __seofread
004344c0 g     O .bss	00000004 alt_argv
0043a954 g       *ABS*	00000000 _gp
0043174c g     O .rwdata	00000180 alt_fd_list
00453400 g       *ABS*	00000000 __alt_mem_usb_keycode
0042eb14 g     F .text	00000078 alt_find_dev
0042647c g     F .text	00000148 memcpy
00424ac8 g     F .text	0000000c _cleanup_r
0042d5b8 g     F .text	000000dc .hidden __floatsidf
0042e7e8 g     F .text	00000074 alt_io_redirect
0042c2dc g     F .text	000000f4 .hidden __ltdf2
004209b4 g     F .text	00000014 puts
0042ecc0 g     F .text	00000074 alt_exception_cause_generated_bad_addr
00427e64 g     F .text	00000074 __fpclassifyd
004276e4 g     F .text	000000a4 __ratio
00429764 g     F .text	0000001c __vfiprintf_internal
0042e1f4 g     F .text	00000154 altera_avalon_jtag_uart_read
00420888 g     F .text	00000030 _printf_r
0042ae40 g     F .text	00000064 .hidden __udivsi3
0042d930 g     F .text	000000a0 isatty
00430c9c g     O .rodata	000000c8 __mprec_tens
00425970 g     F .text	0000000c __locale_charset
004344b4 g     O .bss	00000004 __malloc_top_pad
0043296c g     O .rwdata	00000004 __mb_cur_max
004259a0 g     F .text	0000000c _localeconv_r
00426c7c g     F .text	0000003c __i2b
004252a4 g     F .text	000004c8 __sfvwrite_r
00427ed8 g     F .text	00000054 _sbrk_r
00429de8 g     F .text	00000060 _read_r
0043297c g     O .rwdata	00000004 alt_max_fd
004299cc g     F .text	000000f0 _fclose_r
00424a90 g     F .text	00000030 fflush
004344b0 g     O .bss	00000004 __malloc_max_sbrked_mem
00442000 g       *ABS*	00000000 __alt_mem_vga_sprite_7
00440000 g       *ABS*	00000000 __alt_mem_vga_sprite_8
0042aefc g     F .text	000008ac .hidden __adddf3
0042748c g     F .text	0000010c __b2d
0042a784 g     F .text	000005c4 .hidden __umoddi3
0042dae4 g     F .text	000000c8 lseek
00450000 g       *ABS*	00000000 __alt_mem_vga_sprite_0
00432964 g     O .rwdata	00000004 _global_impure_ptr
00427900 g     F .text	00000564 _realloc_r
00434600 g       *ABS*	00000000 __bss_end
0042e6f4 g     F .text	00000068 alt_iic_isr_register
0042ea18 g     F .text	000000f4 alt_tick
0042a188 g     F .text	000005fc .hidden __udivdi3
00429c34 g     F .text	00000024 _fputwc_r
00430c74 g     O .rodata	00000028 __mprec_bigtens
00426a60 g     F .text	00000104 __s2b
0042d694 g     F .text	000000a8 .hidden __floatunsidf
00420790 g     F .text	000000d0 vga_set
004271cc g     F .text	00000060 __mcmp
0044c000 g       *ABS*	00000000 __alt_mem_vga_sprite_2
00424e40 g     F .text	00000018 __fp_lock_all
0042e6dc g     F .text	00000018 alt_ic_irq_enabled
0042e9e4 g     F .text	00000034 alt_alarm_stop
004344c8 g     O .bss	00000004 alt_irq_active
004200fc g     F .exceptions	00000064 alt_irq_handler
004318cc g     O .rwdata	00000028 alt_dev_null
0042e5f4 g     F .text	00000004 alt_dcache_flush_all
00426b64 g     F .text	00000068 __hi0bits
0042d538 g     F .text	00000080 .hidden __fixdfsi
004329a4 g       *ABS*	00000000 __ram_rwdata_end
00432980 g     O .rwdata	00000008 alt_dev_list
0042ddc0 g     F .text	00000110 write
00430ea8 g       *ABS*	00000000 __ram_rodata_end
0042d868 g     F .text	000000c8 fstat
0042c2dc g     F .text	000000f4 .hidden __ledf2
00426f44 g     F .text	00000140 __pow5mult
00428258 g     F .text	0000150c ___vfiprintf_internal_r
004344a8 g     O .bss	00000004 __nlocale_changed
0042aea4 g     F .text	00000058 .hidden __umodsi3
0042ef96 g     O .rodata	00001c20 plane
00434600 g       *ABS*	00000000 end
00420630 g     F .text	000000a8 vga_erase
00448000 g       *ABS*	00000000 __alt_mem_vga_sprite_4
0042e0d4 g     F .text	00000078 altera_avalon_jtag_uart_init
00420160 g     F .exceptions	00000024 alt_instruction_exception_entry
00440000 g       *ABS*	00000000 __alt_stack_pointer
0043295c g     O .rwdata	00000004 keycode_comm
0042e52c g     F .text	00000048 alt_avalon_timer_sc_init
0042d73c g     F .text	00000064 .hidden __clzsi2
0042e348 g     F .text	000001a8 altera_avalon_jtag_uart_write
00424e30 g     F .text	00000004 __sfp_lock_acquire
00426398 g     F .text	000000e4 memchr
00420a60 g     F .text	000022dc ___vfprintf_internal_r
00424f94 g     F .text	00000310 _free_r
0042597c g     F .text	00000010 __locale_mb_cur_max
0042ede8 g     F .text	00000180 __call_exitprocs
004344a4 g     O .bss	00000004 __mlocale_changed
00432970 g     O .rwdata	00000004 __malloc_sbrk_base
00420184 g     F .text	0000003c _start
004344d0 g     O .bss	00000004 _alt_tick_rate
00427084 g     F .text	00000148 __lshift
004344cc g     O .bss	00000004 _alt_nticks
0042dc04 g     F .text	00000114 read
0042def0 g     F .text	00000054 alt_sys_init
004206d8 g     F .text	000000b8 vga_fill
00426cb8 g     F .text	0000028c __multiply
0042e14c g     F .text	00000034 altera_avalon_jtag_uart_close
00420860 g     F .text	00000028 .hidden __mulsi3
00430ea8 g       *ABS*	00000000 __ram_rwdata_start
0042ef7c g       *ABS*	00000000 __ram_rodata_start
004344d8 g     O .bss	00000028 __malloc_current_mallinfo
00427598 g     F .text	0000014c __d2b
0042df44 g     F .text	00000010 altera_avalon_jtag_uart_read_fd
0042ec38 g     F .text	00000088 alt_get_fd
0042989c g     F .text	00000054 _close_r
0042ed6c g     F .text	0000007c memcmp
0042df64 g     F .text	00000010 altera_avalon_jtag_uart_close_fd
00434600 g       *ABS*	00000000 __alt_stack_base
0042df74 g     F .text	0000000c altera_avalon_jtag_uart_ioctl_fd
00422e14 g     F .text	00000154 __swsetup_r
0042b7a8 g     F .text	000009d0 .hidden __divdf3
00424cf0 g     F .text	00000118 __sfp
004277fc g     F .text	00000078 __copybits
00431344 g     O .rwdata	00000408 __malloc_av_
00424e3c g     F .text	00000004 __sinit_lock_release
00420000 g       *ABS*	00000000 __alt_mem_nios2_onchip_mem
0042c3d0 g     F .text	0000086c .hidden __muldf3
00427f2c g     F .text	00000054 __sread
0042eb8c g     F .text	000000ac alt_find_file
0042e5f8 g     F .text	0000006c alt_dev_llist_insert
0042dbfc g     F .text	00000004 __malloc_lock
0042dd74 g     F .text	0000004c sbrk
00424a34 g     F .text	0000005c _fflush_r
004298f0 g     F .text	000000dc _calloc_r
004344a0 g       *ABS*	00000000 __bss_start
00426720 g     F .text	00000128 memset
00444000 g       *ABS*	00000000 __alt_mem_vga_sprite_6
004201c0 g     F .text	00000470 main
004344bc g     O .bss	00000004 alt_envp
004344ac g     O .bss	00000004 __malloc_max_total_mem
0042df54 g     F .text	00000010 altera_avalon_jtag_uart_write_fd
00429f88 g     F .text	00000018 __swbuf
00428060 g     F .text	00000008 __sclose
00440000 g       *ABS*	00000000 __alt_heap_limit
00429abc g     F .text	00000014 fclose
00423190 g     F .text	00001688 _dtoa_r
00425b8c g     F .text	0000080c _malloc_r
0042a0fc g     F .text	00000030 __ascii_wctomb
00432990 g     O .rwdata	00000004 alt_errno
0042576c g     F .text	000000c4 _fwalk
0042ad48 g     F .text	00000084 .hidden __divsi3
00424e70 g     F .text	00000124 _malloc_trim_r
00428068 g     F .text	000000dc strcmp
0042ef7c g       *ABS*	00000000 __flash_rodata_start
0044e000 g       *ABS*	00000000 __alt_mem_vga_sprite_1
0042c178 g     F .text	00000088 .hidden __nedf2
0042ded0 g     F .text	00000020 alt_irq_init
0042dd18 g     F .text	0000005c alt_release_fd
00430d84 g     O .rodata	00000100 .hidden __clz_tab
004344a0 g     O .bss	00000004 _PathLocale
0042983c g     F .text	00000060 _write_r
004259ac g     F .text	00000018 setlocale
00432960 g     O .rwdata	00000004 vga_entities
00432968 g     O .rwdata	00000004 _impure_ptr
004344c4 g     O .bss	00000004 alt_argc
00424818 g     F .text	0000021c __sflush_r
00425998 g     F .text	00000008 __locale_cjk_lang
00420020 g       .exceptions	00000000 alt_irq_entry
00427428 g     F .text	00000064 __ulp
00424e58 g     F .text	00000018 __fp_unlock_all
00432988 g     O .rwdata	00000008 alt_fs_list
00420020 g       *ABS*	00000000 __ram_exceptions_start
004259c4 g     F .text	0000000c localeconv
0042e668 g     F .text	00000004 alt_ic_isr_register
004329a4 g       *ABS*	00000000 _edata
00434600 g       *ABS*	00000000 _end
00429ad0 g     F .text	00000164 __fputwc
00420184 g       *ABS*	00000000 __ram_exceptions_end
00446000 g       *ABS*	00000000 __alt_mem_vga_sprite_5
0042e180 g     F .text	00000074 altera_avalon_jtag_uart_ioctl
00432958 g     O .rwdata	00000004 hex
0042e6a4 g     F .text	00000038 alt_ic_irq_disable
00427f88 g     F .text	0000007c __swrite
00432974 g     O .rwdata	00000004 __malloc_trim_threshold
0042598c g     F .text	0000000c __locale_msgcharset
0042ed34 g     F .text	00000038 exit
00425830 g     F .text	000000c4 _fwalk_reent
0042722c g     F .text	000001fc __mdiff
0042adcc g     F .text	00000074 .hidden __modsi3
00440000 g       *ABS*	00000000 __alt_data_end
00420020 g     F .exceptions	00000000 alt_exception
00424e34 g     F .text	00000004 __sfp_lock_release
08000000 g       *ABS*	00000000 __alt_mem_sdram
00432954 g     O .rwdata	00000004 io_vga_sync
0042ef68 g     F .text	00000014 _exit
0042e574 g     F .text	00000080 alt_alarm_start
004259d0 g     F .text	000001bc __smakebuf_r
004209c8 g     F .text	00000098 strlen
0042e85c g     F .text	00000188 open
0042c200 g     F .text	000000dc .hidden __gedf2
00432978 g     O .rwdata	00000004 __wctomb
00428240 g     F .text	00000018 __sprint_r
0042e664 g     F .text	00000004 alt_icache_flush_all
00432998 g     O .rwdata	00000004 alt_priority_mask
0042e66c g     F .text	00000038 alt_ic_irq_enable
00422d3c g     F .text	0000001c __vfprintf_internal
0042a12c g     F .text	0000005c _wctomb_r
0042cc3c g     F .text	000008fc .hidden __subdf3
00426bcc g     F .text	000000b0 __lo0bits
0043299c g     O .rwdata	00000008 alt_alarm_list
0042a03c g     F .text	000000c0 wcrtomb
0042d7a0 g     F .text	000000c0 close
0042d9d0 g     F .text	00000114 alt_load
00429c58 g     F .text	00000080 fputwc
00424e38 g     F .text	00000004 __sinit_lock_acquire
00426918 g     F .text	00000148 __multadd
004268f0 g     F .text	00000028 _Bfree



Disassembly of section .entry:

00420000 <__reset>:
 * Jump to the _start entry point in the .text section if reset code
 * is allowed or if optimizing for RTL simulation.
 */
#if defined(ALT_ALLOW_CODE_AT_RESET) || defined(ALT_SIM_OPTIMIZE)
    /* Jump to the _start entry point in the .text section. */
    movhi r1, %hi(_start)
  420000:	004010b4 	movhi	at,66
    ori r1, r1, %lo(_start)
  420004:	08406114 	ori	at,at,388
    jmp r1
  420008:	0800683a 	jmp	at
	...

Disassembly of section .exceptions:

00420020 <alt_exception>:

#else /* ALT_EXCEPTION_STACK disabled */
        /* 
         * Reserve space on normal stack for registers about to be pushed.
         */
        addi  sp, sp, -76
  420020:	deffed04 	addi	sp,sp,-76
         * documentation for details).
         *
         * Leave a gap in the stack frame at 4(sp) for the muldiv handler to
         * store zero into.
         */
        stw   ra,  0(sp)
  420024:	dfc00015 	stw	ra,0(sp)
        stw   r1,   8(sp)
  420028:	d8400215 	stw	at,8(sp)
        stw   r2,  12(sp)
  42002c:	d8800315 	stw	r2,12(sp)
        stw   r3,  16(sp)
  420030:	d8c00415 	stw	r3,16(sp)
        stw   r4,  20(sp)
  420034:	d9000515 	stw	r4,20(sp)
        stw   r5,  24(sp)
  420038:	d9400615 	stw	r5,24(sp)
        stw   r6,  28(sp)
  42003c:	d9800715 	stw	r6,28(sp)
        stw   r7,  32(sp)
  420040:	d9c00815 	stw	r7,32(sp)
        rdctl r5, estatus   /* Read early to avoid usage stall */
  420044:	000b307a 	rdctl	r5,estatus
        stw   r8,  36(sp)
  420048:	da000915 	stw	r8,36(sp)
        stw   r9,  40(sp)
  42004c:	da400a15 	stw	r9,40(sp)
        stw   r10, 44(sp)
  420050:	da800b15 	stw	r10,44(sp)
        stw   r11, 48(sp)
  420054:	dac00c15 	stw	r11,48(sp)
        stw   r12, 52(sp)
  420058:	db000d15 	stw	r12,52(sp)
        stw   r13, 56(sp)
  42005c:	db400e15 	stw	r13,56(sp)
        stw   r14, 60(sp)
  420060:	db800f15 	stw	r14,60(sp)
        stw   r15, 64(sp)
  420064:	dbc01015 	stw	r15,64(sp)
        /*
         * ea-4 contains the address of the instruction being executed
         * when the exception occured. For interrupt exceptions, we will
         * will be re-issue the isntruction. Store it in 72(sp)
         */
        stw   r5,  68(sp)  /* estatus */
  420068:	d9401115 	stw	r5,68(sp)
        addi  r15, ea, -4  /* instruction that caused exception */
  42006c:	ebffff04 	addi	r15,ea,-4
        stw   r15,  72(sp)
  420070:	dbc01215 	stw	r15,72(sp)
#else
        /*
         * Test to see if the exception was a software exception or caused 
         * by an external interrupt, and vector accordingly.
         */
        rdctl r4, ipending
  420074:	0009313a 	rdctl	r4,ipending
        andi  r2, r5, 1
  420078:	2880004c 	andi	r2,r5,1
        beq   r2, zero, .Lnot_irq
  42007c:	10000326 	beq	r2,zero,42008c <alt_exception+0x6c>
        beq   r4, zero, .Lnot_irq
  420080:	20000226 	beq	r4,zero,42008c <alt_exception+0x6c>
        /*
         * Now that all necessary registers have been preserved, call 
         * alt_irq_handler() to process the interrupts.
         */

        call alt_irq_handler
  420084:	04200fc0 	call	4200fc <alt_irq_handler>

        .section .exceptions.irqreturn, "xa"

        br    .Lexception_exit
  420088:	00000706 	br	4200a8 <alt_exception+0x88>
         * upon completion, so we write ea (address of instruction *after*
         * the one where the exception occured) into 72(sp). The actual
         * instruction that caused the exception is written in r2, which these
         * handlers will utilize.
         */
        stw ea, 72(sp) /* EA is PC+4 so will skip over instruction causing exception */
  42008c:	df401215 	stw	ea,72(sp)
.Lunknown_16bit:
        addi.n r4, r4, 2 /* Need PC+2 to skip over instruction causing exception */
        stw r4, 72(sp)

#else /* CDX is not Enabled and all instructions are 32bits */
        ldw r2, -4(ea) /* Instruction value that caused exception */
  420090:	e8bfff17 	ldw	r2,-4(ea)
         * debugger is present) or go into an infinite loop since the
         * handling behavior is undefined; in that case we will not return here.
         */

        /* Load exception-causing address as first argument (r4) */
        addi   r4, ea, -4
  420094:	e93fff04 	addi	r4,ea,-4

        /* Call the instruction-exception entry */
        call   alt_instruction_exception_entry
  420098:	04201600 	call	420160 <alt_instruction_exception_entry>
         * instruction
         *
         * Return code was 0: Skip. The instruction after the exception is
         * already stored in 72(sp).
         */
        bne   r2, r0, .Lexception_exit
  42009c:	1000021e 	bne	r2,zero,4200a8 <alt_exception+0x88>

        /*
         * Otherwise, modify 72(sp) to re-issue the instruction that caused the
         * exception.
         */
        addi  r15, ea, -4  /* instruction that caused exception */
  4200a0:	ebffff04 	addi	r15,ea,-4
        stw   r15,  72(sp)
  4200a4:	dbc01215 	stw	r15,72(sp)
        /* 
         * Restore the saved registers, so that all general purpose registers 
         * have been restored to their state at the time the interrupt occured.
         */

        ldw   r5,  68(sp)
  4200a8:	d9401117 	ldw	r5,68(sp)
        ldw   ea,  72(sp)  /* This becomes the PC once eret is executed */
  4200ac:	df401217 	ldw	ea,72(sp)
        ldw   ra,   0(sp)
  4200b0:	dfc00017 	ldw	ra,0(sp)

        wrctl estatus, r5
  4200b4:	2801707a 	wrctl	estatus,r5

        ldw   r1,   8(sp)
  4200b8:	d8400217 	ldw	at,8(sp)
        ldw   r2,  12(sp)
  4200bc:	d8800317 	ldw	r2,12(sp)
        ldw   r3,  16(sp)
  4200c0:	d8c00417 	ldw	r3,16(sp)
        ldw   r4,  20(sp)
  4200c4:	d9000517 	ldw	r4,20(sp)
        ldw   r5,  24(sp)
  4200c8:	d9400617 	ldw	r5,24(sp)
        ldw   r6,  28(sp)
  4200cc:	d9800717 	ldw	r6,28(sp)
        ldw   r7,  32(sp)
  4200d0:	d9c00817 	ldw	r7,32(sp)

#if defined(ALT_EXCEPTION_STACK) && defined(ALT_STACK_CHECK)
        ldw   et, %gprel(alt_exception_old_stack_limit)(gp)
#endif

        ldw   r8,  36(sp)
  4200d4:	da000917 	ldw	r8,36(sp)
        ldw   r9,  40(sp)
  4200d8:	da400a17 	ldw	r9,40(sp)
        ldw   r10, 44(sp)
  4200dc:	da800b17 	ldw	r10,44(sp)
        ldw   r11, 48(sp)
  4200e0:	dac00c17 	ldw	r11,48(sp)
        ldw   r12, 52(sp)
  4200e4:	db000d17 	ldw	r12,52(sp)
        ldw   r13, 56(sp)
  4200e8:	db400e17 	ldw	r13,56(sp)
        ldw   r14, 60(sp)
  4200ec:	db800f17 	ldw	r14,60(sp)
        ldw   r15, 64(sp)
  4200f0:	dbc01017 	ldw	r15,64(sp)
        stw   et, %gprel(alt_stack_limit_value)(gp)
        stw   zero, %gprel(alt_exception_old_stack_limit)(gp)
#endif /* ALT_STACK_CHECK */
        ldw   sp,  76(sp)
#else /* ALT_EXCEPTION_STACK disabled */
        addi  sp, sp, 76
  4200f4:	dec01304 	addi	sp,sp,76

        /*
         * Return to the interrupted instruction.
         */

        eret
  4200f8:	ef80083a 	eret

004200fc <alt_irq_handler>:
  4200fc:	defffe04 	addi	sp,sp,-8
  420100:	dfc00115 	stw	ra,4(sp)
  420104:	dc000015 	stw	r16,0(sp)
  420108:	000b313a 	rdctl	r5,ipending
  42010c:	040010f4 	movhi	r16,67
  420110:	84114004 	addi	r16,r16,17664
  420114:	2880004c 	andi	r2,r5,1
  420118:	0007883a 	mov	r3,zero
  42011c:	1000051e 	bne	r2,zero,420134 <alt_irq_handler+0x38>
  420120:	00800044 	movi	r2,1
  420124:	1085883a 	add	r2,r2,r2
  420128:	2888703a 	and	r4,r5,r2
  42012c:	18c00044 	addi	r3,r3,1
  420130:	203ffc26 	beq	r4,zero,420124 <__alt_mem_sdram+0xf8420124>
  420134:	180690fa 	slli	r3,r3,3
  420138:	80c7883a 	add	r3,r16,r3
  42013c:	18800017 	ldw	r2,0(r3)
  420140:	19000117 	ldw	r4,4(r3)
  420144:	103ee83a 	callr	r2
  420148:	000b313a 	rdctl	r5,ipending
  42014c:	283ff11e 	bne	r5,zero,420114 <__alt_mem_sdram+0xf8420114>
  420150:	dfc00117 	ldw	ra,4(sp)
  420154:	dc000017 	ldw	r16,0(sp)
  420158:	dec00204 	addi	sp,sp,8
  42015c:	f800283a 	ret

00420160 <alt_instruction_exception_entry>:
  420160:	d0a6e017 	ldw	r2,-25728(gp)
  420164:	10000426 	beq	r2,zero,420178 <alt_instruction_exception_entry+0x18>
  420168:	200b883a 	mov	r5,r4
  42016c:	000d883a 	mov	r6,zero
  420170:	013fffc4 	movi	r4,-1
  420174:	1000683a 	jmp	r2
  420178:	003da03a 	break	0
  42017c:	0005883a 	mov	r2,zero
  420180:	f800283a 	ret

Disassembly of section .text:

00420184 <_start>:

    /*
     * Now that the caches are initialized, set up the stack pointer and global pointer.
     * The values provided by the linker are assumed to be correctly aligned.
     */
    movhi sp, %hi(__alt_stack_pointer)
  420184:	06c01134 	movhi	sp,68
    ori sp, sp, %lo(__alt_stack_pointer)
  420188:	dec00014 	ori	sp,sp,0
    movhi gp, %hi(_gp)
  42018c:	068010f4 	movhi	gp,67
    ori gp, gp, %lo(_gp)
  420190:	d6aa5514 	ori	gp,gp,43348
 */
#ifndef ALT_SIM_OPTIMIZE
    /* Log that the BSS is about to be cleared. */
    ALT_LOG_PUTS(alt_log_msg_bss)

    movhi r2, %hi(__bss_start)
  420194:	008010f4 	movhi	r2,67
    ori r2, r2, %lo(__bss_start)
  420198:	10912814 	ori	r2,r2,17568

    movhi r3, %hi(__bss_end)
  42019c:	00c010f4 	movhi	r3,67
    ori r3, r3, %lo(__bss_end)
  4201a0:	18d18014 	ori	r3,r3,17920

    beq r2, r3, 1f
  4201a4:	10c00326 	beq	r2,r3,4201b4 <_start+0x30>

0:
    stw zero, (r2)
  4201a8:	10000015 	stw	zero,0(r2)
    addi r2, r2, 4
  4201ac:	10800104 	addi	r2,r2,4
    bltu r2, r3, 0b
  4201b0:	10fffd36 	bltu	r2,r3,4201a8 <__alt_mem_sdram+0xf84201a8>
     * section aren't defined until alt_load() has been called).
     */
    mov   et, zero
#endif

    call alt_load
  4201b4:	042d9d00 	call	42d9d0 <alt_load>

    /* Log that alt_main is about to be called. */
    ALT_LOG_PUTS(alt_log_msg_alt_main)

    /* Call the C entry point. It should never return. */
    call alt_main
  4201b8:	042dbac0 	call	42dbac <alt_main>

004201bc <alt_after_alt_main>:

    /* Wait in infinite loop in case alt_main does return. */
alt_after_alt_main:
    br alt_after_alt_main
  4201bc:	003fff06 	br	4201bc <__alt_mem_sdram+0xf84201bc>

004201c0 <main>:
  4201c0:	010010f4 	movhi	r4,67
  4201c4:	defff504 	addi	sp,sp,-44
  4201c8:	213bdf04 	addi	r4,r4,-4228
  4201cc:	dfc00a15 	stw	ra,40(sp)
  4201d0:	df000915 	stw	fp,36(sp)
  4201d4:	ddc00815 	stw	r23,32(sp)
  4201d8:	dd800715 	stw	r22,28(sp)
  4201dc:	dd400615 	stw	r21,24(sp)
  4201e0:	dd000515 	stw	r20,20(sp)
  4201e4:	dcc00415 	stw	r19,16(sp)
  4201e8:	dc800315 	stw	r18,12(sp)
  4201ec:	dc400215 	stw	r17,8(sp)
  4201f0:	dc000115 	stw	r16,4(sp)
  4201f4:	04209b40 	call	4209b4 <puts>
  4201f8:	00bfffd4 	movui	r2,65535
  4201fc:	d8800015 	stw	r2,0(sp)
  420200:	0009883a 	mov	r4,zero
  420204:	01c07804 	movi	r7,480
  420208:	0180a004 	movi	r6,640
  42020c:	000b883a 	mov	r5,zero
  420210:	04206d80 	call	4206d8 <vga_fill>
  420214:	d1200317 	ldw	r4,-32756(gp)
  420218:	2005883a 	mov	r2,r4
  42021c:	20c10004 	addi	r3,r4,1024
  420220:	10000015 	stw	zero,0(r2)
  420224:	10000115 	stw	zero,4(r2)
  420228:	10000215 	stw	zero,8(r2)
  42022c:	10000315 	stw	zero,12(r2)
  420230:	10800404 	addi	r2,r2,16
  420234:	10fffa1e 	bne	r2,r3,420220 <__alt_mem_sdram+0xf8420220>
  420238:	20000015 	stw	zero,0(r4)
  42023c:	20000115 	stw	zero,4(r4)
  420240:	008012c4 	movi	r2,75
  420244:	20800215 	stw	r2,8(r4)
  420248:	00800c04 	movi	r2,48
  42024c:	20800315 	stw	r2,12(r4)
  420250:	00803204 	movi	r2,200
  420254:	20802015 	stw	r2,128(r4)
  420258:	20802115 	stw	r2,132(r4)
  42025c:	008000c4 	movi	r2,3
  420260:	20802215 	stw	r2,136(r4)
  420264:	00c010f4 	movhi	r3,67
  420268:	00a22214 	movui	r2,34952
  42026c:	01401174 	movhi	r5,69
  420270:	20802315 	stw	r2,140(r4)
  420274:	18fbe584 	addi	r3,r3,-4202
  420278:	29470804 	addi	r5,r5,7200
  42027c:	00801174 	movhi	r2,69
  420280:	1980000b 	ldhu	r6,0(r3)
  420284:	10800084 	addi	r2,r2,2
  420288:	18c00084 	addi	r3,r3,2
  42028c:	11bfff8d 	sth	r6,-2(r2)
  420290:	117ffb1e 	bne	r2,r5,420280 <__alt_mem_sdram+0xf8420280>
  420294:	d0e00017 	ldw	r3,-32768(gp)
  420298:	040010b4 	movhi	r16,66
  42029c:	8400c104 	addi	r16,r16,772
  4202a0:	05c04b04 	movi	r23,300
  4202a4:	05803204 	movi	r22,200
  4202a8:	05400084 	movi	r21,2
  4202ac:	05009fc4 	movi	r20,639
  4202b0:	04c077c4 	movi	r19,479
  4202b4:	04bfed84 	movi	r18,-74
  4202b8:	047ff444 	movi	r17,-47
  4202bc:	07001384 	movi	fp,78
  4202c0:	18800017 	ldw	r2,0(r3)
  4202c4:	103ffe26 	beq	r2,zero,4202c0 <__alt_mem_sdram+0xf84202c0>
  4202c8:	d1a00217 	ldw	r6,-32760(gp)
  4202cc:	0007883a 	mov	r3,zero
  4202d0:	d1e00117 	ldw	r7,-32764(gp)
  4202d4:	30c5883a 	add	r2,r6,r3
  4202d8:	10800104 	addi	r2,r2,4
  4202dc:	10800003 	ldbu	r2,0(r2)
  4202e0:	01400044 	movi	r5,1
  4202e4:	18007226 	beq	r3,zero,4204b0 <main+0x2f0>
  4202e8:	10bfff04 	addi	r2,r2,-4
  4202ec:	10803fcc 	andi	r2,r2,255
  4202f0:	e0805536 	bltu	fp,r2,420448 <main+0x288>
  4202f4:	100490ba 	slli	r2,r2,2
  4202f8:	1405883a 	add	r2,r2,r16
  4202fc:	10800017 	ldw	r2,0(r2)
  420300:	1000683a 	jmp	r2
  420304:	00420624 	muli	at,zero,2072
  420308:	00420448 	cmpgei	at,zero,2065
  42030c:	00420448 	cmpgei	at,zero,2065
  420310:	00420618 	cmpnei	at,zero,2072
  420314:	00420448 	cmpgei	at,zero,2065
  420318:	00420448 	cmpgei	at,zero,2065
  42031c:	00420448 	cmpgei	at,zero,2065
  420320:	00420448 	cmpgei	at,zero,2065
  420324:	00420448 	cmpgei	at,zero,2065
  420328:	00420448 	cmpgei	at,zero,2065
  42032c:	00420448 	cmpgei	at,zero,2065
  420330:	00420448 	cmpgei	at,zero,2065
  420334:	00420448 	cmpgei	at,zero,2065
  420338:	00420448 	cmpgei	at,zero,2065
  42033c:	00420448 	cmpgei	at,zero,2065
  420340:	00420448 	cmpgei	at,zero,2065
  420344:	00420448 	cmpgei	at,zero,2065
  420348:	00420448 	cmpgei	at,zero,2065
  42034c:	0042048c 	andi	at,zero,2066
  420350:	00420448 	cmpgei	at,zero,2065
  420354:	00420448 	cmpgei	at,zero,2065
  420358:	00420448 	cmpgei	at,zero,2065
  42035c:	00420440 	call	42044 <__alt_mem_nios2_onchip_mem-0x3ddfbc>
  420360:	00420448 	cmpgei	at,zero,2065
  420364:	00420448 	cmpgei	at,zero,2065
  420368:	00420448 	cmpgei	at,zero,2065
  42036c:	00420448 	cmpgei	at,zero,2065
  420370:	00420448 	cmpgei	at,zero,2065
  420374:	00420448 	cmpgei	at,zero,2065
  420378:	00420448 	cmpgei	at,zero,2065
  42037c:	00420448 	cmpgei	at,zero,2065
  420380:	00420448 	cmpgei	at,zero,2065
  420384:	00420448 	cmpgei	at,zero,2065
  420388:	00420448 	cmpgei	at,zero,2065
  42038c:	00420448 	cmpgei	at,zero,2065
  420390:	00420448 	cmpgei	at,zero,2065
  420394:	00420448 	cmpgei	at,zero,2065
  420398:	00420448 	cmpgei	at,zero,2065
  42039c:	00420448 	cmpgei	at,zero,2065
  4203a0:	00420448 	cmpgei	at,zero,2065
  4203a4:	00420448 	cmpgei	at,zero,2065
  4203a8:	00420448 	cmpgei	at,zero,2065
  4203ac:	00420448 	cmpgei	at,zero,2065
  4203b0:	00420448 	cmpgei	at,zero,2065
  4203b4:	00420448 	cmpgei	at,zero,2065
  4203b8:	00420448 	cmpgei	at,zero,2065
  4203bc:	00420448 	cmpgei	at,zero,2065
  4203c0:	00420448 	cmpgei	at,zero,2065
  4203c4:	00420448 	cmpgei	at,zero,2065
  4203c8:	00420448 	cmpgei	at,zero,2065
  4203cc:	00420448 	cmpgei	at,zero,2065
  4203d0:	00420448 	cmpgei	at,zero,2065
  4203d4:	00420448 	cmpgei	at,zero,2065
  4203d8:	00420448 	cmpgei	at,zero,2065
  4203dc:	00420448 	cmpgei	at,zero,2065
  4203e0:	00420448 	cmpgei	at,zero,2065
  4203e4:	00420448 	cmpgei	at,zero,2065
  4203e8:	00420448 	cmpgei	at,zero,2065
  4203ec:	00420448 	cmpgei	at,zero,2065
  4203f0:	00420448 	cmpgei	at,zero,2065
  4203f4:	00420448 	cmpgei	at,zero,2065
  4203f8:	00420448 	cmpgei	at,zero,2065
  4203fc:	00420448 	cmpgei	at,zero,2065
  420400:	00420448 	cmpgei	at,zero,2065
  420404:	00420448 	cmpgei	at,zero,2065
  420408:	00420448 	cmpgei	at,zero,2065
  42040c:	00420448 	cmpgei	at,zero,2065
  420410:	00420448 	cmpgei	at,zero,2065
  420414:	00420448 	cmpgei	at,zero,2065
  420418:	00420448 	cmpgei	at,zero,2065
  42041c:	00420448 	cmpgei	at,zero,2065
  420420:	00420448 	cmpgei	at,zero,2065
  420424:	00420448 	cmpgei	at,zero,2065
  420428:	00420448 	cmpgei	at,zero,2065
  42042c:	00420448 	cmpgei	at,zero,2065
  420430:	00420618 	cmpnei	at,zero,2072
  420434:	00420624 	muli	at,zero,2072
  420438:	0042048c 	andi	at,zero,2066
  42043c:	00420440 	call	42044 <__alt_mem_nios2_onchip_mem-0x3ddfbc>
  420440:	b4400116 	blt	r22,r17,420448 <main+0x288>
  420444:	b5bfffc4 	addi	r22,r22,-1
  420448:	2d40131e 	bne	r5,r21,420498 <main+0x2d8>
  42044c:	25c02015 	stw	r23,128(r4)
  420450:	25802115 	stw	r22,132(r4)
  420454:	21c02017 	ldw	r7,128(r4)
  420458:	20802117 	ldw	r2,132(r4)
  42045c:	010010f4 	movhi	r4,67
  420460:	213be204 	addi	r4,r4,-4216
  420464:	d8800015 	stw	r2,0(sp)
  420468:	b00d883a 	mov	r6,r22
  42046c:	b80b883a 	mov	r5,r23
  420470:	04208b80 	call	4208b8 <printf>
  420474:	d0e00017 	ldw	r3,-32768(gp)
  420478:	01000044 	movi	r4,1
  42047c:	18800017 	ldw	r2,0(r3)
  420480:	113ffe26 	beq	r2,r4,42047c <__alt_mem_sdram+0xf842047c>
  420484:	d1200317 	ldw	r4,-32756(gp)
  420488:	003f8d06 	br	4202c0 <__alt_mem_sdram+0xf84202c0>
  42048c:	9dbfee16 	blt	r19,r22,420448 <__alt_mem_sdram+0xf8420448>
  420490:	b5800044 	addi	r22,r22,1
  420494:	2d7fed26 	beq	r5,r21,42044c <__alt_mem_sdram+0xf842044c>
  420498:	18c00044 	addi	r3,r3,1
  42049c:	30c5883a 	add	r2,r6,r3
  4204a0:	10800104 	addi	r2,r2,4
  4204a4:	10800003 	ldbu	r2,0(r2)
  4204a8:	29400044 	addi	r5,r5,1
  4204ac:	183f8e1e 	bne	r3,zero,4202e8 <__alt_mem_sdram+0xf84202e8>
  4204b0:	12403fcc 	andi	r9,r2,255
  4204b4:	10bfff04 	addi	r2,r2,-4
  4204b8:	3a400015 	stw	r9,0(r7)
  4204bc:	10803fcc 	andi	r2,r2,255
  4204c0:	e0bff536 	bltu	fp,r2,420498 <__alt_mem_sdram+0xf8420498>
  4204c4:	100490ba 	slli	r2,r2,2
  4204c8:	020010b4 	movhi	r8,66
  4204cc:	42013704 	addi	r8,r8,1244
  4204d0:	1205883a 	add	r2,r2,r8
  4204d4:	10800017 	ldw	r2,0(r2)
  4204d8:	1000683a 	jmp	r2
  4204dc:	00420624 	muli	at,zero,2072
  4204e0:	00420498 	cmpnei	at,zero,2066
  4204e4:	00420498 	cmpnei	at,zero,2066
  4204e8:	00420618 	cmpnei	at,zero,2072
  4204ec:	00420498 	cmpnei	at,zero,2066
  4204f0:	00420498 	cmpnei	at,zero,2066
  4204f4:	00420498 	cmpnei	at,zero,2066
  4204f8:	00420498 	cmpnei	at,zero,2066
  4204fc:	00420498 	cmpnei	at,zero,2066
  420500:	00420498 	cmpnei	at,zero,2066
  420504:	00420498 	cmpnei	at,zero,2066
  420508:	00420498 	cmpnei	at,zero,2066
  42050c:	00420498 	cmpnei	at,zero,2066
  420510:	00420498 	cmpnei	at,zero,2066
  420514:	00420498 	cmpnei	at,zero,2066
  420518:	00420498 	cmpnei	at,zero,2066
  42051c:	00420498 	cmpnei	at,zero,2066
  420520:	00420498 	cmpnei	at,zero,2066
  420524:	0042048c 	andi	at,zero,2066
  420528:	00420498 	cmpnei	at,zero,2066
  42052c:	00420498 	cmpnei	at,zero,2066
  420530:	00420498 	cmpnei	at,zero,2066
  420534:	00420440 	call	42044 <__alt_mem_nios2_onchip_mem-0x3ddfbc>
  420538:	00420498 	cmpnei	at,zero,2066
  42053c:	00420498 	cmpnei	at,zero,2066
  420540:	00420498 	cmpnei	at,zero,2066
  420544:	00420498 	cmpnei	at,zero,2066
  420548:	00420498 	cmpnei	at,zero,2066
  42054c:	00420498 	cmpnei	at,zero,2066
  420550:	00420498 	cmpnei	at,zero,2066
  420554:	00420498 	cmpnei	at,zero,2066
  420558:	00420498 	cmpnei	at,zero,2066
  42055c:	00420498 	cmpnei	at,zero,2066
  420560:	00420498 	cmpnei	at,zero,2066
  420564:	00420498 	cmpnei	at,zero,2066
  420568:	00420498 	cmpnei	at,zero,2066
  42056c:	00420498 	cmpnei	at,zero,2066
  420570:	00420498 	cmpnei	at,zero,2066
  420574:	00420498 	cmpnei	at,zero,2066
  420578:	00420498 	cmpnei	at,zero,2066
  42057c:	00420498 	cmpnei	at,zero,2066
  420580:	00420498 	cmpnei	at,zero,2066
  420584:	00420498 	cmpnei	at,zero,2066
  420588:	00420498 	cmpnei	at,zero,2066
  42058c:	00420498 	cmpnei	at,zero,2066
  420590:	00420498 	cmpnei	at,zero,2066
  420594:	00420498 	cmpnei	at,zero,2066
  420598:	00420498 	cmpnei	at,zero,2066
  42059c:	00420498 	cmpnei	at,zero,2066
  4205a0:	00420498 	cmpnei	at,zero,2066
  4205a4:	00420498 	cmpnei	at,zero,2066
  4205a8:	00420498 	cmpnei	at,zero,2066
  4205ac:	00420498 	cmpnei	at,zero,2066
  4205b0:	00420498 	cmpnei	at,zero,2066
  4205b4:	00420498 	cmpnei	at,zero,2066
  4205b8:	00420498 	cmpnei	at,zero,2066
  4205bc:	00420498 	cmpnei	at,zero,2066
  4205c0:	00420498 	cmpnei	at,zero,2066
  4205c4:	00420498 	cmpnei	at,zero,2066
  4205c8:	00420498 	cmpnei	at,zero,2066
  4205cc:	00420498 	cmpnei	at,zero,2066
  4205d0:	00420498 	cmpnei	at,zero,2066
  4205d4:	00420498 	cmpnei	at,zero,2066
  4205d8:	00420498 	cmpnei	at,zero,2066
  4205dc:	00420498 	cmpnei	at,zero,2066
  4205e0:	00420498 	cmpnei	at,zero,2066
  4205e4:	00420498 	cmpnei	at,zero,2066
  4205e8:	00420498 	cmpnei	at,zero,2066
  4205ec:	00420498 	cmpnei	at,zero,2066
  4205f0:	00420498 	cmpnei	at,zero,2066
  4205f4:	00420498 	cmpnei	at,zero,2066
  4205f8:	00420498 	cmpnei	at,zero,2066
  4205fc:	00420498 	cmpnei	at,zero,2066
  420600:	00420498 	cmpnei	at,zero,2066
  420604:	00420498 	cmpnei	at,zero,2066
  420608:	00420618 	cmpnei	at,zero,2072
  42060c:	00420624 	muli	at,zero,2072
  420610:	0042048c 	andi	at,zero,2066
  420614:	00420440 	call	42044 <__alt_mem_nios2_onchip_mem-0x3ddfbc>
  420618:	a5ff8b16 	blt	r20,r23,420448 <__alt_mem_sdram+0xf8420448>
  42061c:	bdc00044 	addi	r23,r23,1
  420620:	003f8906 	br	420448 <__alt_mem_sdram+0xf8420448>
  420624:	bcbf8816 	blt	r23,r18,420448 <__alt_mem_sdram+0xf8420448>
  420628:	bdffffc4 	addi	r23,r23,-1
  42062c:	003f8606 	br	420448 <__alt_mem_sdram+0xf8420448>

00420630 <vga_erase>:
  420630:	defffb04 	addi	sp,sp,-20
  420634:	dcc00315 	stw	r19,12(sp)
  420638:	dc800215 	stw	r18,8(sp)
  42063c:	dc000015 	stw	r16,0(sp)
  420640:	dfc00415 	stw	ra,16(sp)
  420644:	dc400115 	stw	r17,4(sp)
  420648:	29e7883a 	add	r19,r5,r7
  42064c:	00807804 	movi	r2,480
  420650:	2821883a 	mov	r16,r5
  420654:	2025883a 	mov	r18,r4
  420658:	14c0010e 	bge	r2,r19,420660 <vga_erase+0x30>
  42065c:	1027883a 	mov	r19,r2
  420660:	91a3883a 	add	r17,r18,r6
  420664:	0080a004 	movi	r2,640
  420668:	1440010e 	bge	r2,r17,420670 <vga_erase+0x40>
  42066c:	1023883a 	mov	r17,r2
  420670:	84c0120e 	bge	r16,r19,4206bc <vga_erase+0x8c>
  420674:	0140a004 	movi	r5,640
  420678:	8009883a 	mov	r4,r16
  42067c:	04208600 	call	420860 <__mulsi3>
  420680:	1485883a 	add	r2,r2,r18
  420684:	8c8bc83a 	sub	r5,r17,r18
  420688:	1089883a 	add	r4,r2,r2
  42068c:	294b883a 	add	r5,r5,r5
  420690:	2109883a 	add	r4,r4,r4
  420694:	294b883a 	add	r5,r5,r5
  420698:	9440050e 	bge	r18,r17,4206b0 <vga_erase+0x80>
  42069c:	2147883a 	add	r3,r4,r5
  4206a0:	2005883a 	mov	r2,r4
  4206a4:	10000015 	stw	zero,0(r2)
  4206a8:	10800104 	addi	r2,r2,4
  4206ac:	10fffd1e 	bne	r2,r3,4206a4 <__alt_mem_sdram+0xf84206a4>
  4206b0:	84000044 	addi	r16,r16,1
  4206b4:	21028004 	addi	r4,r4,2560
  4206b8:	9c3ff71e 	bne	r19,r16,420698 <__alt_mem_sdram+0xf8420698>
  4206bc:	dfc00417 	ldw	ra,16(sp)
  4206c0:	dcc00317 	ldw	r19,12(sp)
  4206c4:	dc800217 	ldw	r18,8(sp)
  4206c8:	dc400117 	ldw	r17,4(sp)
  4206cc:	dc000017 	ldw	r16,0(sp)
  4206d0:	dec00504 	addi	sp,sp,20
  4206d4:	f800283a 	ret

004206d8 <vga_fill>:
  4206d8:	defffa04 	addi	sp,sp,-24
  4206dc:	dd000415 	stw	r20,16(sp)
  4206e0:	dcc00315 	stw	r19,12(sp)
  4206e4:	dc400115 	stw	r17,4(sp)
  4206e8:	dc000015 	stw	r16,0(sp)
  4206ec:	dfc00515 	stw	ra,20(sp)
  4206f0:	dc800215 	stw	r18,8(sp)
  4206f4:	29e9883a 	add	r20,r5,r7
  4206f8:	00807804 	movi	r2,480
  4206fc:	2823883a 	mov	r17,r5
  420700:	2027883a 	mov	r19,r4
  420704:	dc00060b 	ldhu	r16,24(sp)
  420708:	1500010e 	bge	r2,r20,420710 <vga_fill+0x38>
  42070c:	1029883a 	mov	r20,r2
  420710:	99a5883a 	add	r18,r19,r6
  420714:	0080a004 	movi	r2,640
  420718:	1480010e 	bge	r2,r18,420720 <vga_fill+0x48>
  42071c:	1025883a 	mov	r18,r2
  420720:	8d00130e 	bge	r17,r20,420770 <vga_fill+0x98>
  420724:	0140a004 	movi	r5,640
  420728:	8809883a 	mov	r4,r17
  42072c:	04208600 	call	420860 <__mulsi3>
  420730:	14c5883a 	add	r2,r2,r19
  420734:	94cdc83a 	sub	r6,r18,r19
  420738:	108b883a 	add	r5,r2,r2
  42073c:	318d883a 	add	r6,r6,r6
  420740:	294b883a 	add	r5,r5,r5
  420744:	318d883a 	add	r6,r6,r6
  420748:	813fffcc 	andi	r4,r16,65535
  42074c:	9c80050e 	bge	r19,r18,420764 <vga_fill+0x8c>
  420750:	2987883a 	add	r3,r5,r6
  420754:	2805883a 	mov	r2,r5
  420758:	11000015 	stw	r4,0(r2)
  42075c:	10800104 	addi	r2,r2,4
  420760:	10fffd1e 	bne	r2,r3,420758 <__alt_mem_sdram+0xf8420758>
  420764:	8c400044 	addi	r17,r17,1
  420768:	29428004 	addi	r5,r5,2560
  42076c:	a47ff71e 	bne	r20,r17,42074c <__alt_mem_sdram+0xf842074c>
  420770:	dfc00517 	ldw	ra,20(sp)
  420774:	dd000417 	ldw	r20,16(sp)
  420778:	dcc00317 	ldw	r19,12(sp)
  42077c:	dc800217 	ldw	r18,8(sp)
  420780:	dc400117 	ldw	r17,4(sp)
  420784:	dc000017 	ldw	r16,0(sp)
  420788:	dec00604 	addi	sp,sp,24
  42078c:	f800283a 	ret

00420790 <vga_set>:
  420790:	defff904 	addi	sp,sp,-28
  420794:	dd400515 	stw	r21,20(sp)
  420798:	dcc00315 	stw	r19,12(sp)
  42079c:	dc000015 	stw	r16,0(sp)
  4207a0:	dfc00615 	stw	ra,24(sp)
  4207a4:	dd000415 	stw	r20,16(sp)
  4207a8:	dc800215 	stw	r18,8(sp)
  4207ac:	dc400115 	stw	r17,4(sp)
  4207b0:	29eb883a 	add	r21,r5,r7
  4207b4:	00807804 	movi	r2,480
  4207b8:	2821883a 	mov	r16,r5
  4207bc:	2027883a 	mov	r19,r4
  4207c0:	1540010e 	bge	r2,r21,4207c8 <vga_set+0x38>
  4207c4:	102b883a 	mov	r21,r2
  4207c8:	99a9883a 	add	r20,r19,r6
  4207cc:	0080a004 	movi	r2,640
  4207d0:	1500010e 	bge	r2,r20,4207d8 <vga_set+0x48>
  4207d4:	1029883a 	mov	r20,r2
  4207d8:	8540180e 	bge	r16,r21,42083c <vga_set+0xac>
  4207dc:	0140a004 	movi	r5,640
  4207e0:	8009883a 	mov	r4,r16
  4207e4:	31a5883a 	add	r18,r6,r6
  4207e8:	04208600 	call	420860 <__mulsi3>
  4207ec:	14c5883a 	add	r2,r2,r19
  4207f0:	a4d3c83a 	sub	r9,r20,r19
  4207f4:	dc400717 	ldw	r17,28(sp)
  4207f8:	1091883a 	add	r8,r2,r2
  4207fc:	4a53883a 	add	r9,r9,r9
  420800:	4211883a 	add	r8,r8,r8
  420804:	4a53883a 	add	r9,r9,r9
  420808:	9d00080e 	bge	r19,r20,42082c <vga_set+0x9c>
  42080c:	424b883a 	add	r5,r8,r9
  420810:	4005883a 	mov	r2,r8
  420814:	8807883a 	mov	r3,r17
  420818:	1900000b 	ldhu	r4,0(r3)
  42081c:	10800104 	addi	r2,r2,4
  420820:	18c00084 	addi	r3,r3,2
  420824:	113fff15 	stw	r4,-4(r2)
  420828:	117ffb1e 	bne	r2,r5,420818 <__alt_mem_sdram+0xf8420818>
  42082c:	84000044 	addi	r16,r16,1
  420830:	8ca3883a 	add	r17,r17,r18
  420834:	42028004 	addi	r8,r8,2560
  420838:	ac3ff31e 	bne	r21,r16,420808 <__alt_mem_sdram+0xf8420808>
  42083c:	dfc00617 	ldw	ra,24(sp)
  420840:	dd400517 	ldw	r21,20(sp)
  420844:	dd000417 	ldw	r20,16(sp)
  420848:	dcc00317 	ldw	r19,12(sp)
  42084c:	dc800217 	ldw	r18,8(sp)
  420850:	dc400117 	ldw	r17,4(sp)
  420854:	dc000017 	ldw	r16,0(sp)
  420858:	dec00704 	addi	sp,sp,28
  42085c:	f800283a 	ret

00420860 <__mulsi3>:
  420860:	0005883a 	mov	r2,zero
  420864:	20000726 	beq	r4,zero,420884 <__mulsi3+0x24>
  420868:	20c0004c 	andi	r3,r4,1
  42086c:	2008d07a 	srli	r4,r4,1
  420870:	18000126 	beq	r3,zero,420878 <__mulsi3+0x18>
  420874:	1145883a 	add	r2,r2,r5
  420878:	294b883a 	add	r5,r5,r5
  42087c:	203ffa1e 	bne	r4,zero,420868 <__alt_mem_sdram+0xf8420868>
  420880:	f800283a 	ret
  420884:	f800283a 	ret

00420888 <_printf_r>:
  420888:	defffd04 	addi	sp,sp,-12
  42088c:	2805883a 	mov	r2,r5
  420890:	dfc00015 	stw	ra,0(sp)
  420894:	d9800115 	stw	r6,4(sp)
  420898:	d9c00215 	stw	r7,8(sp)
  42089c:	21400217 	ldw	r5,8(r4)
  4208a0:	d9c00104 	addi	r7,sp,4
  4208a4:	100d883a 	mov	r6,r2
  4208a8:	0420a600 	call	420a60 <___vfprintf_internal_r>
  4208ac:	dfc00017 	ldw	ra,0(sp)
  4208b0:	dec00304 	addi	sp,sp,12
  4208b4:	f800283a 	ret

004208b8 <printf>:
  4208b8:	defffc04 	addi	sp,sp,-16
  4208bc:	dfc00015 	stw	ra,0(sp)
  4208c0:	d9400115 	stw	r5,4(sp)
  4208c4:	d9800215 	stw	r6,8(sp)
  4208c8:	d9c00315 	stw	r7,12(sp)
  4208cc:	008010f4 	movhi	r2,67
  4208d0:	108a5a04 	addi	r2,r2,10600
  4208d4:	10800017 	ldw	r2,0(r2)
  4208d8:	200b883a 	mov	r5,r4
  4208dc:	d9800104 	addi	r6,sp,4
  4208e0:	11000217 	ldw	r4,8(r2)
  4208e4:	0422d3c0 	call	422d3c <__vfprintf_internal>
  4208e8:	dfc00017 	ldw	ra,0(sp)
  4208ec:	dec00404 	addi	sp,sp,16
  4208f0:	f800283a 	ret

004208f4 <_puts_r>:
  4208f4:	defff604 	addi	sp,sp,-40
  4208f8:	dc000715 	stw	r16,28(sp)
  4208fc:	2021883a 	mov	r16,r4
  420900:	2809883a 	mov	r4,r5
  420904:	dc400815 	stw	r17,32(sp)
  420908:	dfc00915 	stw	ra,36(sp)
  42090c:	2823883a 	mov	r17,r5
  420910:	04209c80 	call	4209c8 <strlen>
  420914:	10c00044 	addi	r3,r2,1
  420918:	d8800115 	stw	r2,4(sp)
  42091c:	008010f4 	movhi	r2,67
  420920:	1082ee04 	addi	r2,r2,3000
  420924:	d8800215 	stw	r2,8(sp)
  420928:	00800044 	movi	r2,1
  42092c:	d8800315 	stw	r2,12(sp)
  420930:	00800084 	movi	r2,2
  420934:	dc400015 	stw	r17,0(sp)
  420938:	d8c00615 	stw	r3,24(sp)
  42093c:	dec00415 	stw	sp,16(sp)
  420940:	d8800515 	stw	r2,20(sp)
  420944:	80000226 	beq	r16,zero,420950 <_puts_r+0x5c>
  420948:	80800e17 	ldw	r2,56(r16)
  42094c:	10001426 	beq	r2,zero,4209a0 <_puts_r+0xac>
  420950:	81400217 	ldw	r5,8(r16)
  420954:	2880030b 	ldhu	r2,12(r5)
  420958:	10c8000c 	andi	r3,r2,8192
  42095c:	1800061e 	bne	r3,zero,420978 <_puts_r+0x84>
  420960:	29001917 	ldw	r4,100(r5)
  420964:	00f7ffc4 	movi	r3,-8193
  420968:	10880014 	ori	r2,r2,8192
  42096c:	20c6703a 	and	r3,r4,r3
  420970:	2880030d 	sth	r2,12(r5)
  420974:	28c01915 	stw	r3,100(r5)
  420978:	d9800404 	addi	r6,sp,16
  42097c:	8009883a 	mov	r4,r16
  420980:	04252a40 	call	4252a4 <__sfvwrite_r>
  420984:	1000091e 	bne	r2,zero,4209ac <_puts_r+0xb8>
  420988:	00800284 	movi	r2,10
  42098c:	dfc00917 	ldw	ra,36(sp)
  420990:	dc400817 	ldw	r17,32(sp)
  420994:	dc000717 	ldw	r16,28(sp)
  420998:	dec00a04 	addi	sp,sp,40
  42099c:	f800283a 	ret
  4209a0:	8009883a 	mov	r4,r16
  4209a4:	0424e200 	call	424e20 <__sinit>
  4209a8:	003fe906 	br	420950 <__alt_mem_sdram+0xf8420950>
  4209ac:	00bfffc4 	movi	r2,-1
  4209b0:	003ff606 	br	42098c <__alt_mem_sdram+0xf842098c>

004209b4 <puts>:
  4209b4:	008010f4 	movhi	r2,67
  4209b8:	108a5a04 	addi	r2,r2,10600
  4209bc:	200b883a 	mov	r5,r4
  4209c0:	11000017 	ldw	r4,0(r2)
  4209c4:	04208f41 	jmpi	4208f4 <_puts_r>

004209c8 <strlen>:
  4209c8:	208000cc 	andi	r2,r4,3
  4209cc:	10002026 	beq	r2,zero,420a50 <strlen+0x88>
  4209d0:	20800007 	ldb	r2,0(r4)
  4209d4:	10002026 	beq	r2,zero,420a58 <strlen+0x90>
  4209d8:	2005883a 	mov	r2,r4
  4209dc:	00000206 	br	4209e8 <strlen+0x20>
  4209e0:	10c00007 	ldb	r3,0(r2)
  4209e4:	18001826 	beq	r3,zero,420a48 <strlen+0x80>
  4209e8:	10800044 	addi	r2,r2,1
  4209ec:	10c000cc 	andi	r3,r2,3
  4209f0:	183ffb1e 	bne	r3,zero,4209e0 <__alt_mem_sdram+0xf84209e0>
  4209f4:	10c00017 	ldw	r3,0(r2)
  4209f8:	01ffbff4 	movhi	r7,65279
  4209fc:	39ffbfc4 	addi	r7,r7,-257
  420a00:	00ca303a 	nor	r5,zero,r3
  420a04:	01a02074 	movhi	r6,32897
  420a08:	19c7883a 	add	r3,r3,r7
  420a0c:	31a02004 	addi	r6,r6,-32640
  420a10:	1946703a 	and	r3,r3,r5
  420a14:	1986703a 	and	r3,r3,r6
  420a18:	1800091e 	bne	r3,zero,420a40 <strlen+0x78>
  420a1c:	10800104 	addi	r2,r2,4
  420a20:	10c00017 	ldw	r3,0(r2)
  420a24:	19cb883a 	add	r5,r3,r7
  420a28:	00c6303a 	nor	r3,zero,r3
  420a2c:	28c6703a 	and	r3,r5,r3
  420a30:	1986703a 	and	r3,r3,r6
  420a34:	183ff926 	beq	r3,zero,420a1c <__alt_mem_sdram+0xf8420a1c>
  420a38:	00000106 	br	420a40 <strlen+0x78>
  420a3c:	10800044 	addi	r2,r2,1
  420a40:	10c00007 	ldb	r3,0(r2)
  420a44:	183ffd1e 	bne	r3,zero,420a3c <__alt_mem_sdram+0xf8420a3c>
  420a48:	1105c83a 	sub	r2,r2,r4
  420a4c:	f800283a 	ret
  420a50:	2005883a 	mov	r2,r4
  420a54:	003fe706 	br	4209f4 <__alt_mem_sdram+0xf84209f4>
  420a58:	0005883a 	mov	r2,zero
  420a5c:	f800283a 	ret

00420a60 <___vfprintf_internal_r>:
  420a60:	deffb804 	addi	sp,sp,-288
  420a64:	dfc04715 	stw	ra,284(sp)
  420a68:	ddc04515 	stw	r23,276(sp)
  420a6c:	dd404315 	stw	r21,268(sp)
  420a70:	d9002d15 	stw	r4,180(sp)
  420a74:	282f883a 	mov	r23,r5
  420a78:	302b883a 	mov	r21,r6
  420a7c:	d9c02e15 	stw	r7,184(sp)
  420a80:	df004615 	stw	fp,280(sp)
  420a84:	dd804415 	stw	r22,272(sp)
  420a88:	dd004215 	stw	r20,264(sp)
  420a8c:	dcc04115 	stw	r19,260(sp)
  420a90:	dc804015 	stw	r18,256(sp)
  420a94:	dc403f15 	stw	r17,252(sp)
  420a98:	dc003e15 	stw	r16,248(sp)
  420a9c:	04259a00 	call	4259a0 <_localeconv_r>
  420aa0:	10800017 	ldw	r2,0(r2)
  420aa4:	1009883a 	mov	r4,r2
  420aa8:	d8803415 	stw	r2,208(sp)
  420aac:	04209c80 	call	4209c8 <strlen>
  420ab0:	d8803715 	stw	r2,220(sp)
  420ab4:	d8802d17 	ldw	r2,180(sp)
  420ab8:	10000226 	beq	r2,zero,420ac4 <___vfprintf_internal_r+0x64>
  420abc:	10800e17 	ldw	r2,56(r2)
  420ac0:	1000fb26 	beq	r2,zero,420eb0 <___vfprintf_internal_r+0x450>
  420ac4:	b880030b 	ldhu	r2,12(r23)
  420ac8:	10c8000c 	andi	r3,r2,8192
  420acc:	1800061e 	bne	r3,zero,420ae8 <___vfprintf_internal_r+0x88>
  420ad0:	b9001917 	ldw	r4,100(r23)
  420ad4:	00f7ffc4 	movi	r3,-8193
  420ad8:	10880014 	ori	r2,r2,8192
  420adc:	20c6703a 	and	r3,r4,r3
  420ae0:	b880030d 	sth	r2,12(r23)
  420ae4:	b8c01915 	stw	r3,100(r23)
  420ae8:	10c0020c 	andi	r3,r2,8
  420aec:	1800c326 	beq	r3,zero,420dfc <___vfprintf_internal_r+0x39c>
  420af0:	b8c00417 	ldw	r3,16(r23)
  420af4:	1800c126 	beq	r3,zero,420dfc <___vfprintf_internal_r+0x39c>
  420af8:	1080068c 	andi	r2,r2,26
  420afc:	00c00284 	movi	r3,10
  420b00:	10c0c626 	beq	r2,r3,420e1c <___vfprintf_internal_r+0x3bc>
  420b04:	d8c00404 	addi	r3,sp,16
  420b08:	050010f4 	movhi	r20,67
  420b0c:	d9001e04 	addi	r4,sp,120
  420b10:	a502ff84 	addi	r20,r20,3070
  420b14:	d8c01e15 	stw	r3,120(sp)
  420b18:	d8002015 	stw	zero,128(sp)
  420b1c:	d8001f15 	stw	zero,124(sp)
  420b20:	d8003315 	stw	zero,204(sp)
  420b24:	d8003615 	stw	zero,216(sp)
  420b28:	d8003815 	stw	zero,224(sp)
  420b2c:	1811883a 	mov	r8,r3
  420b30:	d8003915 	stw	zero,228(sp)
  420b34:	d8003a15 	stw	zero,232(sp)
  420b38:	d8002f15 	stw	zero,188(sp)
  420b3c:	d9002815 	stw	r4,160(sp)
  420b40:	a8800007 	ldb	r2,0(r21)
  420b44:	10028b26 	beq	r2,zero,421574 <___vfprintf_internal_r+0xb14>
  420b48:	00c00944 	movi	r3,37
  420b4c:	a823883a 	mov	r17,r21
  420b50:	10c0021e 	bne	r2,r3,420b5c <___vfprintf_internal_r+0xfc>
  420b54:	00001406 	br	420ba8 <___vfprintf_internal_r+0x148>
  420b58:	10c00326 	beq	r2,r3,420b68 <___vfprintf_internal_r+0x108>
  420b5c:	8c400044 	addi	r17,r17,1
  420b60:	88800007 	ldb	r2,0(r17)
  420b64:	103ffc1e 	bne	r2,zero,420b58 <__alt_mem_sdram+0xf8420b58>
  420b68:	8d61c83a 	sub	r16,r17,r21
  420b6c:	80000e26 	beq	r16,zero,420ba8 <___vfprintf_internal_r+0x148>
  420b70:	d8c02017 	ldw	r3,128(sp)
  420b74:	d8801f17 	ldw	r2,124(sp)
  420b78:	45400015 	stw	r21,0(r8)
  420b7c:	1c07883a 	add	r3,r3,r16
  420b80:	10800044 	addi	r2,r2,1
  420b84:	d8c02015 	stw	r3,128(sp)
  420b88:	44000115 	stw	r16,4(r8)
  420b8c:	d8801f15 	stw	r2,124(sp)
  420b90:	00c001c4 	movi	r3,7
  420b94:	1880a916 	blt	r3,r2,420e3c <___vfprintf_internal_r+0x3dc>
  420b98:	42000204 	addi	r8,r8,8
  420b9c:	d9402f17 	ldw	r5,188(sp)
  420ba0:	2c0b883a 	add	r5,r5,r16
  420ba4:	d9402f15 	stw	r5,188(sp)
  420ba8:	88800007 	ldb	r2,0(r17)
  420bac:	1000aa26 	beq	r2,zero,420e58 <___vfprintf_internal_r+0x3f8>
  420bb0:	8d400044 	addi	r21,r17,1
  420bb4:	8c400047 	ldb	r17,1(r17)
  420bb8:	0021883a 	mov	r16,zero
  420bbc:	00bfffc4 	movi	r2,-1
  420bc0:	0025883a 	mov	r18,zero
  420bc4:	dc002905 	stb	r16,164(sp)
  420bc8:	d8002785 	stb	zero,158(sp)
  420bcc:	d8002b05 	stb	zero,172(sp)
  420bd0:	d8802a15 	stw	r2,168(sp)
  420bd4:	d8003115 	stw	zero,196(sp)
  420bd8:	04c01604 	movi	r19,88
  420bdc:	05800244 	movi	r22,9
  420be0:	9021883a 	mov	r16,r18
  420be4:	4039883a 	mov	fp,r8
  420be8:	ad400044 	addi	r21,r21,1
  420bec:	88bff804 	addi	r2,r17,-32
  420bf0:	98833236 	bltu	r19,r2,4218bc <___vfprintf_internal_r+0xe5c>
  420bf4:	100490ba 	slli	r2,r2,2
  420bf8:	00c010b4 	movhi	r3,66
  420bfc:	18c30304 	addi	r3,r3,3084
  420c00:	10c5883a 	add	r2,r2,r3
  420c04:	10800017 	ldw	r2,0(r2)
  420c08:	1000683a 	jmp	r2
  420c0c:	004217b4 	movhi	at,2142
  420c10:	004218bc 	xorhi	at,zero,2146
  420c14:	004218bc 	xorhi	at,zero,2146
  420c18:	004217d4 	movui	at,2143
  420c1c:	004218bc 	xorhi	at,zero,2146
  420c20:	004218bc 	xorhi	at,zero,2146
  420c24:	004218bc 	xorhi	at,zero,2146
  420c28:	004218bc 	xorhi	at,zero,2146
  420c2c:	004218bc 	xorhi	at,zero,2146
  420c30:	004218bc 	xorhi	at,zero,2146
  420c34:	00420ebc 	xorhi	at,zero,2106
  420c38:	004216c4 	movi	at,2139
  420c3c:	004218bc 	xorhi	at,zero,2146
  420c40:	00420d80 	call	420d8 <__alt_mem_nios2_onchip_mem-0x3ddf28>
  420c44:	00420ee0 	cmpeqi	at,zero,2107
  420c48:	004218bc 	xorhi	at,zero,2146
  420c4c:	00420f30 	cmpltui	at,zero,2108
  420c50:	00420f3c 	xorhi	at,zero,2108
  420c54:	00420f3c 	xorhi	at,zero,2108
  420c58:	00420f3c 	xorhi	at,zero,2108
  420c5c:	00420f3c 	xorhi	at,zero,2108
  420c60:	00420f3c 	xorhi	at,zero,2108
  420c64:	00420f3c 	xorhi	at,zero,2108
  420c68:	00420f3c 	xorhi	at,zero,2108
  420c6c:	00420f3c 	xorhi	at,zero,2108
  420c70:	00420f3c 	xorhi	at,zero,2108
  420c74:	004218bc 	xorhi	at,zero,2146
  420c78:	004218bc 	xorhi	at,zero,2146
  420c7c:	004218bc 	xorhi	at,zero,2146
  420c80:	004218bc 	xorhi	at,zero,2146
  420c84:	004218bc 	xorhi	at,zero,2146
  420c88:	004218bc 	xorhi	at,zero,2146
  420c8c:	004218bc 	xorhi	at,zero,2146
  420c90:	004218bc 	xorhi	at,zero,2146
  420c94:	004218bc 	xorhi	at,zero,2146
  420c98:	004218bc 	xorhi	at,zero,2146
  420c9c:	00420f78 	rdprs	at,zero,2109
  420ca0:	00421040 	call	42104 <__alt_mem_nios2_onchip_mem-0x3ddefc>
  420ca4:	004218bc 	xorhi	at,zero,2146
  420ca8:	00421040 	call	42104 <__alt_mem_nios2_onchip_mem-0x3ddefc>
  420cac:	004218bc 	xorhi	at,zero,2146
  420cb0:	004218bc 	xorhi	at,zero,2146
  420cb4:	004218bc 	xorhi	at,zero,2146
  420cb8:	004218bc 	xorhi	at,zero,2146
  420cbc:	004210ec 	andhi	at,zero,2115
  420cc0:	004218bc 	xorhi	at,zero,2146
  420cc4:	004218bc 	xorhi	at,zero,2146
  420cc8:	004210f8 	rdprs	at,zero,2115
  420ccc:	004218bc 	xorhi	at,zero,2146
  420cd0:	004218bc 	xorhi	at,zero,2146
  420cd4:	004218bc 	xorhi	at,zero,2146
  420cd8:	004218bc 	xorhi	at,zero,2146
  420cdc:	004218bc 	xorhi	at,zero,2146
  420ce0:	0042157c 	xorhi	at,zero,2133
  420ce4:	004218bc 	xorhi	at,zero,2146
  420ce8:	004218bc 	xorhi	at,zero,2146
  420cec:	004215e8 	cmpgeui	at,zero,2135
  420cf0:	004218bc 	xorhi	at,zero,2146
  420cf4:	004218bc 	xorhi	at,zero,2146
  420cf8:	004218bc 	xorhi	at,zero,2146
  420cfc:	004218bc 	xorhi	at,zero,2146
  420d00:	004218bc 	xorhi	at,zero,2146
  420d04:	004218bc 	xorhi	at,zero,2146
  420d08:	004218bc 	xorhi	at,zero,2146
  420d0c:	004218bc 	xorhi	at,zero,2146
  420d10:	004218bc 	xorhi	at,zero,2146
  420d14:	004218bc 	xorhi	at,zero,2146
  420d18:	00421860 	cmpeqi	at,zero,2145
  420d1c:	004217e0 	cmpeqi	at,zero,2143
  420d20:	00421040 	call	42104 <__alt_mem_nios2_onchip_mem-0x3ddefc>
  420d24:	00421040 	call	42104 <__alt_mem_nios2_onchip_mem-0x3ddefc>
  420d28:	00421040 	call	42104 <__alt_mem_nios2_onchip_mem-0x3ddefc>
  420d2c:	00421800 	call	42180 <__alt_mem_nios2_onchip_mem-0x3dde80>
  420d30:	004217e0 	cmpeqi	at,zero,2143
  420d34:	004218bc 	xorhi	at,zero,2146
  420d38:	004218bc 	xorhi	at,zero,2146
  420d3c:	0042180c 	andi	at,zero,2144
  420d40:	004218bc 	xorhi	at,zero,2146
  420d44:	00421820 	cmpeqi	at,zero,2144
  420d48:	004216a4 	muli	at,zero,2138
  420d4c:	00420d8c 	andi	at,zero,2102
  420d50:	004216dc 	xori	at,zero,2139
  420d54:	004218bc 	xorhi	at,zero,2146
  420d58:	004216e8 	cmpgeui	at,zero,2139
  420d5c:	004218bc 	xorhi	at,zero,2146
  420d60:	0042174c 	andi	at,zero,2141
  420d64:	004218bc 	xorhi	at,zero,2146
  420d68:	004218bc 	xorhi	at,zero,2146
  420d6c:	0042176c 	andhi	at,zero,2141
  420d70:	d8c03117 	ldw	r3,196(sp)
  420d74:	d8802e15 	stw	r2,184(sp)
  420d78:	00c7c83a 	sub	r3,zero,r3
  420d7c:	d8c03115 	stw	r3,196(sp)
  420d80:	84000114 	ori	r16,r16,4
  420d84:	ac400007 	ldb	r17,0(r21)
  420d88:	003f9706 	br	420be8 <__alt_mem_sdram+0xf8420be8>
  420d8c:	00800c04 	movi	r2,48
  420d90:	d8802705 	stb	r2,156(sp)
  420d94:	00801e04 	movi	r2,120
  420d98:	d8802745 	stb	r2,157(sp)
  420d9c:	d9002a17 	ldw	r4,168(sp)
  420da0:	d8802e17 	ldw	r2,184(sp)
  420da4:	d8002785 	stb	zero,158(sp)
  420da8:	e011883a 	mov	r8,fp
  420dac:	10c00104 	addi	r3,r2,4
  420db0:	14c00017 	ldw	r19,0(r2)
  420db4:	002d883a 	mov	r22,zero
  420db8:	80800094 	ori	r2,r16,2
  420dbc:	2002ca16 	blt	r4,zero,4218e8 <___vfprintf_internal_r+0xe88>
  420dc0:	00bfdfc4 	movi	r2,-129
  420dc4:	80a4703a 	and	r18,r16,r2
  420dc8:	d8c02e15 	stw	r3,184(sp)
  420dcc:	94800094 	ori	r18,r18,2
  420dd0:	9802b41e 	bne	r19,zero,4218a4 <___vfprintf_internal_r+0xe44>
  420dd4:	014010f4 	movhi	r5,67
  420dd8:	2942f804 	addi	r5,r5,3040
  420ddc:	d9403915 	stw	r5,228(sp)
  420de0:	04401e04 	movi	r17,120
  420de4:	d8802a17 	ldw	r2,168(sp)
  420de8:	0039883a 	mov	fp,zero
  420dec:	1001fa26 	beq	r2,zero,4215d8 <___vfprintf_internal_r+0xb78>
  420df0:	0027883a 	mov	r19,zero
  420df4:	002d883a 	mov	r22,zero
  420df8:	00021906 	br	421660 <___vfprintf_internal_r+0xc00>
  420dfc:	d9002d17 	ldw	r4,180(sp)
  420e00:	b80b883a 	mov	r5,r23
  420e04:	0422e140 	call	422e14 <__swsetup_r>
  420e08:	1005dc1e 	bne	r2,zero,42257c <___vfprintf_internal_r+0x1b1c>
  420e0c:	b880030b 	ldhu	r2,12(r23)
  420e10:	00c00284 	movi	r3,10
  420e14:	1080068c 	andi	r2,r2,26
  420e18:	10ff3a1e 	bne	r2,r3,420b04 <__alt_mem_sdram+0xf8420b04>
  420e1c:	b880038f 	ldh	r2,14(r23)
  420e20:	103f3816 	blt	r2,zero,420b04 <__alt_mem_sdram+0xf8420b04>
  420e24:	d9c02e17 	ldw	r7,184(sp)
  420e28:	d9002d17 	ldw	r4,180(sp)
  420e2c:	a80d883a 	mov	r6,r21
  420e30:	b80b883a 	mov	r5,r23
  420e34:	0422d580 	call	422d58 <__sbprintf>
  420e38:	00001106 	br	420e80 <___vfprintf_internal_r+0x420>
  420e3c:	d9002d17 	ldw	r4,180(sp)
  420e40:	d9801e04 	addi	r6,sp,120
  420e44:	b80b883a 	mov	r5,r23
  420e48:	04282400 	call	428240 <__sprint_r>
  420e4c:	1000081e 	bne	r2,zero,420e70 <___vfprintf_internal_r+0x410>
  420e50:	da000404 	addi	r8,sp,16
  420e54:	003f5106 	br	420b9c <__alt_mem_sdram+0xf8420b9c>
  420e58:	d8802017 	ldw	r2,128(sp)
  420e5c:	10000426 	beq	r2,zero,420e70 <___vfprintf_internal_r+0x410>
  420e60:	d9002d17 	ldw	r4,180(sp)
  420e64:	d9801e04 	addi	r6,sp,120
  420e68:	b80b883a 	mov	r5,r23
  420e6c:	04282400 	call	428240 <__sprint_r>
  420e70:	b880030b 	ldhu	r2,12(r23)
  420e74:	1080100c 	andi	r2,r2,64
  420e78:	1005c01e 	bne	r2,zero,42257c <___vfprintf_internal_r+0x1b1c>
  420e7c:	d8802f17 	ldw	r2,188(sp)
  420e80:	dfc04717 	ldw	ra,284(sp)
  420e84:	df004617 	ldw	fp,280(sp)
  420e88:	ddc04517 	ldw	r23,276(sp)
  420e8c:	dd804417 	ldw	r22,272(sp)
  420e90:	dd404317 	ldw	r21,268(sp)
  420e94:	dd004217 	ldw	r20,264(sp)
  420e98:	dcc04117 	ldw	r19,260(sp)
  420e9c:	dc804017 	ldw	r18,256(sp)
  420ea0:	dc403f17 	ldw	r17,252(sp)
  420ea4:	dc003e17 	ldw	r16,248(sp)
  420ea8:	dec04804 	addi	sp,sp,288
  420eac:	f800283a 	ret
  420eb0:	d9002d17 	ldw	r4,180(sp)
  420eb4:	0424e200 	call	424e20 <__sinit>
  420eb8:	003f0206 	br	420ac4 <__alt_mem_sdram+0xf8420ac4>
  420ebc:	d9002e17 	ldw	r4,184(sp)
  420ec0:	d9402e17 	ldw	r5,184(sp)
  420ec4:	21000017 	ldw	r4,0(r4)
  420ec8:	28800104 	addi	r2,r5,4
  420ecc:	d9003115 	stw	r4,196(sp)
  420ed0:	203fa716 	blt	r4,zero,420d70 <__alt_mem_sdram+0xf8420d70>
  420ed4:	d8802e15 	stw	r2,184(sp)
  420ed8:	ac400007 	ldb	r17,0(r21)
  420edc:	003f4206 	br	420be8 <__alt_mem_sdram+0xf8420be8>
  420ee0:	ac400007 	ldb	r17,0(r21)
  420ee4:	01000a84 	movi	r4,42
  420ee8:	a8c00044 	addi	r3,r21,1
  420eec:	89075826 	beq	r17,r4,422c50 <___vfprintf_internal_r+0x21f0>
  420ef0:	8cbff404 	addi	r18,r17,-48
  420ef4:	b486ae36 	bltu	r22,r18,4229b0 <___vfprintf_internal_r+0x1f50>
  420ef8:	0009883a 	mov	r4,zero
  420efc:	1823883a 	mov	r17,r3
  420f00:	01400284 	movi	r5,10
  420f04:	04208600 	call	420860 <__mulsi3>
  420f08:	88c00007 	ldb	r3,0(r17)
  420f0c:	1489883a 	add	r4,r2,r18
  420f10:	8d400044 	addi	r21,r17,1
  420f14:	1cbff404 	addi	r18,r3,-48
  420f18:	a823883a 	mov	r17,r21
  420f1c:	b4bff82e 	bgeu	r22,r18,420f00 <__alt_mem_sdram+0xf8420f00>
  420f20:	1823883a 	mov	r17,r3
  420f24:	2005f616 	blt	r4,zero,422700 <___vfprintf_internal_r+0x1ca0>
  420f28:	d9002a15 	stw	r4,168(sp)
  420f2c:	003f2f06 	br	420bec <__alt_mem_sdram+0xf8420bec>
  420f30:	84002014 	ori	r16,r16,128
  420f34:	ac400007 	ldb	r17,0(r21)
  420f38:	003f2b06 	br	420be8 <__alt_mem_sdram+0xf8420be8>
  420f3c:	8cbff404 	addi	r18,r17,-48
  420f40:	d8003115 	stw	zero,196(sp)
  420f44:	0009883a 	mov	r4,zero
  420f48:	a823883a 	mov	r17,r21
  420f4c:	01400284 	movi	r5,10
  420f50:	04208600 	call	420860 <__mulsi3>
  420f54:	88c00007 	ldb	r3,0(r17)
  420f58:	9089883a 	add	r4,r18,r2
  420f5c:	ad400044 	addi	r21,r21,1
  420f60:	1cbff404 	addi	r18,r3,-48
  420f64:	a823883a 	mov	r17,r21
  420f68:	b4bff82e 	bgeu	r22,r18,420f4c <__alt_mem_sdram+0xf8420f4c>
  420f6c:	1823883a 	mov	r17,r3
  420f70:	d9003115 	stw	r4,196(sp)
  420f74:	003f1d06 	br	420bec <__alt_mem_sdram+0xf8420bec>
  420f78:	8025883a 	mov	r18,r16
  420f7c:	dc002903 	ldbu	r16,164(sp)
  420f80:	e011883a 	mov	r8,fp
  420f84:	84003fcc 	andi	r16,r16,255
  420f88:	8007531e 	bne	r16,zero,422cd8 <___vfprintf_internal_r+0x2278>
  420f8c:	94800414 	ori	r18,r18,16
  420f90:	9080080c 	andi	r2,r18,32
  420f94:	1003a326 	beq	r2,zero,421e24 <___vfprintf_internal_r+0x13c4>
  420f98:	d9002e17 	ldw	r4,184(sp)
  420f9c:	20800117 	ldw	r2,4(r4)
  420fa0:	24c00017 	ldw	r19,0(r4)
  420fa4:	21000204 	addi	r4,r4,8
  420fa8:	d9002e15 	stw	r4,184(sp)
  420fac:	102d883a 	mov	r22,r2
  420fb0:	10047316 	blt	r2,zero,422180 <___vfprintf_internal_r+0x1720>
  420fb4:	d9002a17 	ldw	r4,168(sp)
  420fb8:	df002783 	ldbu	fp,158(sp)
  420fbc:	2003e416 	blt	r4,zero,421f50 <___vfprintf_internal_r+0x14f0>
  420fc0:	00ffdfc4 	movi	r3,-129
  420fc4:	9d84b03a 	or	r2,r19,r22
  420fc8:	90e4703a 	and	r18,r18,r3
  420fcc:	10018026 	beq	r2,zero,4215d0 <___vfprintf_internal_r+0xb70>
  420fd0:	b003ab26 	beq	r22,zero,421e80 <___vfprintf_internal_r+0x1420>
  420fd4:	dc402915 	stw	r17,164(sp)
  420fd8:	dc001e04 	addi	r16,sp,120
  420fdc:	b023883a 	mov	r17,r22
  420fe0:	402d883a 	mov	r22,r8
  420fe4:	9809883a 	mov	r4,r19
  420fe8:	880b883a 	mov	r5,r17
  420fec:	01800284 	movi	r6,10
  420ff0:	000f883a 	mov	r7,zero
  420ff4:	042a7840 	call	42a784 <__umoddi3>
  420ff8:	10800c04 	addi	r2,r2,48
  420ffc:	843fffc4 	addi	r16,r16,-1
  421000:	9809883a 	mov	r4,r19
  421004:	880b883a 	mov	r5,r17
  421008:	80800005 	stb	r2,0(r16)
  42100c:	01800284 	movi	r6,10
  421010:	000f883a 	mov	r7,zero
  421014:	042a1880 	call	42a188 <__udivdi3>
  421018:	1027883a 	mov	r19,r2
  42101c:	10c4b03a 	or	r2,r2,r3
  421020:	1823883a 	mov	r17,r3
  421024:	103fef1e 	bne	r2,zero,420fe4 <__alt_mem_sdram+0xf8420fe4>
  421028:	d8c02817 	ldw	r3,160(sp)
  42102c:	dc402917 	ldw	r17,164(sp)
  421030:	b011883a 	mov	r8,r22
  421034:	1c07c83a 	sub	r3,r3,r16
  421038:	d8c02b15 	stw	r3,172(sp)
  42103c:	00005f06 	br	4211bc <___vfprintf_internal_r+0x75c>
  421040:	8025883a 	mov	r18,r16
  421044:	dc002903 	ldbu	r16,164(sp)
  421048:	e011883a 	mov	r8,fp
  42104c:	84003fcc 	andi	r16,r16,255
  421050:	80071e1e 	bne	r16,zero,422ccc <___vfprintf_internal_r+0x226c>
  421054:	9080020c 	andi	r2,r18,8
  421058:	1004af26 	beq	r2,zero,422318 <___vfprintf_internal_r+0x18b8>
  42105c:	d9002e17 	ldw	r4,184(sp)
  421060:	d9402e17 	ldw	r5,184(sp)
  421064:	d8802e17 	ldw	r2,184(sp)
  421068:	21000017 	ldw	r4,0(r4)
  42106c:	29400117 	ldw	r5,4(r5)
  421070:	10800204 	addi	r2,r2,8
  421074:	d9003615 	stw	r4,216(sp)
  421078:	d9403815 	stw	r5,224(sp)
  42107c:	d8802e15 	stw	r2,184(sp)
  421080:	d9003617 	ldw	r4,216(sp)
  421084:	d9403817 	ldw	r5,224(sp)
  421088:	da003d15 	stw	r8,244(sp)
  42108c:	04000044 	movi	r16,1
  421090:	0427e640 	call	427e64 <__fpclassifyd>
  421094:	da003d17 	ldw	r8,244(sp)
  421098:	1404441e 	bne	r2,r16,4221ac <___vfprintf_internal_r+0x174c>
  42109c:	d9003617 	ldw	r4,216(sp)
  4210a0:	d9403817 	ldw	r5,224(sp)
  4210a4:	000d883a 	mov	r6,zero
  4210a8:	000f883a 	mov	r7,zero
  4210ac:	042c2dc0 	call	42c2dc <__ledf2>
  4210b0:	da003d17 	ldw	r8,244(sp)
  4210b4:	1005e316 	blt	r2,zero,422844 <___vfprintf_internal_r+0x1de4>
  4210b8:	df002783 	ldbu	fp,158(sp)
  4210bc:	008011c4 	movi	r2,71
  4210c0:	1445580e 	bge	r2,r17,422624 <___vfprintf_internal_r+0x1bc4>
  4210c4:	040010f4 	movhi	r16,67
  4210c8:	8402f004 	addi	r16,r16,3008
  4210cc:	00c000c4 	movi	r3,3
  4210d0:	00bfdfc4 	movi	r2,-129
  4210d4:	d8c02915 	stw	r3,164(sp)
  4210d8:	90a4703a 	and	r18,r18,r2
  4210dc:	d8c02b15 	stw	r3,172(sp)
  4210e0:	d8002a15 	stw	zero,168(sp)
  4210e4:	d8003215 	stw	zero,200(sp)
  4210e8:	00003a06 	br	4211d4 <___vfprintf_internal_r+0x774>
  4210ec:	84000214 	ori	r16,r16,8
  4210f0:	ac400007 	ldb	r17,0(r21)
  4210f4:	003ebc06 	br	420be8 <__alt_mem_sdram+0xf8420be8>
  4210f8:	8025883a 	mov	r18,r16
  4210fc:	dc002903 	ldbu	r16,164(sp)
  421100:	e011883a 	mov	r8,fp
  421104:	84003fcc 	andi	r16,r16,255
  421108:	8007001e 	bne	r16,zero,422d0c <___vfprintf_internal_r+0x22ac>
  42110c:	94800414 	ori	r18,r18,16
  421110:	9080080c 	andi	r2,r18,32
  421114:	1002fa26 	beq	r2,zero,421d00 <___vfprintf_internal_r+0x12a0>
  421118:	d9002e17 	ldw	r4,184(sp)
  42111c:	d9402a17 	ldw	r5,168(sp)
  421120:	d8002785 	stb	zero,158(sp)
  421124:	20800204 	addi	r2,r4,8
  421128:	24c00017 	ldw	r19,0(r4)
  42112c:	25800117 	ldw	r22,4(r4)
  421130:	2804b116 	blt	r5,zero,4223f8 <___vfprintf_internal_r+0x1998>
  421134:	013fdfc4 	movi	r4,-129
  421138:	9d86b03a 	or	r3,r19,r22
  42113c:	d8802e15 	stw	r2,184(sp)
  421140:	9124703a 	and	r18,r18,r4
  421144:	1802fb1e 	bne	r3,zero,421d34 <___vfprintf_internal_r+0x12d4>
  421148:	d8c02a17 	ldw	r3,168(sp)
  42114c:	0039883a 	mov	fp,zero
  421150:	1805e526 	beq	r3,zero,4228e8 <___vfprintf_internal_r+0x1e88>
  421154:	0027883a 	mov	r19,zero
  421158:	002d883a 	mov	r22,zero
  42115c:	dc001e04 	addi	r16,sp,120
  421160:	9806d0fa 	srli	r3,r19,3
  421164:	b008977a 	slli	r4,r22,29
  421168:	b02cd0fa 	srli	r22,r22,3
  42116c:	9cc001cc 	andi	r19,r19,7
  421170:	98800c04 	addi	r2,r19,48
  421174:	843fffc4 	addi	r16,r16,-1
  421178:	20e6b03a 	or	r19,r4,r3
  42117c:	80800005 	stb	r2,0(r16)
  421180:	9d86b03a 	or	r3,r19,r22
  421184:	183ff61e 	bne	r3,zero,421160 <__alt_mem_sdram+0xf8421160>
  421188:	90c0004c 	andi	r3,r18,1
  42118c:	18014126 	beq	r3,zero,421694 <___vfprintf_internal_r+0xc34>
  421190:	10803fcc 	andi	r2,r2,255
  421194:	1080201c 	xori	r2,r2,128
  421198:	10bfe004 	addi	r2,r2,-128
  42119c:	00c00c04 	movi	r3,48
  4211a0:	10c13c26 	beq	r2,r3,421694 <___vfprintf_internal_r+0xc34>
  4211a4:	80ffffc5 	stb	r3,-1(r16)
  4211a8:	d8c02817 	ldw	r3,160(sp)
  4211ac:	80bfffc4 	addi	r2,r16,-1
  4211b0:	1021883a 	mov	r16,r2
  4211b4:	1887c83a 	sub	r3,r3,r2
  4211b8:	d8c02b15 	stw	r3,172(sp)
  4211bc:	d8802b17 	ldw	r2,172(sp)
  4211c0:	d9002a17 	ldw	r4,168(sp)
  4211c4:	1100010e 	bge	r2,r4,4211cc <___vfprintf_internal_r+0x76c>
  4211c8:	2005883a 	mov	r2,r4
  4211cc:	d8802915 	stw	r2,164(sp)
  4211d0:	d8003215 	stw	zero,200(sp)
  4211d4:	e7003fcc 	andi	fp,fp,255
  4211d8:	e700201c 	xori	fp,fp,128
  4211dc:	e73fe004 	addi	fp,fp,-128
  4211e0:	e0000326 	beq	fp,zero,4211f0 <___vfprintf_internal_r+0x790>
  4211e4:	d8c02917 	ldw	r3,164(sp)
  4211e8:	18c00044 	addi	r3,r3,1
  4211ec:	d8c02915 	stw	r3,164(sp)
  4211f0:	90c0008c 	andi	r3,r18,2
  4211f4:	d8c02c15 	stw	r3,176(sp)
  4211f8:	18000326 	beq	r3,zero,421208 <___vfprintf_internal_r+0x7a8>
  4211fc:	d8c02917 	ldw	r3,164(sp)
  421200:	18c00084 	addi	r3,r3,2
  421204:	d8c02915 	stw	r3,164(sp)
  421208:	90c0210c 	andi	r3,r18,132
  42120c:	d8c03015 	stw	r3,192(sp)
  421210:	1801c51e 	bne	r3,zero,421928 <___vfprintf_internal_r+0xec8>
  421214:	d9003117 	ldw	r4,196(sp)
  421218:	d8c02917 	ldw	r3,164(sp)
  42121c:	20e7c83a 	sub	r19,r4,r3
  421220:	04c1c10e 	bge	zero,r19,421928 <___vfprintf_internal_r+0xec8>
  421224:	02400404 	movi	r9,16
  421228:	d8c02017 	ldw	r3,128(sp)
  42122c:	d8801f17 	ldw	r2,124(sp)
  421230:	4cc52f0e 	bge	r9,r19,4226f0 <___vfprintf_internal_r+0x1c90>
  421234:	014010f4 	movhi	r5,67
  421238:	29430384 	addi	r5,r5,3086
  42123c:	dc403b15 	stw	r17,236(sp)
  421240:	d9403515 	stw	r5,212(sp)
  421244:	9823883a 	mov	r17,r19
  421248:	482d883a 	mov	r22,r9
  42124c:	9027883a 	mov	r19,r18
  421250:	070001c4 	movi	fp,7
  421254:	8025883a 	mov	r18,r16
  421258:	dc002d17 	ldw	r16,180(sp)
  42125c:	00000306 	br	42126c <___vfprintf_internal_r+0x80c>
  421260:	8c7ffc04 	addi	r17,r17,-16
  421264:	42000204 	addi	r8,r8,8
  421268:	b440130e 	bge	r22,r17,4212b8 <___vfprintf_internal_r+0x858>
  42126c:	010010f4 	movhi	r4,67
  421270:	18c00404 	addi	r3,r3,16
  421274:	10800044 	addi	r2,r2,1
  421278:	21030384 	addi	r4,r4,3086
  42127c:	41000015 	stw	r4,0(r8)
  421280:	45800115 	stw	r22,4(r8)
  421284:	d8c02015 	stw	r3,128(sp)
  421288:	d8801f15 	stw	r2,124(sp)
  42128c:	e0bff40e 	bge	fp,r2,421260 <__alt_mem_sdram+0xf8421260>
  421290:	d9801e04 	addi	r6,sp,120
  421294:	b80b883a 	mov	r5,r23
  421298:	8009883a 	mov	r4,r16
  42129c:	04282400 	call	428240 <__sprint_r>
  4212a0:	103ef31e 	bne	r2,zero,420e70 <__alt_mem_sdram+0xf8420e70>
  4212a4:	8c7ffc04 	addi	r17,r17,-16
  4212a8:	d8c02017 	ldw	r3,128(sp)
  4212ac:	d8801f17 	ldw	r2,124(sp)
  4212b0:	da000404 	addi	r8,sp,16
  4212b4:	b47fed16 	blt	r22,r17,42126c <__alt_mem_sdram+0xf842126c>
  4212b8:	9021883a 	mov	r16,r18
  4212bc:	9825883a 	mov	r18,r19
  4212c0:	8827883a 	mov	r19,r17
  4212c4:	dc403b17 	ldw	r17,236(sp)
  4212c8:	d9403517 	ldw	r5,212(sp)
  4212cc:	98c7883a 	add	r3,r19,r3
  4212d0:	10800044 	addi	r2,r2,1
  4212d4:	41400015 	stw	r5,0(r8)
  4212d8:	44c00115 	stw	r19,4(r8)
  4212dc:	d8c02015 	stw	r3,128(sp)
  4212e0:	d8801f15 	stw	r2,124(sp)
  4212e4:	010001c4 	movi	r4,7
  4212e8:	2082c516 	blt	r4,r2,421e00 <___vfprintf_internal_r+0x13a0>
  4212ec:	df002787 	ldb	fp,158(sp)
  4212f0:	42000204 	addi	r8,r8,8
  4212f4:	e0000c26 	beq	fp,zero,421328 <___vfprintf_internal_r+0x8c8>
  4212f8:	d8801f17 	ldw	r2,124(sp)
  4212fc:	d9002784 	addi	r4,sp,158
  421300:	18c00044 	addi	r3,r3,1
  421304:	10800044 	addi	r2,r2,1
  421308:	41000015 	stw	r4,0(r8)
  42130c:	01000044 	movi	r4,1
  421310:	41000115 	stw	r4,4(r8)
  421314:	d8c02015 	stw	r3,128(sp)
  421318:	d8801f15 	stw	r2,124(sp)
  42131c:	010001c4 	movi	r4,7
  421320:	20825e16 	blt	r4,r2,421c9c <___vfprintf_internal_r+0x123c>
  421324:	42000204 	addi	r8,r8,8
  421328:	d8802c17 	ldw	r2,176(sp)
  42132c:	10000c26 	beq	r2,zero,421360 <___vfprintf_internal_r+0x900>
  421330:	d8801f17 	ldw	r2,124(sp)
  421334:	d9002704 	addi	r4,sp,156
  421338:	18c00084 	addi	r3,r3,2
  42133c:	10800044 	addi	r2,r2,1
  421340:	41000015 	stw	r4,0(r8)
  421344:	01000084 	movi	r4,2
  421348:	41000115 	stw	r4,4(r8)
  42134c:	d8c02015 	stw	r3,128(sp)
  421350:	d8801f15 	stw	r2,124(sp)
  421354:	010001c4 	movi	r4,7
  421358:	20825816 	blt	r4,r2,421cbc <___vfprintf_internal_r+0x125c>
  42135c:	42000204 	addi	r8,r8,8
  421360:	d9003017 	ldw	r4,192(sp)
  421364:	00802004 	movi	r2,128
  421368:	2081bb26 	beq	r4,r2,421a58 <___vfprintf_internal_r+0xff8>
  42136c:	d9402a17 	ldw	r5,168(sp)
  421370:	d8802b17 	ldw	r2,172(sp)
  421374:	28adc83a 	sub	r22,r5,r2
  421378:	0580310e 	bge	zero,r22,421440 <___vfprintf_internal_r+0x9e0>
  42137c:	07000404 	movi	fp,16
  421380:	d8801f17 	ldw	r2,124(sp)
  421384:	e584360e 	bge	fp,r22,422460 <___vfprintf_internal_r+0x1a00>
  421388:	014010f4 	movhi	r5,67
  42138c:	2942ff84 	addi	r5,r5,3070
  421390:	dc402a15 	stw	r17,168(sp)
  421394:	d9402c15 	stw	r5,176(sp)
  421398:	b023883a 	mov	r17,r22
  42139c:	04c001c4 	movi	r19,7
  4213a0:	a82d883a 	mov	r22,r21
  4213a4:	902b883a 	mov	r21,r18
  4213a8:	8025883a 	mov	r18,r16
  4213ac:	dc002d17 	ldw	r16,180(sp)
  4213b0:	00000306 	br	4213c0 <___vfprintf_internal_r+0x960>
  4213b4:	8c7ffc04 	addi	r17,r17,-16
  4213b8:	42000204 	addi	r8,r8,8
  4213bc:	e440110e 	bge	fp,r17,421404 <___vfprintf_internal_r+0x9a4>
  4213c0:	18c00404 	addi	r3,r3,16
  4213c4:	10800044 	addi	r2,r2,1
  4213c8:	45000015 	stw	r20,0(r8)
  4213cc:	47000115 	stw	fp,4(r8)
  4213d0:	d8c02015 	stw	r3,128(sp)
  4213d4:	d8801f15 	stw	r2,124(sp)
  4213d8:	98bff60e 	bge	r19,r2,4213b4 <__alt_mem_sdram+0xf84213b4>
  4213dc:	d9801e04 	addi	r6,sp,120
  4213e0:	b80b883a 	mov	r5,r23
  4213e4:	8009883a 	mov	r4,r16
  4213e8:	04282400 	call	428240 <__sprint_r>
  4213ec:	103ea01e 	bne	r2,zero,420e70 <__alt_mem_sdram+0xf8420e70>
  4213f0:	8c7ffc04 	addi	r17,r17,-16
  4213f4:	d8c02017 	ldw	r3,128(sp)
  4213f8:	d8801f17 	ldw	r2,124(sp)
  4213fc:	da000404 	addi	r8,sp,16
  421400:	e47fef16 	blt	fp,r17,4213c0 <__alt_mem_sdram+0xf84213c0>
  421404:	9021883a 	mov	r16,r18
  421408:	a825883a 	mov	r18,r21
  42140c:	b02b883a 	mov	r21,r22
  421410:	882d883a 	mov	r22,r17
  421414:	dc402a17 	ldw	r17,168(sp)
  421418:	d9002c17 	ldw	r4,176(sp)
  42141c:	1d87883a 	add	r3,r3,r22
  421420:	10800044 	addi	r2,r2,1
  421424:	41000015 	stw	r4,0(r8)
  421428:	45800115 	stw	r22,4(r8)
  42142c:	d8c02015 	stw	r3,128(sp)
  421430:	d8801f15 	stw	r2,124(sp)
  421434:	010001c4 	movi	r4,7
  421438:	20821016 	blt	r4,r2,421c7c <___vfprintf_internal_r+0x121c>
  42143c:	42000204 	addi	r8,r8,8
  421440:	9080400c 	andi	r2,r18,256
  421444:	10013a1e 	bne	r2,zero,421930 <___vfprintf_internal_r+0xed0>
  421448:	d9402b17 	ldw	r5,172(sp)
  42144c:	d8801f17 	ldw	r2,124(sp)
  421450:	44000015 	stw	r16,0(r8)
  421454:	1947883a 	add	r3,r3,r5
  421458:	10800044 	addi	r2,r2,1
  42145c:	41400115 	stw	r5,4(r8)
  421460:	d8c02015 	stw	r3,128(sp)
  421464:	d8801f15 	stw	r2,124(sp)
  421468:	010001c4 	movi	r4,7
  42146c:	2081f516 	blt	r4,r2,421c44 <___vfprintf_internal_r+0x11e4>
  421470:	42000204 	addi	r8,r8,8
  421474:	9480010c 	andi	r18,r18,4
  421478:	90003226 	beq	r18,zero,421544 <___vfprintf_internal_r+0xae4>
  42147c:	d9403117 	ldw	r5,196(sp)
  421480:	d8802917 	ldw	r2,164(sp)
  421484:	28a1c83a 	sub	r16,r5,r2
  421488:	04002e0e 	bge	zero,r16,421544 <___vfprintf_internal_r+0xae4>
  42148c:	04400404 	movi	r17,16
  421490:	d8801f17 	ldw	r2,124(sp)
  421494:	8c04c40e 	bge	r17,r16,4227a8 <___vfprintf_internal_r+0x1d48>
  421498:	014010f4 	movhi	r5,67
  42149c:	29430384 	addi	r5,r5,3086
  4214a0:	d9403515 	stw	r5,212(sp)
  4214a4:	048001c4 	movi	r18,7
  4214a8:	dcc02d17 	ldw	r19,180(sp)
  4214ac:	00000306 	br	4214bc <___vfprintf_internal_r+0xa5c>
  4214b0:	843ffc04 	addi	r16,r16,-16
  4214b4:	42000204 	addi	r8,r8,8
  4214b8:	8c00130e 	bge	r17,r16,421508 <___vfprintf_internal_r+0xaa8>
  4214bc:	010010f4 	movhi	r4,67
  4214c0:	18c00404 	addi	r3,r3,16
  4214c4:	10800044 	addi	r2,r2,1
  4214c8:	21030384 	addi	r4,r4,3086
  4214cc:	41000015 	stw	r4,0(r8)
  4214d0:	44400115 	stw	r17,4(r8)
  4214d4:	d8c02015 	stw	r3,128(sp)
  4214d8:	d8801f15 	stw	r2,124(sp)
  4214dc:	90bff40e 	bge	r18,r2,4214b0 <__alt_mem_sdram+0xf84214b0>
  4214e0:	d9801e04 	addi	r6,sp,120
  4214e4:	b80b883a 	mov	r5,r23
  4214e8:	9809883a 	mov	r4,r19
  4214ec:	04282400 	call	428240 <__sprint_r>
  4214f0:	103e5f1e 	bne	r2,zero,420e70 <__alt_mem_sdram+0xf8420e70>
  4214f4:	843ffc04 	addi	r16,r16,-16
  4214f8:	d8c02017 	ldw	r3,128(sp)
  4214fc:	d8801f17 	ldw	r2,124(sp)
  421500:	da000404 	addi	r8,sp,16
  421504:	8c3fed16 	blt	r17,r16,4214bc <__alt_mem_sdram+0xf84214bc>
  421508:	d9403517 	ldw	r5,212(sp)
  42150c:	1c07883a 	add	r3,r3,r16
  421510:	10800044 	addi	r2,r2,1
  421514:	41400015 	stw	r5,0(r8)
  421518:	44000115 	stw	r16,4(r8)
  42151c:	d8c02015 	stw	r3,128(sp)
  421520:	d8801f15 	stw	r2,124(sp)
  421524:	010001c4 	movi	r4,7
  421528:	2080060e 	bge	r4,r2,421544 <___vfprintf_internal_r+0xae4>
  42152c:	d9002d17 	ldw	r4,180(sp)
  421530:	d9801e04 	addi	r6,sp,120
  421534:	b80b883a 	mov	r5,r23
  421538:	04282400 	call	428240 <__sprint_r>
  42153c:	103e4c1e 	bne	r2,zero,420e70 <__alt_mem_sdram+0xf8420e70>
  421540:	d8c02017 	ldw	r3,128(sp)
  421544:	d8803117 	ldw	r2,196(sp)
  421548:	d9002917 	ldw	r4,164(sp)
  42154c:	1100010e 	bge	r2,r4,421554 <___vfprintf_internal_r+0xaf4>
  421550:	2005883a 	mov	r2,r4
  421554:	d9402f17 	ldw	r5,188(sp)
  421558:	288b883a 	add	r5,r5,r2
  42155c:	d9402f15 	stw	r5,188(sp)
  421560:	1801c01e 	bne	r3,zero,421c64 <___vfprintf_internal_r+0x1204>
  421564:	a8800007 	ldb	r2,0(r21)
  421568:	d8001f15 	stw	zero,124(sp)
  42156c:	da000404 	addi	r8,sp,16
  421570:	103d751e 	bne	r2,zero,420b48 <__alt_mem_sdram+0xf8420b48>
  421574:	a823883a 	mov	r17,r21
  421578:	003d8b06 	br	420ba8 <__alt_mem_sdram+0xf8420ba8>
  42157c:	8025883a 	mov	r18,r16
  421580:	dc002903 	ldbu	r16,164(sp)
  421584:	e011883a 	mov	r8,fp
  421588:	84003fcc 	andi	r16,r16,255
  42158c:	8005e51e 	bne	r16,zero,422d24 <___vfprintf_internal_r+0x22c4>
  421590:	94800414 	ori	r18,r18,16
  421594:	9080080c 	andi	r2,r18,32
  421598:	10022b26 	beq	r2,zero,421e48 <___vfprintf_internal_r+0x13e8>
  42159c:	d9002e17 	ldw	r4,184(sp)
  4215a0:	d9402a17 	ldw	r5,168(sp)
  4215a4:	d8002785 	stb	zero,158(sp)
  4215a8:	20c00204 	addi	r3,r4,8
  4215ac:	24c00017 	ldw	r19,0(r4)
  4215b0:	25800117 	ldw	r22,4(r4)
  4215b4:	28042e16 	blt	r5,zero,422670 <___vfprintf_internal_r+0x1c10>
  4215b8:	013fdfc4 	movi	r4,-129
  4215bc:	9d84b03a 	or	r2,r19,r22
  4215c0:	d8c02e15 	stw	r3,184(sp)
  4215c4:	9124703a 	and	r18,r18,r4
  4215c8:	0039883a 	mov	fp,zero
  4215cc:	103e801e 	bne	r2,zero,420fd0 <__alt_mem_sdram+0xf8420fd0>
  4215d0:	d9002a17 	ldw	r4,168(sp)
  4215d4:	2002e01e 	bne	r4,zero,422158 <___vfprintf_internal_r+0x16f8>
  4215d8:	d8002a15 	stw	zero,168(sp)
  4215dc:	d8002b15 	stw	zero,172(sp)
  4215e0:	dc001e04 	addi	r16,sp,120
  4215e4:	003ef506 	br	4211bc <__alt_mem_sdram+0xf84211bc>
  4215e8:	8025883a 	mov	r18,r16
  4215ec:	dc002903 	ldbu	r16,164(sp)
  4215f0:	e011883a 	mov	r8,fp
  4215f4:	84003fcc 	andi	r16,r16,255
  4215f8:	8005ba1e 	bne	r16,zero,422ce4 <___vfprintf_internal_r+0x2284>
  4215fc:	010010f4 	movhi	r4,67
  421600:	2102f304 	addi	r4,r4,3020
  421604:	d9003915 	stw	r4,228(sp)
  421608:	9080080c 	andi	r2,r18,32
  42160c:	10006126 	beq	r2,zero,421794 <___vfprintf_internal_r+0xd34>
  421610:	d9402e17 	ldw	r5,184(sp)
  421614:	2cc00017 	ldw	r19,0(r5)
  421618:	2d800117 	ldw	r22,4(r5)
  42161c:	29400204 	addi	r5,r5,8
  421620:	d9402e15 	stw	r5,184(sp)
  421624:	9080004c 	andi	r2,r18,1
  421628:	1001ac26 	beq	r2,zero,421cdc <___vfprintf_internal_r+0x127c>
  42162c:	9d84b03a 	or	r2,r19,r22
  421630:	10038526 	beq	r2,zero,422448 <___vfprintf_internal_r+0x19e8>
  421634:	d8c02a17 	ldw	r3,168(sp)
  421638:	00800c04 	movi	r2,48
  42163c:	d8802705 	stb	r2,156(sp)
  421640:	dc402745 	stb	r17,157(sp)
  421644:	d8002785 	stb	zero,158(sp)
  421648:	90800094 	ori	r2,r18,2
  42164c:	18047916 	blt	r3,zero,422834 <___vfprintf_internal_r+0x1dd4>
  421650:	00bfdfc4 	movi	r2,-129
  421654:	90a4703a 	and	r18,r18,r2
  421658:	94800094 	ori	r18,r18,2
  42165c:	0039883a 	mov	fp,zero
  421660:	d9003917 	ldw	r4,228(sp)
  421664:	dc001e04 	addi	r16,sp,120
  421668:	988003cc 	andi	r2,r19,15
  42166c:	b006973a 	slli	r3,r22,28
  421670:	2085883a 	add	r2,r4,r2
  421674:	9826d13a 	srli	r19,r19,4
  421678:	10800003 	ldbu	r2,0(r2)
  42167c:	b02cd13a 	srli	r22,r22,4
  421680:	843fffc4 	addi	r16,r16,-1
  421684:	1ce6b03a 	or	r19,r3,r19
  421688:	80800005 	stb	r2,0(r16)
  42168c:	9d84b03a 	or	r2,r19,r22
  421690:	103ff51e 	bne	r2,zero,421668 <__alt_mem_sdram+0xf8421668>
  421694:	d8c02817 	ldw	r3,160(sp)
  421698:	1c07c83a 	sub	r3,r3,r16
  42169c:	d8c02b15 	stw	r3,172(sp)
  4216a0:	003ec606 	br	4211bc <__alt_mem_sdram+0xf84211bc>
  4216a4:	8025883a 	mov	r18,r16
  4216a8:	dc002903 	ldbu	r16,164(sp)
  4216ac:	e011883a 	mov	r8,fp
  4216b0:	84003fcc 	andi	r16,r16,255
  4216b4:	803e9626 	beq	r16,zero,421110 <__alt_mem_sdram+0xf8421110>
  4216b8:	d8c02b03 	ldbu	r3,172(sp)
  4216bc:	d8c02785 	stb	r3,158(sp)
  4216c0:	003e9306 	br	421110 <__alt_mem_sdram+0xf8421110>
  4216c4:	00c00044 	movi	r3,1
  4216c8:	d8c02905 	stb	r3,164(sp)
  4216cc:	00c00ac4 	movi	r3,43
  4216d0:	d8c02b05 	stb	r3,172(sp)
  4216d4:	ac400007 	ldb	r17,0(r21)
  4216d8:	003d4306 	br	420be8 <__alt_mem_sdram+0xf8420be8>
  4216dc:	84000814 	ori	r16,r16,32
  4216e0:	ac400007 	ldb	r17,0(r21)
  4216e4:	003d4006 	br	420be8 <__alt_mem_sdram+0xf8420be8>
  4216e8:	d8802e17 	ldw	r2,184(sp)
  4216ec:	8025883a 	mov	r18,r16
  4216f0:	d8002785 	stb	zero,158(sp)
  4216f4:	14000017 	ldw	r16,0(r2)
  4216f8:	e011883a 	mov	r8,fp
  4216fc:	14c00104 	addi	r19,r2,4
  421700:	80042d26 	beq	r16,zero,4227b8 <___vfprintf_internal_r+0x1d58>
  421704:	d8c02a17 	ldw	r3,168(sp)
  421708:	1803e416 	blt	r3,zero,42269c <___vfprintf_internal_r+0x1c3c>
  42170c:	180d883a 	mov	r6,r3
  421710:	000b883a 	mov	r5,zero
  421714:	8009883a 	mov	r4,r16
  421718:	df003d15 	stw	fp,244(sp)
  42171c:	04263980 	call	426398 <memchr>
  421720:	da003d17 	ldw	r8,244(sp)
  421724:	10046826 	beq	r2,zero,4228c8 <___vfprintf_internal_r+0x1e68>
  421728:	1405c83a 	sub	r2,r2,r16
  42172c:	d8802b15 	stw	r2,172(sp)
  421730:	1003e016 	blt	r2,zero,4226b4 <___vfprintf_internal_r+0x1c54>
  421734:	df002783 	ldbu	fp,158(sp)
  421738:	d8802915 	stw	r2,164(sp)
  42173c:	dcc02e15 	stw	r19,184(sp)
  421740:	d8002a15 	stw	zero,168(sp)
  421744:	d8003215 	stw	zero,200(sp)
  421748:	003ea206 	br	4211d4 <__alt_mem_sdram+0xf84211d4>
  42174c:	8025883a 	mov	r18,r16
  421750:	dc002903 	ldbu	r16,164(sp)
  421754:	e011883a 	mov	r8,fp
  421758:	84003fcc 	andi	r16,r16,255
  42175c:	803f8d26 	beq	r16,zero,421594 <__alt_mem_sdram+0xf8421594>
  421760:	d8c02b03 	ldbu	r3,172(sp)
  421764:	d8c02785 	stb	r3,158(sp)
  421768:	003f8a06 	br	421594 <__alt_mem_sdram+0xf8421594>
  42176c:	8025883a 	mov	r18,r16
  421770:	dc002903 	ldbu	r16,164(sp)
  421774:	e011883a 	mov	r8,fp
  421778:	84003fcc 	andi	r16,r16,255
  42177c:	8005661e 	bne	r16,zero,422d18 <___vfprintf_internal_r+0x22b8>
  421780:	010010f4 	movhi	r4,67
  421784:	2102f804 	addi	r4,r4,3040
  421788:	d9003915 	stw	r4,228(sp)
  42178c:	9080080c 	andi	r2,r18,32
  421790:	103f9f1e 	bne	r2,zero,421610 <__alt_mem_sdram+0xf8421610>
  421794:	9080040c 	andi	r2,r18,16
  421798:	1002eb26 	beq	r2,zero,422348 <___vfprintf_internal_r+0x18e8>
  42179c:	d8802e17 	ldw	r2,184(sp)
  4217a0:	002d883a 	mov	r22,zero
  4217a4:	14c00017 	ldw	r19,0(r2)
  4217a8:	10800104 	addi	r2,r2,4
  4217ac:	d8802e15 	stw	r2,184(sp)
  4217b0:	003f9c06 	br	421624 <__alt_mem_sdram+0xf8421624>
  4217b4:	d8802b07 	ldb	r2,172(sp)
  4217b8:	1002e11e 	bne	r2,zero,422340 <___vfprintf_internal_r+0x18e0>
  4217bc:	00c00044 	movi	r3,1
  4217c0:	d8c02905 	stb	r3,164(sp)
  4217c4:	00c00804 	movi	r3,32
  4217c8:	d8c02b05 	stb	r3,172(sp)
  4217cc:	ac400007 	ldb	r17,0(r21)
  4217d0:	003d0506 	br	420be8 <__alt_mem_sdram+0xf8420be8>
  4217d4:	84000054 	ori	r16,r16,1
  4217d8:	ac400007 	ldb	r17,0(r21)
  4217dc:	003d0206 	br	420be8 <__alt_mem_sdram+0xf8420be8>
  4217e0:	8025883a 	mov	r18,r16
  4217e4:	dc002903 	ldbu	r16,164(sp)
  4217e8:	e011883a 	mov	r8,fp
  4217ec:	84003fcc 	andi	r16,r16,255
  4217f0:	803de726 	beq	r16,zero,420f90 <__alt_mem_sdram+0xf8420f90>
  4217f4:	d8c02b03 	ldbu	r3,172(sp)
  4217f8:	d8c02785 	stb	r3,158(sp)
  4217fc:	003de406 	br	420f90 <__alt_mem_sdram+0xf8420f90>
  421800:	84001014 	ori	r16,r16,64
  421804:	ac400007 	ldb	r17,0(r21)
  421808:	003cf706 	br	420be8 <__alt_mem_sdram+0xf8420be8>
  42180c:	ac400007 	ldb	r17,0(r21)
  421810:	00801b04 	movi	r2,108
  421814:	88838f26 	beq	r17,r2,422654 <___vfprintf_internal_r+0x1bf4>
  421818:	84000414 	ori	r16,r16,16
  42181c:	003cf206 	br	420be8 <__alt_mem_sdram+0xf8420be8>
  421820:	8025883a 	mov	r18,r16
  421824:	dc002903 	ldbu	r16,164(sp)
  421828:	e011883a 	mov	r8,fp
  42182c:	84003fcc 	andi	r16,r16,255
  421830:	80053f1e 	bne	r16,zero,422d30 <___vfprintf_internal_r+0x22d0>
  421834:	9080080c 	andi	r2,r18,32
  421838:	1002d226 	beq	r2,zero,422384 <___vfprintf_internal_r+0x1924>
  42183c:	d9002e17 	ldw	r4,184(sp)
  421840:	d9402f17 	ldw	r5,188(sp)
  421844:	20800017 	ldw	r2,0(r4)
  421848:	2807d7fa 	srai	r3,r5,31
  42184c:	21000104 	addi	r4,r4,4
  421850:	d9002e15 	stw	r4,184(sp)
  421854:	11400015 	stw	r5,0(r2)
  421858:	10c00115 	stw	r3,4(r2)
  42185c:	003cb806 	br	420b40 <__alt_mem_sdram+0xf8420b40>
  421860:	d8c02e17 	ldw	r3,184(sp)
  421864:	d9002e17 	ldw	r4,184(sp)
  421868:	8025883a 	mov	r18,r16
  42186c:	18800017 	ldw	r2,0(r3)
  421870:	21000104 	addi	r4,r4,4
  421874:	00c00044 	movi	r3,1
  421878:	e011883a 	mov	r8,fp
  42187c:	d8c02915 	stw	r3,164(sp)
  421880:	d8002785 	stb	zero,158(sp)
  421884:	d8801405 	stb	r2,80(sp)
  421888:	d9002e15 	stw	r4,184(sp)
  42188c:	d8c02b15 	stw	r3,172(sp)
  421890:	d8002a15 	stw	zero,168(sp)
  421894:	d8003215 	stw	zero,200(sp)
  421898:	dc001404 	addi	r16,sp,80
  42189c:	0039883a 	mov	fp,zero
  4218a0:	003e5306 	br	4211f0 <__alt_mem_sdram+0xf84211f0>
  4218a4:	010010f4 	movhi	r4,67
  4218a8:	2102f804 	addi	r4,r4,3040
  4218ac:	0039883a 	mov	fp,zero
  4218b0:	d9003915 	stw	r4,228(sp)
  4218b4:	04401e04 	movi	r17,120
  4218b8:	003f6906 	br	421660 <__alt_mem_sdram+0xf8421660>
  4218bc:	8025883a 	mov	r18,r16
  4218c0:	dc002903 	ldbu	r16,164(sp)
  4218c4:	e011883a 	mov	r8,fp
  4218c8:	84003fcc 	andi	r16,r16,255
  4218cc:	8005081e 	bne	r16,zero,422cf0 <___vfprintf_internal_r+0x2290>
  4218d0:	883d6126 	beq	r17,zero,420e58 <__alt_mem_sdram+0xf8420e58>
  4218d4:	00c00044 	movi	r3,1
  4218d8:	d8c02915 	stw	r3,164(sp)
  4218dc:	dc401405 	stb	r17,80(sp)
  4218e0:	d8002785 	stb	zero,158(sp)
  4218e4:	003fe906 	br	42188c <__alt_mem_sdram+0xf842188c>
  4218e8:	014010f4 	movhi	r5,67
  4218ec:	2942f804 	addi	r5,r5,3040
  4218f0:	d9403915 	stw	r5,228(sp)
  4218f4:	d8c02e15 	stw	r3,184(sp)
  4218f8:	1025883a 	mov	r18,r2
  4218fc:	04401e04 	movi	r17,120
  421900:	9d84b03a 	or	r2,r19,r22
  421904:	1000fc1e 	bne	r2,zero,421cf8 <___vfprintf_internal_r+0x1298>
  421908:	0039883a 	mov	fp,zero
  42190c:	00800084 	movi	r2,2
  421910:	10803fcc 	andi	r2,r2,255
  421914:	00c00044 	movi	r3,1
  421918:	10c20f26 	beq	r2,r3,422158 <___vfprintf_internal_r+0x16f8>
  42191c:	00c00084 	movi	r3,2
  421920:	10fd3326 	beq	r2,r3,420df0 <__alt_mem_sdram+0xf8420df0>
  421924:	003e0b06 	br	421154 <__alt_mem_sdram+0xf8421154>
  421928:	d8c02017 	ldw	r3,128(sp)
  42192c:	003e7106 	br	4212f4 <__alt_mem_sdram+0xf84212f4>
  421930:	00801944 	movi	r2,101
  421934:	14407e0e 	bge	r2,r17,421b30 <___vfprintf_internal_r+0x10d0>
  421938:	d9003617 	ldw	r4,216(sp)
  42193c:	d9403817 	ldw	r5,224(sp)
  421940:	000d883a 	mov	r6,zero
  421944:	000f883a 	mov	r7,zero
  421948:	d8c03c15 	stw	r3,240(sp)
  42194c:	da003d15 	stw	r8,244(sp)
  421950:	042c1780 	call	42c178 <__eqdf2>
  421954:	d8c03c17 	ldw	r3,240(sp)
  421958:	da003d17 	ldw	r8,244(sp)
  42195c:	1000f71e 	bne	r2,zero,421d3c <___vfprintf_internal_r+0x12dc>
  421960:	d8801f17 	ldw	r2,124(sp)
  421964:	010010f4 	movhi	r4,67
  421968:	2102ff04 	addi	r4,r4,3068
  42196c:	18c00044 	addi	r3,r3,1
  421970:	10800044 	addi	r2,r2,1
  421974:	41000015 	stw	r4,0(r8)
  421978:	01000044 	movi	r4,1
  42197c:	41000115 	stw	r4,4(r8)
  421980:	d8c02015 	stw	r3,128(sp)
  421984:	d8801f15 	stw	r2,124(sp)
  421988:	010001c4 	movi	r4,7
  42198c:	2082b816 	blt	r4,r2,422470 <___vfprintf_internal_r+0x1a10>
  421990:	42000204 	addi	r8,r8,8
  421994:	d8802617 	ldw	r2,152(sp)
  421998:	d9403317 	ldw	r5,204(sp)
  42199c:	11400216 	blt	r2,r5,4219a8 <___vfprintf_internal_r+0xf48>
  4219a0:	9080004c 	andi	r2,r18,1
  4219a4:	103eb326 	beq	r2,zero,421474 <__alt_mem_sdram+0xf8421474>
  4219a8:	d8803717 	ldw	r2,220(sp)
  4219ac:	d9003417 	ldw	r4,208(sp)
  4219b0:	d9403717 	ldw	r5,220(sp)
  4219b4:	1887883a 	add	r3,r3,r2
  4219b8:	d8801f17 	ldw	r2,124(sp)
  4219bc:	41000015 	stw	r4,0(r8)
  4219c0:	41400115 	stw	r5,4(r8)
  4219c4:	10800044 	addi	r2,r2,1
  4219c8:	d8c02015 	stw	r3,128(sp)
  4219cc:	d8801f15 	stw	r2,124(sp)
  4219d0:	010001c4 	movi	r4,7
  4219d4:	20832916 	blt	r4,r2,42267c <___vfprintf_internal_r+0x1c1c>
  4219d8:	42000204 	addi	r8,r8,8
  4219dc:	d8803317 	ldw	r2,204(sp)
  4219e0:	143fffc4 	addi	r16,r2,-1
  4219e4:	043ea30e 	bge	zero,r16,421474 <__alt_mem_sdram+0xf8421474>
  4219e8:	04400404 	movi	r17,16
  4219ec:	d8801f17 	ldw	r2,124(sp)
  4219f0:	8c00880e 	bge	r17,r16,421c14 <___vfprintf_internal_r+0x11b4>
  4219f4:	014010f4 	movhi	r5,67
  4219f8:	2942ff84 	addi	r5,r5,3070
  4219fc:	d9402c15 	stw	r5,176(sp)
  421a00:	058001c4 	movi	r22,7
  421a04:	dcc02d17 	ldw	r19,180(sp)
  421a08:	00000306 	br	421a18 <___vfprintf_internal_r+0xfb8>
  421a0c:	42000204 	addi	r8,r8,8
  421a10:	843ffc04 	addi	r16,r16,-16
  421a14:	8c00820e 	bge	r17,r16,421c20 <___vfprintf_internal_r+0x11c0>
  421a18:	18c00404 	addi	r3,r3,16
  421a1c:	10800044 	addi	r2,r2,1
  421a20:	45000015 	stw	r20,0(r8)
  421a24:	44400115 	stw	r17,4(r8)
  421a28:	d8c02015 	stw	r3,128(sp)
  421a2c:	d8801f15 	stw	r2,124(sp)
  421a30:	b0bff60e 	bge	r22,r2,421a0c <__alt_mem_sdram+0xf8421a0c>
  421a34:	d9801e04 	addi	r6,sp,120
  421a38:	b80b883a 	mov	r5,r23
  421a3c:	9809883a 	mov	r4,r19
  421a40:	04282400 	call	428240 <__sprint_r>
  421a44:	103d0a1e 	bne	r2,zero,420e70 <__alt_mem_sdram+0xf8420e70>
  421a48:	d8c02017 	ldw	r3,128(sp)
  421a4c:	d8801f17 	ldw	r2,124(sp)
  421a50:	da000404 	addi	r8,sp,16
  421a54:	003fee06 	br	421a10 <__alt_mem_sdram+0xf8421a10>
  421a58:	d9403117 	ldw	r5,196(sp)
  421a5c:	d8802917 	ldw	r2,164(sp)
  421a60:	28adc83a 	sub	r22,r5,r2
  421a64:	05be410e 	bge	zero,r22,42136c <__alt_mem_sdram+0xf842136c>
  421a68:	07000404 	movi	fp,16
  421a6c:	d8801f17 	ldw	r2,124(sp)
  421a70:	e5838f0e 	bge	fp,r22,4228b0 <___vfprintf_internal_r+0x1e50>
  421a74:	014010f4 	movhi	r5,67
  421a78:	2942ff84 	addi	r5,r5,3070
  421a7c:	dc403015 	stw	r17,192(sp)
  421a80:	d9402c15 	stw	r5,176(sp)
  421a84:	b023883a 	mov	r17,r22
  421a88:	04c001c4 	movi	r19,7
  421a8c:	a82d883a 	mov	r22,r21
  421a90:	902b883a 	mov	r21,r18
  421a94:	8025883a 	mov	r18,r16
  421a98:	dc002d17 	ldw	r16,180(sp)
  421a9c:	00000306 	br	421aac <___vfprintf_internal_r+0x104c>
  421aa0:	8c7ffc04 	addi	r17,r17,-16
  421aa4:	42000204 	addi	r8,r8,8
  421aa8:	e440110e 	bge	fp,r17,421af0 <___vfprintf_internal_r+0x1090>
  421aac:	18c00404 	addi	r3,r3,16
  421ab0:	10800044 	addi	r2,r2,1
  421ab4:	45000015 	stw	r20,0(r8)
  421ab8:	47000115 	stw	fp,4(r8)
  421abc:	d8c02015 	stw	r3,128(sp)
  421ac0:	d8801f15 	stw	r2,124(sp)
  421ac4:	98bff60e 	bge	r19,r2,421aa0 <__alt_mem_sdram+0xf8421aa0>
  421ac8:	d9801e04 	addi	r6,sp,120
  421acc:	b80b883a 	mov	r5,r23
  421ad0:	8009883a 	mov	r4,r16
  421ad4:	04282400 	call	428240 <__sprint_r>
  421ad8:	103ce51e 	bne	r2,zero,420e70 <__alt_mem_sdram+0xf8420e70>
  421adc:	8c7ffc04 	addi	r17,r17,-16
  421ae0:	d8c02017 	ldw	r3,128(sp)
  421ae4:	d8801f17 	ldw	r2,124(sp)
  421ae8:	da000404 	addi	r8,sp,16
  421aec:	e47fef16 	blt	fp,r17,421aac <__alt_mem_sdram+0xf8421aac>
  421af0:	9021883a 	mov	r16,r18
  421af4:	a825883a 	mov	r18,r21
  421af8:	b02b883a 	mov	r21,r22
  421afc:	882d883a 	mov	r22,r17
  421b00:	dc403017 	ldw	r17,192(sp)
  421b04:	d9002c17 	ldw	r4,176(sp)
  421b08:	1d87883a 	add	r3,r3,r22
  421b0c:	10800044 	addi	r2,r2,1
  421b10:	41000015 	stw	r4,0(r8)
  421b14:	45800115 	stw	r22,4(r8)
  421b18:	d8c02015 	stw	r3,128(sp)
  421b1c:	d8801f15 	stw	r2,124(sp)
  421b20:	010001c4 	movi	r4,7
  421b24:	20818e16 	blt	r4,r2,422160 <___vfprintf_internal_r+0x1700>
  421b28:	42000204 	addi	r8,r8,8
  421b2c:	003e0f06 	br	42136c <__alt_mem_sdram+0xf842136c>
  421b30:	d9403317 	ldw	r5,204(sp)
  421b34:	00800044 	movi	r2,1
  421b38:	18c00044 	addi	r3,r3,1
  421b3c:	1141530e 	bge	r2,r5,42208c <___vfprintf_internal_r+0x162c>
  421b40:	dc401f17 	ldw	r17,124(sp)
  421b44:	00800044 	movi	r2,1
  421b48:	40800115 	stw	r2,4(r8)
  421b4c:	8c400044 	addi	r17,r17,1
  421b50:	44000015 	stw	r16,0(r8)
  421b54:	d8c02015 	stw	r3,128(sp)
  421b58:	dc401f15 	stw	r17,124(sp)
  421b5c:	008001c4 	movi	r2,7
  421b60:	14416b16 	blt	r2,r17,422110 <___vfprintf_internal_r+0x16b0>
  421b64:	42000204 	addi	r8,r8,8
  421b68:	d8803717 	ldw	r2,220(sp)
  421b6c:	d9003417 	ldw	r4,208(sp)
  421b70:	8c400044 	addi	r17,r17,1
  421b74:	10c7883a 	add	r3,r2,r3
  421b78:	40800115 	stw	r2,4(r8)
  421b7c:	41000015 	stw	r4,0(r8)
  421b80:	d8c02015 	stw	r3,128(sp)
  421b84:	dc401f15 	stw	r17,124(sp)
  421b88:	008001c4 	movi	r2,7
  421b8c:	14416916 	blt	r2,r17,422134 <___vfprintf_internal_r+0x16d4>
  421b90:	45800204 	addi	r22,r8,8
  421b94:	d9003617 	ldw	r4,216(sp)
  421b98:	d9403817 	ldw	r5,224(sp)
  421b9c:	000d883a 	mov	r6,zero
  421ba0:	000f883a 	mov	r7,zero
  421ba4:	d8c03c15 	stw	r3,240(sp)
  421ba8:	042c1780 	call	42c178 <__eqdf2>
  421bac:	d8c03c17 	ldw	r3,240(sp)
  421bb0:	1000bc26 	beq	r2,zero,421ea4 <___vfprintf_internal_r+0x1444>
  421bb4:	d9403317 	ldw	r5,204(sp)
  421bb8:	84000044 	addi	r16,r16,1
  421bbc:	8c400044 	addi	r17,r17,1
  421bc0:	28bfffc4 	addi	r2,r5,-1
  421bc4:	1887883a 	add	r3,r3,r2
  421bc8:	b0800115 	stw	r2,4(r22)
  421bcc:	b4000015 	stw	r16,0(r22)
  421bd0:	d8c02015 	stw	r3,128(sp)
  421bd4:	dc401f15 	stw	r17,124(sp)
  421bd8:	008001c4 	movi	r2,7
  421bdc:	14414316 	blt	r2,r17,4220ec <___vfprintf_internal_r+0x168c>
  421be0:	b5800204 	addi	r22,r22,8
  421be4:	d9003a17 	ldw	r4,232(sp)
  421be8:	df0022c4 	addi	fp,sp,139
  421bec:	8c400044 	addi	r17,r17,1
  421bf0:	20c7883a 	add	r3,r4,r3
  421bf4:	b7000015 	stw	fp,0(r22)
  421bf8:	b1000115 	stw	r4,4(r22)
  421bfc:	d8c02015 	stw	r3,128(sp)
  421c00:	dc401f15 	stw	r17,124(sp)
  421c04:	008001c4 	movi	r2,7
  421c08:	14400e16 	blt	r2,r17,421c44 <___vfprintf_internal_r+0x11e4>
  421c0c:	b2000204 	addi	r8,r22,8
  421c10:	003e1806 	br	421474 <__alt_mem_sdram+0xf8421474>
  421c14:	010010f4 	movhi	r4,67
  421c18:	2102ff84 	addi	r4,r4,3070
  421c1c:	d9002c15 	stw	r4,176(sp)
  421c20:	d9002c17 	ldw	r4,176(sp)
  421c24:	1c07883a 	add	r3,r3,r16
  421c28:	44000115 	stw	r16,4(r8)
  421c2c:	41000015 	stw	r4,0(r8)
  421c30:	10800044 	addi	r2,r2,1
  421c34:	d8c02015 	stw	r3,128(sp)
  421c38:	d8801f15 	stw	r2,124(sp)
  421c3c:	010001c4 	movi	r4,7
  421c40:	20be0b0e 	bge	r4,r2,421470 <__alt_mem_sdram+0xf8421470>
  421c44:	d9002d17 	ldw	r4,180(sp)
  421c48:	d9801e04 	addi	r6,sp,120
  421c4c:	b80b883a 	mov	r5,r23
  421c50:	04282400 	call	428240 <__sprint_r>
  421c54:	103c861e 	bne	r2,zero,420e70 <__alt_mem_sdram+0xf8420e70>
  421c58:	d8c02017 	ldw	r3,128(sp)
  421c5c:	da000404 	addi	r8,sp,16
  421c60:	003e0406 	br	421474 <__alt_mem_sdram+0xf8421474>
  421c64:	d9002d17 	ldw	r4,180(sp)
  421c68:	d9801e04 	addi	r6,sp,120
  421c6c:	b80b883a 	mov	r5,r23
  421c70:	04282400 	call	428240 <__sprint_r>
  421c74:	103e3b26 	beq	r2,zero,421564 <__alt_mem_sdram+0xf8421564>
  421c78:	003c7d06 	br	420e70 <__alt_mem_sdram+0xf8420e70>
  421c7c:	d9002d17 	ldw	r4,180(sp)
  421c80:	d9801e04 	addi	r6,sp,120
  421c84:	b80b883a 	mov	r5,r23
  421c88:	04282400 	call	428240 <__sprint_r>
  421c8c:	103c781e 	bne	r2,zero,420e70 <__alt_mem_sdram+0xf8420e70>
  421c90:	d8c02017 	ldw	r3,128(sp)
  421c94:	da000404 	addi	r8,sp,16
  421c98:	003de906 	br	421440 <__alt_mem_sdram+0xf8421440>
  421c9c:	d9002d17 	ldw	r4,180(sp)
  421ca0:	d9801e04 	addi	r6,sp,120
  421ca4:	b80b883a 	mov	r5,r23
  421ca8:	04282400 	call	428240 <__sprint_r>
  421cac:	103c701e 	bne	r2,zero,420e70 <__alt_mem_sdram+0xf8420e70>
  421cb0:	d8c02017 	ldw	r3,128(sp)
  421cb4:	da000404 	addi	r8,sp,16
  421cb8:	003d9b06 	br	421328 <__alt_mem_sdram+0xf8421328>
  421cbc:	d9002d17 	ldw	r4,180(sp)
  421cc0:	d9801e04 	addi	r6,sp,120
  421cc4:	b80b883a 	mov	r5,r23
  421cc8:	04282400 	call	428240 <__sprint_r>
  421ccc:	103c681e 	bne	r2,zero,420e70 <__alt_mem_sdram+0xf8420e70>
  421cd0:	d8c02017 	ldw	r3,128(sp)
  421cd4:	da000404 	addi	r8,sp,16
  421cd8:	003da106 	br	421360 <__alt_mem_sdram+0xf8421360>
  421cdc:	d9402a17 	ldw	r5,168(sp)
  421ce0:	d8002785 	stb	zero,158(sp)
  421ce4:	283f0616 	blt	r5,zero,421900 <__alt_mem_sdram+0xf8421900>
  421ce8:	00ffdfc4 	movi	r3,-129
  421cec:	9d84b03a 	or	r2,r19,r22
  421cf0:	90e4703a 	and	r18,r18,r3
  421cf4:	103c3b26 	beq	r2,zero,420de4 <__alt_mem_sdram+0xf8420de4>
  421cf8:	0039883a 	mov	fp,zero
  421cfc:	003e5806 	br	421660 <__alt_mem_sdram+0xf8421660>
  421d00:	9080040c 	andi	r2,r18,16
  421d04:	1001b326 	beq	r2,zero,4223d4 <___vfprintf_internal_r+0x1974>
  421d08:	d8c02e17 	ldw	r3,184(sp)
  421d0c:	d9002a17 	ldw	r4,168(sp)
  421d10:	d8002785 	stb	zero,158(sp)
  421d14:	18800104 	addi	r2,r3,4
  421d18:	1cc00017 	ldw	r19,0(r3)
  421d1c:	002d883a 	mov	r22,zero
  421d20:	2001b516 	blt	r4,zero,4223f8 <___vfprintf_internal_r+0x1998>
  421d24:	00ffdfc4 	movi	r3,-129
  421d28:	d8802e15 	stw	r2,184(sp)
  421d2c:	90e4703a 	and	r18,r18,r3
  421d30:	983d0526 	beq	r19,zero,421148 <__alt_mem_sdram+0xf8421148>
  421d34:	0039883a 	mov	fp,zero
  421d38:	003d0806 	br	42115c <__alt_mem_sdram+0xf842115c>
  421d3c:	dc402617 	ldw	r17,152(sp)
  421d40:	0441d30e 	bge	zero,r17,422490 <___vfprintf_internal_r+0x1a30>
  421d44:	dc403217 	ldw	r17,200(sp)
  421d48:	d8803317 	ldw	r2,204(sp)
  421d4c:	1440010e 	bge	r2,r17,421d54 <___vfprintf_internal_r+0x12f4>
  421d50:	1023883a 	mov	r17,r2
  421d54:	04400a0e 	bge	zero,r17,421d80 <___vfprintf_internal_r+0x1320>
  421d58:	d8801f17 	ldw	r2,124(sp)
  421d5c:	1c47883a 	add	r3,r3,r17
  421d60:	44000015 	stw	r16,0(r8)
  421d64:	10800044 	addi	r2,r2,1
  421d68:	44400115 	stw	r17,4(r8)
  421d6c:	d8c02015 	stw	r3,128(sp)
  421d70:	d8801f15 	stw	r2,124(sp)
  421d74:	010001c4 	movi	r4,7
  421d78:	20826516 	blt	r4,r2,422710 <___vfprintf_internal_r+0x1cb0>
  421d7c:	42000204 	addi	r8,r8,8
  421d80:	88026116 	blt	r17,zero,422708 <___vfprintf_internal_r+0x1ca8>
  421d84:	d9003217 	ldw	r4,200(sp)
  421d88:	2463c83a 	sub	r17,r4,r17
  421d8c:	04407b0e 	bge	zero,r17,421f7c <___vfprintf_internal_r+0x151c>
  421d90:	05800404 	movi	r22,16
  421d94:	d8801f17 	ldw	r2,124(sp)
  421d98:	b4419d0e 	bge	r22,r17,422410 <___vfprintf_internal_r+0x19b0>
  421d9c:	010010f4 	movhi	r4,67
  421da0:	2102ff84 	addi	r4,r4,3070
  421da4:	d9002c15 	stw	r4,176(sp)
  421da8:	070001c4 	movi	fp,7
  421dac:	dcc02d17 	ldw	r19,180(sp)
  421db0:	00000306 	br	421dc0 <___vfprintf_internal_r+0x1360>
  421db4:	42000204 	addi	r8,r8,8
  421db8:	8c7ffc04 	addi	r17,r17,-16
  421dbc:	b441970e 	bge	r22,r17,42241c <___vfprintf_internal_r+0x19bc>
  421dc0:	18c00404 	addi	r3,r3,16
  421dc4:	10800044 	addi	r2,r2,1
  421dc8:	45000015 	stw	r20,0(r8)
  421dcc:	45800115 	stw	r22,4(r8)
  421dd0:	d8c02015 	stw	r3,128(sp)
  421dd4:	d8801f15 	stw	r2,124(sp)
  421dd8:	e0bff60e 	bge	fp,r2,421db4 <__alt_mem_sdram+0xf8421db4>
  421ddc:	d9801e04 	addi	r6,sp,120
  421de0:	b80b883a 	mov	r5,r23
  421de4:	9809883a 	mov	r4,r19
  421de8:	04282400 	call	428240 <__sprint_r>
  421dec:	103c201e 	bne	r2,zero,420e70 <__alt_mem_sdram+0xf8420e70>
  421df0:	d8c02017 	ldw	r3,128(sp)
  421df4:	d8801f17 	ldw	r2,124(sp)
  421df8:	da000404 	addi	r8,sp,16
  421dfc:	003fee06 	br	421db8 <__alt_mem_sdram+0xf8421db8>
  421e00:	d9002d17 	ldw	r4,180(sp)
  421e04:	d9801e04 	addi	r6,sp,120
  421e08:	b80b883a 	mov	r5,r23
  421e0c:	04282400 	call	428240 <__sprint_r>
  421e10:	103c171e 	bne	r2,zero,420e70 <__alt_mem_sdram+0xf8420e70>
  421e14:	d8c02017 	ldw	r3,128(sp)
  421e18:	df002787 	ldb	fp,158(sp)
  421e1c:	da000404 	addi	r8,sp,16
  421e20:	003d3406 	br	4212f4 <__alt_mem_sdram+0xf84212f4>
  421e24:	9080040c 	andi	r2,r18,16
  421e28:	10016126 	beq	r2,zero,4223b0 <___vfprintf_internal_r+0x1950>
  421e2c:	d9402e17 	ldw	r5,184(sp)
  421e30:	2cc00017 	ldw	r19,0(r5)
  421e34:	29400104 	addi	r5,r5,4
  421e38:	d9402e15 	stw	r5,184(sp)
  421e3c:	982dd7fa 	srai	r22,r19,31
  421e40:	b005883a 	mov	r2,r22
  421e44:	003c5a06 	br	420fb0 <__alt_mem_sdram+0xf8420fb0>
  421e48:	9080040c 	andi	r2,r18,16
  421e4c:	10003526 	beq	r2,zero,421f24 <___vfprintf_internal_r+0x14c4>
  421e50:	d8c02e17 	ldw	r3,184(sp)
  421e54:	d9002a17 	ldw	r4,168(sp)
  421e58:	d8002785 	stb	zero,158(sp)
  421e5c:	18800104 	addi	r2,r3,4
  421e60:	1cc00017 	ldw	r19,0(r3)
  421e64:	002d883a 	mov	r22,zero
  421e68:	20003716 	blt	r4,zero,421f48 <___vfprintf_internal_r+0x14e8>
  421e6c:	00ffdfc4 	movi	r3,-129
  421e70:	d8802e15 	stw	r2,184(sp)
  421e74:	90e4703a 	and	r18,r18,r3
  421e78:	0039883a 	mov	fp,zero
  421e7c:	983dd426 	beq	r19,zero,4215d0 <__alt_mem_sdram+0xf84215d0>
  421e80:	00800244 	movi	r2,9
  421e84:	14fc5336 	bltu	r2,r19,420fd4 <__alt_mem_sdram+0xf8420fd4>
  421e88:	d8c02817 	ldw	r3,160(sp)
  421e8c:	dc001dc4 	addi	r16,sp,119
  421e90:	9cc00c04 	addi	r19,r19,48
  421e94:	1c07c83a 	sub	r3,r3,r16
  421e98:	dcc01dc5 	stb	r19,119(sp)
  421e9c:	d8c02b15 	stw	r3,172(sp)
  421ea0:	003cc606 	br	4211bc <__alt_mem_sdram+0xf84211bc>
  421ea4:	d8803317 	ldw	r2,204(sp)
  421ea8:	143fffc4 	addi	r16,r2,-1
  421eac:	043f4d0e 	bge	zero,r16,421be4 <__alt_mem_sdram+0xf8421be4>
  421eb0:	07000404 	movi	fp,16
  421eb4:	e400810e 	bge	fp,r16,4220bc <___vfprintf_internal_r+0x165c>
  421eb8:	014010f4 	movhi	r5,67
  421ebc:	2942ff84 	addi	r5,r5,3070
  421ec0:	d9402c15 	stw	r5,176(sp)
  421ec4:	01c001c4 	movi	r7,7
  421ec8:	dcc02d17 	ldw	r19,180(sp)
  421ecc:	00000306 	br	421edc <___vfprintf_internal_r+0x147c>
  421ed0:	b5800204 	addi	r22,r22,8
  421ed4:	843ffc04 	addi	r16,r16,-16
  421ed8:	e4007b0e 	bge	fp,r16,4220c8 <___vfprintf_internal_r+0x1668>
  421edc:	18c00404 	addi	r3,r3,16
  421ee0:	8c400044 	addi	r17,r17,1
  421ee4:	b5000015 	stw	r20,0(r22)
  421ee8:	b7000115 	stw	fp,4(r22)
  421eec:	d8c02015 	stw	r3,128(sp)
  421ef0:	dc401f15 	stw	r17,124(sp)
  421ef4:	3c7ff60e 	bge	r7,r17,421ed0 <__alt_mem_sdram+0xf8421ed0>
  421ef8:	d9801e04 	addi	r6,sp,120
  421efc:	b80b883a 	mov	r5,r23
  421f00:	9809883a 	mov	r4,r19
  421f04:	d9c03c15 	stw	r7,240(sp)
  421f08:	04282400 	call	428240 <__sprint_r>
  421f0c:	d9c03c17 	ldw	r7,240(sp)
  421f10:	103bd71e 	bne	r2,zero,420e70 <__alt_mem_sdram+0xf8420e70>
  421f14:	d8c02017 	ldw	r3,128(sp)
  421f18:	dc401f17 	ldw	r17,124(sp)
  421f1c:	dd800404 	addi	r22,sp,16
  421f20:	003fec06 	br	421ed4 <__alt_mem_sdram+0xf8421ed4>
  421f24:	9080100c 	andi	r2,r18,64
  421f28:	d8002785 	stb	zero,158(sp)
  421f2c:	10010e26 	beq	r2,zero,422368 <___vfprintf_internal_r+0x1908>
  421f30:	d9402e17 	ldw	r5,184(sp)
  421f34:	d8c02a17 	ldw	r3,168(sp)
  421f38:	002d883a 	mov	r22,zero
  421f3c:	28800104 	addi	r2,r5,4
  421f40:	2cc0000b 	ldhu	r19,0(r5)
  421f44:	183fc90e 	bge	r3,zero,421e6c <__alt_mem_sdram+0xf8421e6c>
  421f48:	d8802e15 	stw	r2,184(sp)
  421f4c:	0039883a 	mov	fp,zero
  421f50:	9d84b03a 	or	r2,r19,r22
  421f54:	103c1e1e 	bne	r2,zero,420fd0 <__alt_mem_sdram+0xf8420fd0>
  421f58:	00800044 	movi	r2,1
  421f5c:	003e6c06 	br	421910 <__alt_mem_sdram+0xf8421910>
  421f60:	d9002d17 	ldw	r4,180(sp)
  421f64:	d9801e04 	addi	r6,sp,120
  421f68:	b80b883a 	mov	r5,r23
  421f6c:	04282400 	call	428240 <__sprint_r>
  421f70:	103bbf1e 	bne	r2,zero,420e70 <__alt_mem_sdram+0xf8420e70>
  421f74:	d8c02017 	ldw	r3,128(sp)
  421f78:	da000404 	addi	r8,sp,16
  421f7c:	d9003217 	ldw	r4,200(sp)
  421f80:	d8802617 	ldw	r2,152(sp)
  421f84:	d9403317 	ldw	r5,204(sp)
  421f88:	8123883a 	add	r17,r16,r4
  421f8c:	11400216 	blt	r2,r5,421f98 <___vfprintf_internal_r+0x1538>
  421f90:	9100004c 	andi	r4,r18,1
  421f94:	20000d26 	beq	r4,zero,421fcc <___vfprintf_internal_r+0x156c>
  421f98:	d9003717 	ldw	r4,220(sp)
  421f9c:	d9403417 	ldw	r5,208(sp)
  421fa0:	1907883a 	add	r3,r3,r4
  421fa4:	d9001f17 	ldw	r4,124(sp)
  421fa8:	41400015 	stw	r5,0(r8)
  421fac:	d9403717 	ldw	r5,220(sp)
  421fb0:	21000044 	addi	r4,r4,1
  421fb4:	d8c02015 	stw	r3,128(sp)
  421fb8:	41400115 	stw	r5,4(r8)
  421fbc:	d9001f15 	stw	r4,124(sp)
  421fc0:	014001c4 	movi	r5,7
  421fc4:	2901e816 	blt	r5,r4,422768 <___vfprintf_internal_r+0x1d08>
  421fc8:	42000204 	addi	r8,r8,8
  421fcc:	d9003317 	ldw	r4,204(sp)
  421fd0:	8121883a 	add	r16,r16,r4
  421fd4:	2085c83a 	sub	r2,r4,r2
  421fd8:	8461c83a 	sub	r16,r16,r17
  421fdc:	1400010e 	bge	r2,r16,421fe4 <___vfprintf_internal_r+0x1584>
  421fe0:	1021883a 	mov	r16,r2
  421fe4:	04000a0e 	bge	zero,r16,422010 <___vfprintf_internal_r+0x15b0>
  421fe8:	d9001f17 	ldw	r4,124(sp)
  421fec:	1c07883a 	add	r3,r3,r16
  421ff0:	44400015 	stw	r17,0(r8)
  421ff4:	21000044 	addi	r4,r4,1
  421ff8:	44000115 	stw	r16,4(r8)
  421ffc:	d8c02015 	stw	r3,128(sp)
  422000:	d9001f15 	stw	r4,124(sp)
  422004:	014001c4 	movi	r5,7
  422008:	2901fb16 	blt	r5,r4,4227f8 <___vfprintf_internal_r+0x1d98>
  42200c:	42000204 	addi	r8,r8,8
  422010:	8001f716 	blt	r16,zero,4227f0 <___vfprintf_internal_r+0x1d90>
  422014:	1421c83a 	sub	r16,r2,r16
  422018:	043d160e 	bge	zero,r16,421474 <__alt_mem_sdram+0xf8421474>
  42201c:	04400404 	movi	r17,16
  422020:	d8801f17 	ldw	r2,124(sp)
  422024:	8c3efb0e 	bge	r17,r16,421c14 <__alt_mem_sdram+0xf8421c14>
  422028:	014010f4 	movhi	r5,67
  42202c:	2942ff84 	addi	r5,r5,3070
  422030:	d9402c15 	stw	r5,176(sp)
  422034:	058001c4 	movi	r22,7
  422038:	dcc02d17 	ldw	r19,180(sp)
  42203c:	00000306 	br	42204c <___vfprintf_internal_r+0x15ec>
  422040:	42000204 	addi	r8,r8,8
  422044:	843ffc04 	addi	r16,r16,-16
  422048:	8c3ef50e 	bge	r17,r16,421c20 <__alt_mem_sdram+0xf8421c20>
  42204c:	18c00404 	addi	r3,r3,16
  422050:	10800044 	addi	r2,r2,1
  422054:	45000015 	stw	r20,0(r8)
  422058:	44400115 	stw	r17,4(r8)
  42205c:	d8c02015 	stw	r3,128(sp)
  422060:	d8801f15 	stw	r2,124(sp)
  422064:	b0bff60e 	bge	r22,r2,422040 <__alt_mem_sdram+0xf8422040>
  422068:	d9801e04 	addi	r6,sp,120
  42206c:	b80b883a 	mov	r5,r23
  422070:	9809883a 	mov	r4,r19
  422074:	04282400 	call	428240 <__sprint_r>
  422078:	103b7d1e 	bne	r2,zero,420e70 <__alt_mem_sdram+0xf8420e70>
  42207c:	d8c02017 	ldw	r3,128(sp)
  422080:	d8801f17 	ldw	r2,124(sp)
  422084:	da000404 	addi	r8,sp,16
  422088:	003fee06 	br	422044 <__alt_mem_sdram+0xf8422044>
  42208c:	9088703a 	and	r4,r18,r2
  422090:	203eab1e 	bne	r4,zero,421b40 <__alt_mem_sdram+0xf8421b40>
  422094:	dc401f17 	ldw	r17,124(sp)
  422098:	40800115 	stw	r2,4(r8)
  42209c:	44000015 	stw	r16,0(r8)
  4220a0:	8c400044 	addi	r17,r17,1
  4220a4:	d8c02015 	stw	r3,128(sp)
  4220a8:	dc401f15 	stw	r17,124(sp)
  4220ac:	008001c4 	movi	r2,7
  4220b0:	14400e16 	blt	r2,r17,4220ec <___vfprintf_internal_r+0x168c>
  4220b4:	45800204 	addi	r22,r8,8
  4220b8:	003eca06 	br	421be4 <__alt_mem_sdram+0xf8421be4>
  4220bc:	010010f4 	movhi	r4,67
  4220c0:	2102ff84 	addi	r4,r4,3070
  4220c4:	d9002c15 	stw	r4,176(sp)
  4220c8:	d8802c17 	ldw	r2,176(sp)
  4220cc:	1c07883a 	add	r3,r3,r16
  4220d0:	8c400044 	addi	r17,r17,1
  4220d4:	b0800015 	stw	r2,0(r22)
  4220d8:	b4000115 	stw	r16,4(r22)
  4220dc:	d8c02015 	stw	r3,128(sp)
  4220e0:	dc401f15 	stw	r17,124(sp)
  4220e4:	008001c4 	movi	r2,7
  4220e8:	147ebd0e 	bge	r2,r17,421be0 <__alt_mem_sdram+0xf8421be0>
  4220ec:	d9002d17 	ldw	r4,180(sp)
  4220f0:	d9801e04 	addi	r6,sp,120
  4220f4:	b80b883a 	mov	r5,r23
  4220f8:	04282400 	call	428240 <__sprint_r>
  4220fc:	103b5c1e 	bne	r2,zero,420e70 <__alt_mem_sdram+0xf8420e70>
  422100:	d8c02017 	ldw	r3,128(sp)
  422104:	dc401f17 	ldw	r17,124(sp)
  422108:	dd800404 	addi	r22,sp,16
  42210c:	003eb506 	br	421be4 <__alt_mem_sdram+0xf8421be4>
  422110:	d9002d17 	ldw	r4,180(sp)
  422114:	d9801e04 	addi	r6,sp,120
  422118:	b80b883a 	mov	r5,r23
  42211c:	04282400 	call	428240 <__sprint_r>
  422120:	103b531e 	bne	r2,zero,420e70 <__alt_mem_sdram+0xf8420e70>
  422124:	d8c02017 	ldw	r3,128(sp)
  422128:	dc401f17 	ldw	r17,124(sp)
  42212c:	da000404 	addi	r8,sp,16
  422130:	003e8d06 	br	421b68 <__alt_mem_sdram+0xf8421b68>
  422134:	d9002d17 	ldw	r4,180(sp)
  422138:	d9801e04 	addi	r6,sp,120
  42213c:	b80b883a 	mov	r5,r23
  422140:	04282400 	call	428240 <__sprint_r>
  422144:	103b4a1e 	bne	r2,zero,420e70 <__alt_mem_sdram+0xf8420e70>
  422148:	d8c02017 	ldw	r3,128(sp)
  42214c:	dc401f17 	ldw	r17,124(sp)
  422150:	dd800404 	addi	r22,sp,16
  422154:	003e8f06 	br	421b94 <__alt_mem_sdram+0xf8421b94>
  422158:	0027883a 	mov	r19,zero
  42215c:	003f4a06 	br	421e88 <__alt_mem_sdram+0xf8421e88>
  422160:	d9002d17 	ldw	r4,180(sp)
  422164:	d9801e04 	addi	r6,sp,120
  422168:	b80b883a 	mov	r5,r23
  42216c:	04282400 	call	428240 <__sprint_r>
  422170:	103b3f1e 	bne	r2,zero,420e70 <__alt_mem_sdram+0xf8420e70>
  422174:	d8c02017 	ldw	r3,128(sp)
  422178:	da000404 	addi	r8,sp,16
  42217c:	003c7b06 	br	42136c <__alt_mem_sdram+0xf842136c>
  422180:	d9402a17 	ldw	r5,168(sp)
  422184:	04e7c83a 	sub	r19,zero,r19
  422188:	07000b44 	movi	fp,45
  42218c:	9804c03a 	cmpne	r2,r19,zero
  422190:	05adc83a 	sub	r22,zero,r22
  422194:	df002785 	stb	fp,158(sp)
  422198:	b0adc83a 	sub	r22,r22,r2
  42219c:	28017b16 	blt	r5,zero,42278c <___vfprintf_internal_r+0x1d2c>
  4221a0:	00bfdfc4 	movi	r2,-129
  4221a4:	90a4703a 	and	r18,r18,r2
  4221a8:	003b8906 	br	420fd0 <__alt_mem_sdram+0xf8420fd0>
  4221ac:	d9003617 	ldw	r4,216(sp)
  4221b0:	d9403817 	ldw	r5,224(sp)
  4221b4:	da003d15 	stw	r8,244(sp)
  4221b8:	0427e640 	call	427e64 <__fpclassifyd>
  4221bc:	da003d17 	ldw	r8,244(sp)
  4221c0:	1000f026 	beq	r2,zero,422584 <___vfprintf_internal_r+0x1b24>
  4221c4:	d9002a17 	ldw	r4,168(sp)
  4221c8:	05bff7c4 	movi	r22,-33
  4221cc:	00bfffc4 	movi	r2,-1
  4221d0:	8dac703a 	and	r22,r17,r22
  4221d4:	20820026 	beq	r4,r2,4229d8 <___vfprintf_internal_r+0x1f78>
  4221d8:	008011c4 	movi	r2,71
  4221dc:	b081f726 	beq	r22,r2,4229bc <___vfprintf_internal_r+0x1f5c>
  4221e0:	d9003817 	ldw	r4,224(sp)
  4221e4:	90c04014 	ori	r3,r18,256
  4221e8:	d8c02c15 	stw	r3,176(sp)
  4221ec:	20021516 	blt	r4,zero,422a44 <___vfprintf_internal_r+0x1fe4>
  4221f0:	dcc03817 	ldw	r19,224(sp)
  4221f4:	d8002905 	stb	zero,164(sp)
  4221f8:	00801984 	movi	r2,102
  4221fc:	8881f926 	beq	r17,r2,4229e4 <___vfprintf_internal_r+0x1f84>
  422200:	00801184 	movi	r2,70
  422204:	88821c26 	beq	r17,r2,422a78 <___vfprintf_internal_r+0x2018>
  422208:	00801144 	movi	r2,69
  42220c:	b081ef26 	beq	r22,r2,4229cc <___vfprintf_internal_r+0x1f6c>
  422210:	d8c02a17 	ldw	r3,168(sp)
  422214:	d8802104 	addi	r2,sp,132
  422218:	d8800315 	stw	r2,12(sp)
  42221c:	d9403617 	ldw	r5,216(sp)
  422220:	d8802504 	addi	r2,sp,148
  422224:	d9002d17 	ldw	r4,180(sp)
  422228:	d8800215 	stw	r2,8(sp)
  42222c:	d8802604 	addi	r2,sp,152
  422230:	d8c00015 	stw	r3,0(sp)
  422234:	d8800115 	stw	r2,4(sp)
  422238:	01c00084 	movi	r7,2
  42223c:	980d883a 	mov	r6,r19
  422240:	d8c03c15 	stw	r3,240(sp)
  422244:	da003d15 	stw	r8,244(sp)
  422248:	04231900 	call	423190 <_dtoa_r>
  42224c:	1021883a 	mov	r16,r2
  422250:	008019c4 	movi	r2,103
  422254:	d8c03c17 	ldw	r3,240(sp)
  422258:	da003d17 	ldw	r8,244(sp)
  42225c:	88817126 	beq	r17,r2,422824 <___vfprintf_internal_r+0x1dc4>
  422260:	008011c4 	movi	r2,71
  422264:	88829126 	beq	r17,r2,422cac <___vfprintf_internal_r+0x224c>
  422268:	80f9883a 	add	fp,r16,r3
  42226c:	d9003617 	ldw	r4,216(sp)
  422270:	000d883a 	mov	r6,zero
  422274:	000f883a 	mov	r7,zero
  422278:	980b883a 	mov	r5,r19
  42227c:	da003d15 	stw	r8,244(sp)
  422280:	042c1780 	call	42c178 <__eqdf2>
  422284:	da003d17 	ldw	r8,244(sp)
  422288:	10018d26 	beq	r2,zero,4228c0 <___vfprintf_internal_r+0x1e60>
  42228c:	d8802117 	ldw	r2,132(sp)
  422290:	1700062e 	bgeu	r2,fp,4222ac <___vfprintf_internal_r+0x184c>
  422294:	01000c04 	movi	r4,48
  422298:	10c00044 	addi	r3,r2,1
  42229c:	d8c02115 	stw	r3,132(sp)
  4222a0:	11000005 	stb	r4,0(r2)
  4222a4:	d8802117 	ldw	r2,132(sp)
  4222a8:	173ffb36 	bltu	r2,fp,422298 <__alt_mem_sdram+0xf8422298>
  4222ac:	1405c83a 	sub	r2,r2,r16
  4222b0:	d8803315 	stw	r2,204(sp)
  4222b4:	008011c4 	movi	r2,71
  4222b8:	b0817626 	beq	r22,r2,422894 <___vfprintf_internal_r+0x1e34>
  4222bc:	00801944 	movi	r2,101
  4222c0:	1442800e 	bge	r2,r17,422cc4 <___vfprintf_internal_r+0x2264>
  4222c4:	d8c02617 	ldw	r3,152(sp)
  4222c8:	00801984 	movi	r2,102
  4222cc:	d8c03215 	stw	r3,200(sp)
  4222d0:	8881fe26 	beq	r17,r2,422acc <___vfprintf_internal_r+0x206c>
  4222d4:	d8c03217 	ldw	r3,200(sp)
  4222d8:	d9003317 	ldw	r4,204(sp)
  4222dc:	1901dd16 	blt	r3,r4,422a54 <___vfprintf_internal_r+0x1ff4>
  4222e0:	9480004c 	andi	r18,r18,1
  4222e4:	90022b1e 	bne	r18,zero,422b94 <___vfprintf_internal_r+0x2134>
  4222e8:	1805883a 	mov	r2,r3
  4222ec:	18028316 	blt	r3,zero,422cfc <___vfprintf_internal_r+0x229c>
  4222f0:	d8c03217 	ldw	r3,200(sp)
  4222f4:	044019c4 	movi	r17,103
  4222f8:	d8c02b15 	stw	r3,172(sp)
  4222fc:	df002907 	ldb	fp,164(sp)
  422300:	e001531e 	bne	fp,zero,422850 <___vfprintf_internal_r+0x1df0>
  422304:	df002783 	ldbu	fp,158(sp)
  422308:	d8802915 	stw	r2,164(sp)
  42230c:	dc802c17 	ldw	r18,176(sp)
  422310:	d8002a15 	stw	zero,168(sp)
  422314:	003baf06 	br	4211d4 <__alt_mem_sdram+0xf84211d4>
  422318:	d8c02e17 	ldw	r3,184(sp)
  42231c:	d9002e17 	ldw	r4,184(sp)
  422320:	d9402e17 	ldw	r5,184(sp)
  422324:	18c00017 	ldw	r3,0(r3)
  422328:	21000117 	ldw	r4,4(r4)
  42232c:	29400204 	addi	r5,r5,8
  422330:	d8c03615 	stw	r3,216(sp)
  422334:	d9003815 	stw	r4,224(sp)
  422338:	d9402e15 	stw	r5,184(sp)
  42233c:	003b5006 	br	421080 <__alt_mem_sdram+0xf8421080>
  422340:	ac400007 	ldb	r17,0(r21)
  422344:	003a2806 	br	420be8 <__alt_mem_sdram+0xf8420be8>
  422348:	9080100c 	andi	r2,r18,64
  42234c:	1000a826 	beq	r2,zero,4225f0 <___vfprintf_internal_r+0x1b90>
  422350:	d8c02e17 	ldw	r3,184(sp)
  422354:	002d883a 	mov	r22,zero
  422358:	1cc0000b 	ldhu	r19,0(r3)
  42235c:	18c00104 	addi	r3,r3,4
  422360:	d8c02e15 	stw	r3,184(sp)
  422364:	003caf06 	br	421624 <__alt_mem_sdram+0xf8421624>
  422368:	d9002e17 	ldw	r4,184(sp)
  42236c:	d9402a17 	ldw	r5,168(sp)
  422370:	002d883a 	mov	r22,zero
  422374:	20800104 	addi	r2,r4,4
  422378:	24c00017 	ldw	r19,0(r4)
  42237c:	283ebb0e 	bge	r5,zero,421e6c <__alt_mem_sdram+0xf8421e6c>
  422380:	003ef106 	br	421f48 <__alt_mem_sdram+0xf8421f48>
  422384:	9080040c 	andi	r2,r18,16
  422388:	1000921e 	bne	r2,zero,4225d4 <___vfprintf_internal_r+0x1b74>
  42238c:	9480100c 	andi	r18,r18,64
  422390:	90013926 	beq	r18,zero,422878 <___vfprintf_internal_r+0x1e18>
  422394:	d9402e17 	ldw	r5,184(sp)
  422398:	d8c02f17 	ldw	r3,188(sp)
  42239c:	28800017 	ldw	r2,0(r5)
  4223a0:	29400104 	addi	r5,r5,4
  4223a4:	d9402e15 	stw	r5,184(sp)
  4223a8:	10c0000d 	sth	r3,0(r2)
  4223ac:	0039e406 	br	420b40 <__alt_mem_sdram+0xf8420b40>
  4223b0:	9080100c 	andi	r2,r18,64
  4223b4:	10008026 	beq	r2,zero,4225b8 <___vfprintf_internal_r+0x1b58>
  4223b8:	d8802e17 	ldw	r2,184(sp)
  4223bc:	14c0000f 	ldh	r19,0(r2)
  4223c0:	10800104 	addi	r2,r2,4
  4223c4:	d8802e15 	stw	r2,184(sp)
  4223c8:	982dd7fa 	srai	r22,r19,31
  4223cc:	b005883a 	mov	r2,r22
  4223d0:	003af706 	br	420fb0 <__alt_mem_sdram+0xf8420fb0>
  4223d4:	9080100c 	andi	r2,r18,64
  4223d8:	d8002785 	stb	zero,158(sp)
  4223dc:	10008a1e 	bne	r2,zero,422608 <___vfprintf_internal_r+0x1ba8>
  4223e0:	d9002e17 	ldw	r4,184(sp)
  4223e4:	d9402a17 	ldw	r5,168(sp)
  4223e8:	002d883a 	mov	r22,zero
  4223ec:	20800104 	addi	r2,r4,4
  4223f0:	24c00017 	ldw	r19,0(r4)
  4223f4:	283e4b0e 	bge	r5,zero,421d24 <__alt_mem_sdram+0xf8421d24>
  4223f8:	9d86b03a 	or	r3,r19,r22
  4223fc:	d8802e15 	stw	r2,184(sp)
  422400:	183e4c1e 	bne	r3,zero,421d34 <__alt_mem_sdram+0xf8421d34>
  422404:	0039883a 	mov	fp,zero
  422408:	0005883a 	mov	r2,zero
  42240c:	003d4006 	br	421910 <__alt_mem_sdram+0xf8421910>
  422410:	014010f4 	movhi	r5,67
  422414:	2942ff84 	addi	r5,r5,3070
  422418:	d9402c15 	stw	r5,176(sp)
  42241c:	d9402c17 	ldw	r5,176(sp)
  422420:	1c47883a 	add	r3,r3,r17
  422424:	10800044 	addi	r2,r2,1
  422428:	41400015 	stw	r5,0(r8)
  42242c:	44400115 	stw	r17,4(r8)
  422430:	d8c02015 	stw	r3,128(sp)
  422434:	d8801f15 	stw	r2,124(sp)
  422438:	010001c4 	movi	r4,7
  42243c:	20bec816 	blt	r4,r2,421f60 <__alt_mem_sdram+0xf8421f60>
  422440:	42000204 	addi	r8,r8,8
  422444:	003ecd06 	br	421f7c <__alt_mem_sdram+0xf8421f7c>
  422448:	d9002a17 	ldw	r4,168(sp)
  42244c:	d8002785 	stb	zero,158(sp)
  422450:	203d2d16 	blt	r4,zero,421908 <__alt_mem_sdram+0xf8421908>
  422454:	00bfdfc4 	movi	r2,-129
  422458:	90a4703a 	and	r18,r18,r2
  42245c:	003a6106 	br	420de4 <__alt_mem_sdram+0xf8420de4>
  422460:	010010f4 	movhi	r4,67
  422464:	2102ff84 	addi	r4,r4,3070
  422468:	d9002c15 	stw	r4,176(sp)
  42246c:	003bea06 	br	421418 <__alt_mem_sdram+0xf8421418>
  422470:	d9002d17 	ldw	r4,180(sp)
  422474:	d9801e04 	addi	r6,sp,120
  422478:	b80b883a 	mov	r5,r23
  42247c:	04282400 	call	428240 <__sprint_r>
  422480:	103a7b1e 	bne	r2,zero,420e70 <__alt_mem_sdram+0xf8420e70>
  422484:	d8c02017 	ldw	r3,128(sp)
  422488:	da000404 	addi	r8,sp,16
  42248c:	003d4106 	br	421994 <__alt_mem_sdram+0xf8421994>
  422490:	d8801f17 	ldw	r2,124(sp)
  422494:	014010f4 	movhi	r5,67
  422498:	01000044 	movi	r4,1
  42249c:	18c00044 	addi	r3,r3,1
  4224a0:	10800044 	addi	r2,r2,1
  4224a4:	2942ff04 	addi	r5,r5,3068
  4224a8:	41000115 	stw	r4,4(r8)
  4224ac:	41400015 	stw	r5,0(r8)
  4224b0:	d8c02015 	stw	r3,128(sp)
  4224b4:	d8801f15 	stw	r2,124(sp)
  4224b8:	010001c4 	movi	r4,7
  4224bc:	20805c16 	blt	r4,r2,422630 <___vfprintf_internal_r+0x1bd0>
  4224c0:	42000204 	addi	r8,r8,8
  4224c4:	8800041e 	bne	r17,zero,4224d8 <___vfprintf_internal_r+0x1a78>
  4224c8:	d8803317 	ldw	r2,204(sp)
  4224cc:	1000021e 	bne	r2,zero,4224d8 <___vfprintf_internal_r+0x1a78>
  4224d0:	9080004c 	andi	r2,r18,1
  4224d4:	103be726 	beq	r2,zero,421474 <__alt_mem_sdram+0xf8421474>
  4224d8:	d9003717 	ldw	r4,220(sp)
  4224dc:	d8801f17 	ldw	r2,124(sp)
  4224e0:	d9403417 	ldw	r5,208(sp)
  4224e4:	20c7883a 	add	r3,r4,r3
  4224e8:	10800044 	addi	r2,r2,1
  4224ec:	41000115 	stw	r4,4(r8)
  4224f0:	41400015 	stw	r5,0(r8)
  4224f4:	d8c02015 	stw	r3,128(sp)
  4224f8:	d8801f15 	stw	r2,124(sp)
  4224fc:	010001c4 	movi	r4,7
  422500:	20812116 	blt	r4,r2,422988 <___vfprintf_internal_r+0x1f28>
  422504:	42000204 	addi	r8,r8,8
  422508:	0463c83a 	sub	r17,zero,r17
  42250c:	0440730e 	bge	zero,r17,4226dc <___vfprintf_internal_r+0x1c7c>
  422510:	05800404 	movi	r22,16
  422514:	b440860e 	bge	r22,r17,422730 <___vfprintf_internal_r+0x1cd0>
  422518:	014010f4 	movhi	r5,67
  42251c:	2942ff84 	addi	r5,r5,3070
  422520:	d9402c15 	stw	r5,176(sp)
  422524:	070001c4 	movi	fp,7
  422528:	dcc02d17 	ldw	r19,180(sp)
  42252c:	00000306 	br	42253c <___vfprintf_internal_r+0x1adc>
  422530:	42000204 	addi	r8,r8,8
  422534:	8c7ffc04 	addi	r17,r17,-16
  422538:	b440800e 	bge	r22,r17,42273c <___vfprintf_internal_r+0x1cdc>
  42253c:	18c00404 	addi	r3,r3,16
  422540:	10800044 	addi	r2,r2,1
  422544:	45000015 	stw	r20,0(r8)
  422548:	45800115 	stw	r22,4(r8)
  42254c:	d8c02015 	stw	r3,128(sp)
  422550:	d8801f15 	stw	r2,124(sp)
  422554:	e0bff60e 	bge	fp,r2,422530 <__alt_mem_sdram+0xf8422530>
  422558:	d9801e04 	addi	r6,sp,120
  42255c:	b80b883a 	mov	r5,r23
  422560:	9809883a 	mov	r4,r19
  422564:	04282400 	call	428240 <__sprint_r>
  422568:	103a411e 	bne	r2,zero,420e70 <__alt_mem_sdram+0xf8420e70>
  42256c:	d8c02017 	ldw	r3,128(sp)
  422570:	d8801f17 	ldw	r2,124(sp)
  422574:	da000404 	addi	r8,sp,16
  422578:	003fee06 	br	422534 <__alt_mem_sdram+0xf8422534>
  42257c:	00bfffc4 	movi	r2,-1
  422580:	003a3f06 	br	420e80 <__alt_mem_sdram+0xf8420e80>
  422584:	008011c4 	movi	r2,71
  422588:	1440b816 	blt	r2,r17,42286c <___vfprintf_internal_r+0x1e0c>
  42258c:	040010f4 	movhi	r16,67
  422590:	8402f104 	addi	r16,r16,3012
  422594:	00c000c4 	movi	r3,3
  422598:	00bfdfc4 	movi	r2,-129
  42259c:	d8c02915 	stw	r3,164(sp)
  4225a0:	90a4703a 	and	r18,r18,r2
  4225a4:	df002783 	ldbu	fp,158(sp)
  4225a8:	d8c02b15 	stw	r3,172(sp)
  4225ac:	d8002a15 	stw	zero,168(sp)
  4225b0:	d8003215 	stw	zero,200(sp)
  4225b4:	003b0706 	br	4211d4 <__alt_mem_sdram+0xf84211d4>
  4225b8:	d8c02e17 	ldw	r3,184(sp)
  4225bc:	1cc00017 	ldw	r19,0(r3)
  4225c0:	18c00104 	addi	r3,r3,4
  4225c4:	d8c02e15 	stw	r3,184(sp)
  4225c8:	982dd7fa 	srai	r22,r19,31
  4225cc:	b005883a 	mov	r2,r22
  4225d0:	003a7706 	br	420fb0 <__alt_mem_sdram+0xf8420fb0>
  4225d4:	d8c02e17 	ldw	r3,184(sp)
  4225d8:	d9002f17 	ldw	r4,188(sp)
  4225dc:	18800017 	ldw	r2,0(r3)
  4225e0:	18c00104 	addi	r3,r3,4
  4225e4:	d8c02e15 	stw	r3,184(sp)
  4225e8:	11000015 	stw	r4,0(r2)
  4225ec:	00395406 	br	420b40 <__alt_mem_sdram+0xf8420b40>
  4225f0:	d9002e17 	ldw	r4,184(sp)
  4225f4:	002d883a 	mov	r22,zero
  4225f8:	24c00017 	ldw	r19,0(r4)
  4225fc:	21000104 	addi	r4,r4,4
  422600:	d9002e15 	stw	r4,184(sp)
  422604:	003c0706 	br	421624 <__alt_mem_sdram+0xf8421624>
  422608:	d9402e17 	ldw	r5,184(sp)
  42260c:	d8c02a17 	ldw	r3,168(sp)
  422610:	002d883a 	mov	r22,zero
  422614:	28800104 	addi	r2,r5,4
  422618:	2cc0000b 	ldhu	r19,0(r5)
  42261c:	183dc10e 	bge	r3,zero,421d24 <__alt_mem_sdram+0xf8421d24>
  422620:	003f7506 	br	4223f8 <__alt_mem_sdram+0xf84223f8>
  422624:	040010f4 	movhi	r16,67
  422628:	8402ef04 	addi	r16,r16,3004
  42262c:	003aa706 	br	4210cc <__alt_mem_sdram+0xf84210cc>
  422630:	d9002d17 	ldw	r4,180(sp)
  422634:	d9801e04 	addi	r6,sp,120
  422638:	b80b883a 	mov	r5,r23
  42263c:	04282400 	call	428240 <__sprint_r>
  422640:	103a0b1e 	bne	r2,zero,420e70 <__alt_mem_sdram+0xf8420e70>
  422644:	dc402617 	ldw	r17,152(sp)
  422648:	d8c02017 	ldw	r3,128(sp)
  42264c:	da000404 	addi	r8,sp,16
  422650:	003f9c06 	br	4224c4 <__alt_mem_sdram+0xf84224c4>
  422654:	ac400043 	ldbu	r17,1(r21)
  422658:	84000814 	ori	r16,r16,32
  42265c:	ad400044 	addi	r21,r21,1
  422660:	8c403fcc 	andi	r17,r17,255
  422664:	8c40201c 	xori	r17,r17,128
  422668:	8c7fe004 	addi	r17,r17,-128
  42266c:	00395e06 	br	420be8 <__alt_mem_sdram+0xf8420be8>
  422670:	d8c02e15 	stw	r3,184(sp)
  422674:	0039883a 	mov	fp,zero
  422678:	003e3506 	br	421f50 <__alt_mem_sdram+0xf8421f50>
  42267c:	d9002d17 	ldw	r4,180(sp)
  422680:	d9801e04 	addi	r6,sp,120
  422684:	b80b883a 	mov	r5,r23
  422688:	04282400 	call	428240 <__sprint_r>
  42268c:	1039f81e 	bne	r2,zero,420e70 <__alt_mem_sdram+0xf8420e70>
  422690:	d8c02017 	ldw	r3,128(sp)
  422694:	da000404 	addi	r8,sp,16
  422698:	003cd006 	br	4219dc <__alt_mem_sdram+0xf84219dc>
  42269c:	8009883a 	mov	r4,r16
  4226a0:	df003d15 	stw	fp,244(sp)
  4226a4:	04209c80 	call	4209c8 <strlen>
  4226a8:	d8802b15 	stw	r2,172(sp)
  4226ac:	da003d17 	ldw	r8,244(sp)
  4226b0:	103c200e 	bge	r2,zero,421734 <__alt_mem_sdram+0xf8421734>
  4226b4:	0005883a 	mov	r2,zero
  4226b8:	003c1e06 	br	421734 <__alt_mem_sdram+0xf8421734>
  4226bc:	d9002d17 	ldw	r4,180(sp)
  4226c0:	d9801e04 	addi	r6,sp,120
  4226c4:	b80b883a 	mov	r5,r23
  4226c8:	04282400 	call	428240 <__sprint_r>
  4226cc:	1039e81e 	bne	r2,zero,420e70 <__alt_mem_sdram+0xf8420e70>
  4226d0:	d8c02017 	ldw	r3,128(sp)
  4226d4:	d8801f17 	ldw	r2,124(sp)
  4226d8:	da000404 	addi	r8,sp,16
  4226dc:	d9403317 	ldw	r5,204(sp)
  4226e0:	10800044 	addi	r2,r2,1
  4226e4:	44000015 	stw	r16,0(r8)
  4226e8:	28c7883a 	add	r3,r5,r3
  4226ec:	003b5b06 	br	42145c <__alt_mem_sdram+0xf842145c>
  4226f0:	010010f4 	movhi	r4,67
  4226f4:	21030384 	addi	r4,r4,3086
  4226f8:	d9003515 	stw	r4,212(sp)
  4226fc:	003af206 	br	4212c8 <__alt_mem_sdram+0xf84212c8>
  422700:	013fffc4 	movi	r4,-1
  422704:	003a0806 	br	420f28 <__alt_mem_sdram+0xf8420f28>
  422708:	0023883a 	mov	r17,zero
  42270c:	003d9d06 	br	421d84 <__alt_mem_sdram+0xf8421d84>
  422710:	d9002d17 	ldw	r4,180(sp)
  422714:	d9801e04 	addi	r6,sp,120
  422718:	b80b883a 	mov	r5,r23
  42271c:	04282400 	call	428240 <__sprint_r>
  422720:	1039d31e 	bne	r2,zero,420e70 <__alt_mem_sdram+0xf8420e70>
  422724:	d8c02017 	ldw	r3,128(sp)
  422728:	da000404 	addi	r8,sp,16
  42272c:	003d9406 	br	421d80 <__alt_mem_sdram+0xf8421d80>
  422730:	010010f4 	movhi	r4,67
  422734:	2102ff84 	addi	r4,r4,3070
  422738:	d9002c15 	stw	r4,176(sp)
  42273c:	d9002c17 	ldw	r4,176(sp)
  422740:	1c47883a 	add	r3,r3,r17
  422744:	10800044 	addi	r2,r2,1
  422748:	41000015 	stw	r4,0(r8)
  42274c:	44400115 	stw	r17,4(r8)
  422750:	d8c02015 	stw	r3,128(sp)
  422754:	d8801f15 	stw	r2,124(sp)
  422758:	010001c4 	movi	r4,7
  42275c:	20bfd716 	blt	r4,r2,4226bc <__alt_mem_sdram+0xf84226bc>
  422760:	42000204 	addi	r8,r8,8
  422764:	003fdd06 	br	4226dc <__alt_mem_sdram+0xf84226dc>
  422768:	d9002d17 	ldw	r4,180(sp)
  42276c:	d9801e04 	addi	r6,sp,120
  422770:	b80b883a 	mov	r5,r23
  422774:	04282400 	call	428240 <__sprint_r>
  422778:	1039bd1e 	bne	r2,zero,420e70 <__alt_mem_sdram+0xf8420e70>
  42277c:	d8802617 	ldw	r2,152(sp)
  422780:	d8c02017 	ldw	r3,128(sp)
  422784:	da000404 	addi	r8,sp,16
  422788:	003e1006 	br	421fcc <__alt_mem_sdram+0xf8421fcc>
  42278c:	00800044 	movi	r2,1
  422790:	10803fcc 	andi	r2,r2,255
  422794:	00c00044 	movi	r3,1
  422798:	10fa0d26 	beq	r2,r3,420fd0 <__alt_mem_sdram+0xf8420fd0>
  42279c:	00c00084 	movi	r3,2
  4227a0:	10fbaf26 	beq	r2,r3,421660 <__alt_mem_sdram+0xf8421660>
  4227a4:	003a6d06 	br	42115c <__alt_mem_sdram+0xf842115c>
  4227a8:	010010f4 	movhi	r4,67
  4227ac:	21030384 	addi	r4,r4,3086
  4227b0:	d9003515 	stw	r4,212(sp)
  4227b4:	003b5406 	br	421508 <__alt_mem_sdram+0xf8421508>
  4227b8:	d8802a17 	ldw	r2,168(sp)
  4227bc:	00c00184 	movi	r3,6
  4227c0:	1880012e 	bgeu	r3,r2,4227c8 <___vfprintf_internal_r+0x1d68>
  4227c4:	1805883a 	mov	r2,r3
  4227c8:	d8802b15 	stw	r2,172(sp)
  4227cc:	1000ef16 	blt	r2,zero,422b8c <___vfprintf_internal_r+0x212c>
  4227d0:	040010f4 	movhi	r16,67
  4227d4:	d8802915 	stw	r2,164(sp)
  4227d8:	dcc02e15 	stw	r19,184(sp)
  4227dc:	d8002a15 	stw	zero,168(sp)
  4227e0:	d8003215 	stw	zero,200(sp)
  4227e4:	8402fd04 	addi	r16,r16,3060
  4227e8:	0039883a 	mov	fp,zero
  4227ec:	003a8006 	br	4211f0 <__alt_mem_sdram+0xf84211f0>
  4227f0:	0021883a 	mov	r16,zero
  4227f4:	003e0706 	br	422014 <__alt_mem_sdram+0xf8422014>
  4227f8:	d9002d17 	ldw	r4,180(sp)
  4227fc:	d9801e04 	addi	r6,sp,120
  422800:	b80b883a 	mov	r5,r23
  422804:	04282400 	call	428240 <__sprint_r>
  422808:	1039991e 	bne	r2,zero,420e70 <__alt_mem_sdram+0xf8420e70>
  42280c:	d8802617 	ldw	r2,152(sp)
  422810:	d9403317 	ldw	r5,204(sp)
  422814:	d8c02017 	ldw	r3,128(sp)
  422818:	da000404 	addi	r8,sp,16
  42281c:	2885c83a 	sub	r2,r5,r2
  422820:	003dfb06 	br	422010 <__alt_mem_sdram+0xf8422010>
  422824:	9080004c 	andi	r2,r18,1
  422828:	103e8f1e 	bne	r2,zero,422268 <__alt_mem_sdram+0xf8422268>
  42282c:	d8802117 	ldw	r2,132(sp)
  422830:	003e9e06 	br	4222ac <__alt_mem_sdram+0xf84222ac>
  422834:	1025883a 	mov	r18,r2
  422838:	0039883a 	mov	fp,zero
  42283c:	00800084 	movi	r2,2
  422840:	003fd306 	br	422790 <__alt_mem_sdram+0xf8422790>
  422844:	07000b44 	movi	fp,45
  422848:	df002785 	stb	fp,158(sp)
  42284c:	003a1b06 	br	4210bc <__alt_mem_sdram+0xf84210bc>
  422850:	00c00b44 	movi	r3,45
  422854:	d8c02785 	stb	r3,158(sp)
  422858:	d8802915 	stw	r2,164(sp)
  42285c:	dc802c17 	ldw	r18,176(sp)
  422860:	d8002a15 	stw	zero,168(sp)
  422864:	07000b44 	movi	fp,45
  422868:	003a5e06 	br	4211e4 <__alt_mem_sdram+0xf84211e4>
  42286c:	040010f4 	movhi	r16,67
  422870:	8402f204 	addi	r16,r16,3016
  422874:	003f4706 	br	422594 <__alt_mem_sdram+0xf8422594>
  422878:	d9002e17 	ldw	r4,184(sp)
  42287c:	d9402f17 	ldw	r5,188(sp)
  422880:	20800017 	ldw	r2,0(r4)
  422884:	21000104 	addi	r4,r4,4
  422888:	d9002e15 	stw	r4,184(sp)
  42288c:	11400015 	stw	r5,0(r2)
  422890:	0038ab06 	br	420b40 <__alt_mem_sdram+0xf8420b40>
  422894:	dd802617 	ldw	r22,152(sp)
  422898:	00bfff44 	movi	r2,-3
  42289c:	b0801c16 	blt	r22,r2,422910 <___vfprintf_internal_r+0x1eb0>
  4228a0:	d9402a17 	ldw	r5,168(sp)
  4228a4:	2d801a16 	blt	r5,r22,422910 <___vfprintf_internal_r+0x1eb0>
  4228a8:	dd803215 	stw	r22,200(sp)
  4228ac:	003e8906 	br	4222d4 <__alt_mem_sdram+0xf84222d4>
  4228b0:	010010f4 	movhi	r4,67
  4228b4:	2102ff84 	addi	r4,r4,3070
  4228b8:	d9002c15 	stw	r4,176(sp)
  4228bc:	003c9106 	br	421b04 <__alt_mem_sdram+0xf8421b04>
  4228c0:	e005883a 	mov	r2,fp
  4228c4:	003e7906 	br	4222ac <__alt_mem_sdram+0xf84222ac>
  4228c8:	d9002a17 	ldw	r4,168(sp)
  4228cc:	df002783 	ldbu	fp,158(sp)
  4228d0:	dcc02e15 	stw	r19,184(sp)
  4228d4:	d9002915 	stw	r4,164(sp)
  4228d8:	d9002b15 	stw	r4,172(sp)
  4228dc:	d8002a15 	stw	zero,168(sp)
  4228e0:	d8003215 	stw	zero,200(sp)
  4228e4:	003a3b06 	br	4211d4 <__alt_mem_sdram+0xf84211d4>
  4228e8:	9080004c 	andi	r2,r18,1
  4228ec:	0039883a 	mov	fp,zero
  4228f0:	10000426 	beq	r2,zero,422904 <___vfprintf_internal_r+0x1ea4>
  4228f4:	00800c04 	movi	r2,48
  4228f8:	dc001dc4 	addi	r16,sp,119
  4228fc:	d8801dc5 	stb	r2,119(sp)
  422900:	003b6406 	br	421694 <__alt_mem_sdram+0xf8421694>
  422904:	d8002b15 	stw	zero,172(sp)
  422908:	dc001e04 	addi	r16,sp,120
  42290c:	003a2b06 	br	4211bc <__alt_mem_sdram+0xf84211bc>
  422910:	8c7fff84 	addi	r17,r17,-2
  422914:	b5bfffc4 	addi	r22,r22,-1
  422918:	dd802615 	stw	r22,152(sp)
  42291c:	dc4022c5 	stb	r17,139(sp)
  422920:	b000bf16 	blt	r22,zero,422c20 <___vfprintf_internal_r+0x21c0>
  422924:	00800ac4 	movi	r2,43
  422928:	d8802305 	stb	r2,140(sp)
  42292c:	00800244 	movi	r2,9
  422930:	15807016 	blt	r2,r22,422af4 <___vfprintf_internal_r+0x2094>
  422934:	00800c04 	movi	r2,48
  422938:	b5800c04 	addi	r22,r22,48
  42293c:	d8802345 	stb	r2,141(sp)
  422940:	dd802385 	stb	r22,142(sp)
  422944:	d88023c4 	addi	r2,sp,143
  422948:	df0022c4 	addi	fp,sp,139
  42294c:	d8c03317 	ldw	r3,204(sp)
  422950:	1739c83a 	sub	fp,r2,fp
  422954:	d9003317 	ldw	r4,204(sp)
  422958:	e0c7883a 	add	r3,fp,r3
  42295c:	df003a15 	stw	fp,232(sp)
  422960:	d8c02b15 	stw	r3,172(sp)
  422964:	00800044 	movi	r2,1
  422968:	1100b30e 	bge	r2,r4,422c38 <___vfprintf_internal_r+0x21d8>
  42296c:	d8c02b17 	ldw	r3,172(sp)
  422970:	18c00044 	addi	r3,r3,1
  422974:	d8c02b15 	stw	r3,172(sp)
  422978:	1805883a 	mov	r2,r3
  42297c:	1800ac16 	blt	r3,zero,422c30 <___vfprintf_internal_r+0x21d0>
  422980:	d8003215 	stw	zero,200(sp)
  422984:	003e5d06 	br	4222fc <__alt_mem_sdram+0xf84222fc>
  422988:	d9002d17 	ldw	r4,180(sp)
  42298c:	d9801e04 	addi	r6,sp,120
  422990:	b80b883a 	mov	r5,r23
  422994:	04282400 	call	428240 <__sprint_r>
  422998:	1039351e 	bne	r2,zero,420e70 <__alt_mem_sdram+0xf8420e70>
  42299c:	dc402617 	ldw	r17,152(sp)
  4229a0:	d8c02017 	ldw	r3,128(sp)
  4229a4:	d8801f17 	ldw	r2,124(sp)
  4229a8:	da000404 	addi	r8,sp,16
  4229ac:	003ed606 	br	422508 <__alt_mem_sdram+0xf8422508>
  4229b0:	182b883a 	mov	r21,r3
  4229b4:	d8002a15 	stw	zero,168(sp)
  4229b8:	00388c06 	br	420bec <__alt_mem_sdram+0xf8420bec>
  4229bc:	d8802a17 	ldw	r2,168(sp)
  4229c0:	103e071e 	bne	r2,zero,4221e0 <__alt_mem_sdram+0xf84221e0>
  4229c4:	dc002a15 	stw	r16,168(sp)
  4229c8:	003e0506 	br	4221e0 <__alt_mem_sdram+0xf84221e0>
  4229cc:	d9002a17 	ldw	r4,168(sp)
  4229d0:	20c00044 	addi	r3,r4,1
  4229d4:	003e0f06 	br	422214 <__alt_mem_sdram+0xf8422214>
  4229d8:	01400184 	movi	r5,6
  4229dc:	d9402a15 	stw	r5,168(sp)
  4229e0:	003dff06 	br	4221e0 <__alt_mem_sdram+0xf84221e0>
  4229e4:	d8802104 	addi	r2,sp,132
  4229e8:	d8800315 	stw	r2,12(sp)
  4229ec:	d8802504 	addi	r2,sp,148
  4229f0:	d8800215 	stw	r2,8(sp)
  4229f4:	d8802604 	addi	r2,sp,152
  4229f8:	d8800115 	stw	r2,4(sp)
  4229fc:	d8802a17 	ldw	r2,168(sp)
  422a00:	d9403617 	ldw	r5,216(sp)
  422a04:	d9002d17 	ldw	r4,180(sp)
  422a08:	d8800015 	stw	r2,0(sp)
  422a0c:	01c000c4 	movi	r7,3
  422a10:	980d883a 	mov	r6,r19
  422a14:	da003d15 	stw	r8,244(sp)
  422a18:	04231900 	call	423190 <_dtoa_r>
  422a1c:	d8c02a17 	ldw	r3,168(sp)
  422a20:	da003d17 	ldw	r8,244(sp)
  422a24:	1021883a 	mov	r16,r2
  422a28:	10f9883a 	add	fp,r2,r3
  422a2c:	81000007 	ldb	r4,0(r16)
  422a30:	00800c04 	movi	r2,48
  422a34:	20805e26 	beq	r4,r2,422bb0 <___vfprintf_internal_r+0x2150>
  422a38:	d8c02617 	ldw	r3,152(sp)
  422a3c:	e0f9883a 	add	fp,fp,r3
  422a40:	003e0a06 	br	42226c <__alt_mem_sdram+0xf842226c>
  422a44:	00c00b44 	movi	r3,45
  422a48:	24e0003c 	xorhi	r19,r4,32768
  422a4c:	d8c02905 	stb	r3,164(sp)
  422a50:	003de906 	br	4221f8 <__alt_mem_sdram+0xf84221f8>
  422a54:	d8c03217 	ldw	r3,200(sp)
  422a58:	00c07a0e 	bge	zero,r3,422c44 <___vfprintf_internal_r+0x21e4>
  422a5c:	00800044 	movi	r2,1
  422a60:	d9003317 	ldw	r4,204(sp)
  422a64:	1105883a 	add	r2,r2,r4
  422a68:	d8802b15 	stw	r2,172(sp)
  422a6c:	10004e16 	blt	r2,zero,422ba8 <___vfprintf_internal_r+0x2148>
  422a70:	044019c4 	movi	r17,103
  422a74:	003e2106 	br	4222fc <__alt_mem_sdram+0xf84222fc>
  422a78:	d9002a17 	ldw	r4,168(sp)
  422a7c:	d8802104 	addi	r2,sp,132
  422a80:	d8800315 	stw	r2,12(sp)
  422a84:	d9000015 	stw	r4,0(sp)
  422a88:	d8802504 	addi	r2,sp,148
  422a8c:	d9403617 	ldw	r5,216(sp)
  422a90:	d9002d17 	ldw	r4,180(sp)
  422a94:	d8800215 	stw	r2,8(sp)
  422a98:	d8802604 	addi	r2,sp,152
  422a9c:	d8800115 	stw	r2,4(sp)
  422aa0:	01c000c4 	movi	r7,3
  422aa4:	980d883a 	mov	r6,r19
  422aa8:	da003d15 	stw	r8,244(sp)
  422aac:	04231900 	call	423190 <_dtoa_r>
  422ab0:	d8c02a17 	ldw	r3,168(sp)
  422ab4:	da003d17 	ldw	r8,244(sp)
  422ab8:	1021883a 	mov	r16,r2
  422abc:	00801184 	movi	r2,70
  422ac0:	80f9883a 	add	fp,r16,r3
  422ac4:	88bfd926 	beq	r17,r2,422a2c <__alt_mem_sdram+0xf8422a2c>
  422ac8:	003de806 	br	42226c <__alt_mem_sdram+0xf842226c>
  422acc:	d9002a17 	ldw	r4,168(sp)
  422ad0:	00c04d0e 	bge	zero,r3,422c08 <___vfprintf_internal_r+0x21a8>
  422ad4:	2000441e 	bne	r4,zero,422be8 <___vfprintf_internal_r+0x2188>
  422ad8:	9480004c 	andi	r18,r18,1
  422adc:	9000421e 	bne	r18,zero,422be8 <___vfprintf_internal_r+0x2188>
  422ae0:	1805883a 	mov	r2,r3
  422ae4:	18006f16 	blt	r3,zero,422ca4 <___vfprintf_internal_r+0x2244>
  422ae8:	d8c03217 	ldw	r3,200(sp)
  422aec:	d8c02b15 	stw	r3,172(sp)
  422af0:	003e0206 	br	4222fc <__alt_mem_sdram+0xf84222fc>
  422af4:	df0022c4 	addi	fp,sp,139
  422af8:	dc002a15 	stw	r16,168(sp)
  422afc:	4027883a 	mov	r19,r8
  422b00:	e021883a 	mov	r16,fp
  422b04:	b009883a 	mov	r4,r22
  422b08:	01400284 	movi	r5,10
  422b0c:	042adcc0 	call	42adcc <__modsi3>
  422b10:	10800c04 	addi	r2,r2,48
  422b14:	843fffc4 	addi	r16,r16,-1
  422b18:	b009883a 	mov	r4,r22
  422b1c:	01400284 	movi	r5,10
  422b20:	80800005 	stb	r2,0(r16)
  422b24:	042ad480 	call	42ad48 <__divsi3>
  422b28:	102d883a 	mov	r22,r2
  422b2c:	00800244 	movi	r2,9
  422b30:	15bff416 	blt	r2,r22,422b04 <__alt_mem_sdram+0xf8422b04>
  422b34:	9811883a 	mov	r8,r19
  422b38:	b0800c04 	addi	r2,r22,48
  422b3c:	8027883a 	mov	r19,r16
  422b40:	997fffc4 	addi	r5,r19,-1
  422b44:	98bfffc5 	stb	r2,-1(r19)
  422b48:	dc002a17 	ldw	r16,168(sp)
  422b4c:	2f006d2e 	bgeu	r5,fp,422d04 <___vfprintf_internal_r+0x22a4>
  422b50:	d9c02384 	addi	r7,sp,142
  422b54:	3ccfc83a 	sub	r7,r7,r19
  422b58:	d9002344 	addi	r4,sp,141
  422b5c:	e1cf883a 	add	r7,fp,r7
  422b60:	00000106 	br	422b68 <___vfprintf_internal_r+0x2108>
  422b64:	28800003 	ldbu	r2,0(r5)
  422b68:	20800005 	stb	r2,0(r4)
  422b6c:	21000044 	addi	r4,r4,1
  422b70:	29400044 	addi	r5,r5,1
  422b74:	393ffb1e 	bne	r7,r4,422b64 <__alt_mem_sdram+0xf8422b64>
  422b78:	d8802304 	addi	r2,sp,140
  422b7c:	14c5c83a 	sub	r2,r2,r19
  422b80:	d8c02344 	addi	r3,sp,141
  422b84:	1885883a 	add	r2,r3,r2
  422b88:	003f7006 	br	42294c <__alt_mem_sdram+0xf842294c>
  422b8c:	0005883a 	mov	r2,zero
  422b90:	003f0f06 	br	4227d0 <__alt_mem_sdram+0xf84227d0>
  422b94:	d8c03217 	ldw	r3,200(sp)
  422b98:	18c00044 	addi	r3,r3,1
  422b9c:	d8c02b15 	stw	r3,172(sp)
  422ba0:	1805883a 	mov	r2,r3
  422ba4:	183fb20e 	bge	r3,zero,422a70 <__alt_mem_sdram+0xf8422a70>
  422ba8:	0005883a 	mov	r2,zero
  422bac:	003fb006 	br	422a70 <__alt_mem_sdram+0xf8422a70>
  422bb0:	d9003617 	ldw	r4,216(sp)
  422bb4:	000d883a 	mov	r6,zero
  422bb8:	000f883a 	mov	r7,zero
  422bbc:	980b883a 	mov	r5,r19
  422bc0:	d8c03c15 	stw	r3,240(sp)
  422bc4:	da003d15 	stw	r8,244(sp)
  422bc8:	042c1780 	call	42c178 <__eqdf2>
  422bcc:	d8c03c17 	ldw	r3,240(sp)
  422bd0:	da003d17 	ldw	r8,244(sp)
  422bd4:	103f9826 	beq	r2,zero,422a38 <__alt_mem_sdram+0xf8422a38>
  422bd8:	00800044 	movi	r2,1
  422bdc:	10c7c83a 	sub	r3,r2,r3
  422be0:	d8c02615 	stw	r3,152(sp)
  422be4:	003f9506 	br	422a3c <__alt_mem_sdram+0xf8422a3c>
  422be8:	d9002a17 	ldw	r4,168(sp)
  422bec:	d8c03217 	ldw	r3,200(sp)
  422bf0:	20800044 	addi	r2,r4,1
  422bf4:	1885883a 	add	r2,r3,r2
  422bf8:	d8802b15 	stw	r2,172(sp)
  422bfc:	103dbf0e 	bge	r2,zero,4222fc <__alt_mem_sdram+0xf84222fc>
  422c00:	0005883a 	mov	r2,zero
  422c04:	003dbd06 	br	4222fc <__alt_mem_sdram+0xf84222fc>
  422c08:	2000201e 	bne	r4,zero,422c8c <___vfprintf_internal_r+0x222c>
  422c0c:	9480004c 	andi	r18,r18,1
  422c10:	90001e1e 	bne	r18,zero,422c8c <___vfprintf_internal_r+0x222c>
  422c14:	00800044 	movi	r2,1
  422c18:	d8802b15 	stw	r2,172(sp)
  422c1c:	003db706 	br	4222fc <__alt_mem_sdram+0xf84222fc>
  422c20:	00800b44 	movi	r2,45
  422c24:	05adc83a 	sub	r22,zero,r22
  422c28:	d8802305 	stb	r2,140(sp)
  422c2c:	003f3f06 	br	42292c <__alt_mem_sdram+0xf842292c>
  422c30:	0005883a 	mov	r2,zero
  422c34:	003f5206 	br	422980 <__alt_mem_sdram+0xf8422980>
  422c38:	90a4703a 	and	r18,r18,r2
  422c3c:	903f4e26 	beq	r18,zero,422978 <__alt_mem_sdram+0xf8422978>
  422c40:	003f4a06 	br	42296c <__alt_mem_sdram+0xf842296c>
  422c44:	00800084 	movi	r2,2
  422c48:	10c5c83a 	sub	r2,r2,r3
  422c4c:	003f8406 	br	422a60 <__alt_mem_sdram+0xf8422a60>
  422c50:	d9402e17 	ldw	r5,184(sp)
  422c54:	d9002e17 	ldw	r4,184(sp)
  422c58:	ac400043 	ldbu	r17,1(r21)
  422c5c:	29400017 	ldw	r5,0(r5)
  422c60:	20800104 	addi	r2,r4,4
  422c64:	d8802e15 	stw	r2,184(sp)
  422c68:	d9402a15 	stw	r5,168(sp)
  422c6c:	182b883a 	mov	r21,r3
  422c70:	283e7b0e 	bge	r5,zero,422660 <__alt_mem_sdram+0xf8422660>
  422c74:	8c403fcc 	andi	r17,r17,255
  422c78:	017fffc4 	movi	r5,-1
  422c7c:	8c40201c 	xori	r17,r17,128
  422c80:	d9402a15 	stw	r5,168(sp)
  422c84:	8c7fe004 	addi	r17,r17,-128
  422c88:	0037d706 	br	420be8 <__alt_mem_sdram+0xf8420be8>
  422c8c:	d8c02a17 	ldw	r3,168(sp)
  422c90:	18c00084 	addi	r3,r3,2
  422c94:	d8c02b15 	stw	r3,172(sp)
  422c98:	1805883a 	mov	r2,r3
  422c9c:	183d970e 	bge	r3,zero,4222fc <__alt_mem_sdram+0xf84222fc>
  422ca0:	003fd706 	br	422c00 <__alt_mem_sdram+0xf8422c00>
  422ca4:	0005883a 	mov	r2,zero
  422ca8:	003f8f06 	br	422ae8 <__alt_mem_sdram+0xf8422ae8>
  422cac:	9080004c 	andi	r2,r18,1
  422cb0:	103f821e 	bne	r2,zero,422abc <__alt_mem_sdram+0xf8422abc>
  422cb4:	d8802117 	ldw	r2,132(sp)
  422cb8:	1405c83a 	sub	r2,r2,r16
  422cbc:	d8803315 	stw	r2,204(sp)
  422cc0:	b47ef426 	beq	r22,r17,422894 <__alt_mem_sdram+0xf8422894>
  422cc4:	dd802617 	ldw	r22,152(sp)
  422cc8:	003f1206 	br	422914 <__alt_mem_sdram+0xf8422914>
  422ccc:	d8c02b03 	ldbu	r3,172(sp)
  422cd0:	d8c02785 	stb	r3,158(sp)
  422cd4:	0038df06 	br	421054 <__alt_mem_sdram+0xf8421054>
  422cd8:	d8c02b03 	ldbu	r3,172(sp)
  422cdc:	d8c02785 	stb	r3,158(sp)
  422ce0:	0038aa06 	br	420f8c <__alt_mem_sdram+0xf8420f8c>
  422ce4:	d8c02b03 	ldbu	r3,172(sp)
  422ce8:	d8c02785 	stb	r3,158(sp)
  422cec:	003a4306 	br	4215fc <__alt_mem_sdram+0xf84215fc>
  422cf0:	d8c02b03 	ldbu	r3,172(sp)
  422cf4:	d8c02785 	stb	r3,158(sp)
  422cf8:	003af506 	br	4218d0 <__alt_mem_sdram+0xf84218d0>
  422cfc:	0005883a 	mov	r2,zero
  422d00:	003d7b06 	br	4222f0 <__alt_mem_sdram+0xf84222f0>
  422d04:	d8802344 	addi	r2,sp,141
  422d08:	003f1006 	br	42294c <__alt_mem_sdram+0xf842294c>
  422d0c:	d8c02b03 	ldbu	r3,172(sp)
  422d10:	d8c02785 	stb	r3,158(sp)
  422d14:	0038fd06 	br	42110c <__alt_mem_sdram+0xf842110c>
  422d18:	d8c02b03 	ldbu	r3,172(sp)
  422d1c:	d8c02785 	stb	r3,158(sp)
  422d20:	003a9706 	br	421780 <__alt_mem_sdram+0xf8421780>
  422d24:	d8c02b03 	ldbu	r3,172(sp)
  422d28:	d8c02785 	stb	r3,158(sp)
  422d2c:	003a1806 	br	421590 <__alt_mem_sdram+0xf8421590>
  422d30:	d8c02b03 	ldbu	r3,172(sp)
  422d34:	d8c02785 	stb	r3,158(sp)
  422d38:	003abe06 	br	421834 <__alt_mem_sdram+0xf8421834>

00422d3c <__vfprintf_internal>:
  422d3c:	008010f4 	movhi	r2,67
  422d40:	108a5a04 	addi	r2,r2,10600
  422d44:	300f883a 	mov	r7,r6
  422d48:	280d883a 	mov	r6,r5
  422d4c:	200b883a 	mov	r5,r4
  422d50:	11000017 	ldw	r4,0(r2)
  422d54:	0420a601 	jmpi	420a60 <___vfprintf_internal_r>

00422d58 <__sbprintf>:
  422d58:	2880030b 	ldhu	r2,12(r5)
  422d5c:	2ac01917 	ldw	r11,100(r5)
  422d60:	2a80038b 	ldhu	r10,14(r5)
  422d64:	2a400717 	ldw	r9,28(r5)
  422d68:	2a000917 	ldw	r8,36(r5)
  422d6c:	defee204 	addi	sp,sp,-1144
  422d70:	00c10004 	movi	r3,1024
  422d74:	dc011a15 	stw	r16,1128(sp)
  422d78:	10bfff4c 	andi	r2,r2,65533
  422d7c:	2821883a 	mov	r16,r5
  422d80:	d8cb883a 	add	r5,sp,r3
  422d84:	dc811c15 	stw	r18,1136(sp)
  422d88:	dc411b15 	stw	r17,1132(sp)
  422d8c:	dfc11d15 	stw	ra,1140(sp)
  422d90:	2025883a 	mov	r18,r4
  422d94:	d881030d 	sth	r2,1036(sp)
  422d98:	dac11915 	stw	r11,1124(sp)
  422d9c:	da81038d 	sth	r10,1038(sp)
  422da0:	da410715 	stw	r9,1052(sp)
  422da4:	da010915 	stw	r8,1060(sp)
  422da8:	dec10015 	stw	sp,1024(sp)
  422dac:	dec10415 	stw	sp,1040(sp)
  422db0:	d8c10215 	stw	r3,1032(sp)
  422db4:	d8c10515 	stw	r3,1044(sp)
  422db8:	d8010615 	stw	zero,1048(sp)
  422dbc:	0420a600 	call	420a60 <___vfprintf_internal_r>
  422dc0:	1023883a 	mov	r17,r2
  422dc4:	10000416 	blt	r2,zero,422dd8 <__sbprintf+0x80>
  422dc8:	d9410004 	addi	r5,sp,1024
  422dcc:	9009883a 	mov	r4,r18
  422dd0:	0424a340 	call	424a34 <_fflush_r>
  422dd4:	10000d1e 	bne	r2,zero,422e0c <__sbprintf+0xb4>
  422dd8:	d881030b 	ldhu	r2,1036(sp)
  422ddc:	1080100c 	andi	r2,r2,64
  422de0:	10000326 	beq	r2,zero,422df0 <__sbprintf+0x98>
  422de4:	8080030b 	ldhu	r2,12(r16)
  422de8:	10801014 	ori	r2,r2,64
  422dec:	8080030d 	sth	r2,12(r16)
  422df0:	8805883a 	mov	r2,r17
  422df4:	dfc11d17 	ldw	ra,1140(sp)
  422df8:	dc811c17 	ldw	r18,1136(sp)
  422dfc:	dc411b17 	ldw	r17,1132(sp)
  422e00:	dc011a17 	ldw	r16,1128(sp)
  422e04:	dec11e04 	addi	sp,sp,1144
  422e08:	f800283a 	ret
  422e0c:	047fffc4 	movi	r17,-1
  422e10:	003ff106 	br	422dd8 <__alt_mem_sdram+0xf8422dd8>

00422e14 <__swsetup_r>:
  422e14:	008010f4 	movhi	r2,67
  422e18:	defffd04 	addi	sp,sp,-12
  422e1c:	108a5a04 	addi	r2,r2,10600
  422e20:	dc400115 	stw	r17,4(sp)
  422e24:	2023883a 	mov	r17,r4
  422e28:	11000017 	ldw	r4,0(r2)
  422e2c:	dc000015 	stw	r16,0(sp)
  422e30:	dfc00215 	stw	ra,8(sp)
  422e34:	2821883a 	mov	r16,r5
  422e38:	20000226 	beq	r4,zero,422e44 <__swsetup_r+0x30>
  422e3c:	20800e17 	ldw	r2,56(r4)
  422e40:	10003126 	beq	r2,zero,422f08 <__swsetup_r+0xf4>
  422e44:	8080030b 	ldhu	r2,12(r16)
  422e48:	10c0020c 	andi	r3,r2,8
  422e4c:	1009883a 	mov	r4,r2
  422e50:	18000f26 	beq	r3,zero,422e90 <__swsetup_r+0x7c>
  422e54:	80c00417 	ldw	r3,16(r16)
  422e58:	18001526 	beq	r3,zero,422eb0 <__swsetup_r+0x9c>
  422e5c:	1100004c 	andi	r4,r2,1
  422e60:	20001c1e 	bne	r4,zero,422ed4 <__swsetup_r+0xc0>
  422e64:	1080008c 	andi	r2,r2,2
  422e68:	1000291e 	bne	r2,zero,422f10 <__swsetup_r+0xfc>
  422e6c:	80800517 	ldw	r2,20(r16)
  422e70:	80800215 	stw	r2,8(r16)
  422e74:	18001c26 	beq	r3,zero,422ee8 <__swsetup_r+0xd4>
  422e78:	0005883a 	mov	r2,zero
  422e7c:	dfc00217 	ldw	ra,8(sp)
  422e80:	dc400117 	ldw	r17,4(sp)
  422e84:	dc000017 	ldw	r16,0(sp)
  422e88:	dec00304 	addi	sp,sp,12
  422e8c:	f800283a 	ret
  422e90:	2080040c 	andi	r2,r4,16
  422e94:	10002e26 	beq	r2,zero,422f50 <__swsetup_r+0x13c>
  422e98:	2080010c 	andi	r2,r4,4
  422e9c:	10001e1e 	bne	r2,zero,422f18 <__swsetup_r+0x104>
  422ea0:	80c00417 	ldw	r3,16(r16)
  422ea4:	20800214 	ori	r2,r4,8
  422ea8:	8080030d 	sth	r2,12(r16)
  422eac:	183feb1e 	bne	r3,zero,422e5c <__alt_mem_sdram+0xf8422e5c>
  422eb0:	1100a00c 	andi	r4,r2,640
  422eb4:	01408004 	movi	r5,512
  422eb8:	217fe826 	beq	r4,r5,422e5c <__alt_mem_sdram+0xf8422e5c>
  422ebc:	800b883a 	mov	r5,r16
  422ec0:	8809883a 	mov	r4,r17
  422ec4:	04259d00 	call	4259d0 <__smakebuf_r>
  422ec8:	8080030b 	ldhu	r2,12(r16)
  422ecc:	80c00417 	ldw	r3,16(r16)
  422ed0:	003fe206 	br	422e5c <__alt_mem_sdram+0xf8422e5c>
  422ed4:	80800517 	ldw	r2,20(r16)
  422ed8:	80000215 	stw	zero,8(r16)
  422edc:	0085c83a 	sub	r2,zero,r2
  422ee0:	80800615 	stw	r2,24(r16)
  422ee4:	183fe41e 	bne	r3,zero,422e78 <__alt_mem_sdram+0xf8422e78>
  422ee8:	80c0030b 	ldhu	r3,12(r16)
  422eec:	0005883a 	mov	r2,zero
  422ef0:	1900200c 	andi	r4,r3,128
  422ef4:	203fe126 	beq	r4,zero,422e7c <__alt_mem_sdram+0xf8422e7c>
  422ef8:	18c01014 	ori	r3,r3,64
  422efc:	80c0030d 	sth	r3,12(r16)
  422f00:	00bfffc4 	movi	r2,-1
  422f04:	003fdd06 	br	422e7c <__alt_mem_sdram+0xf8422e7c>
  422f08:	0424e200 	call	424e20 <__sinit>
  422f0c:	003fcd06 	br	422e44 <__alt_mem_sdram+0xf8422e44>
  422f10:	0005883a 	mov	r2,zero
  422f14:	003fd606 	br	422e70 <__alt_mem_sdram+0xf8422e70>
  422f18:	81400c17 	ldw	r5,48(r16)
  422f1c:	28000626 	beq	r5,zero,422f38 <__swsetup_r+0x124>
  422f20:	80801004 	addi	r2,r16,64
  422f24:	28800326 	beq	r5,r2,422f34 <__swsetup_r+0x120>
  422f28:	8809883a 	mov	r4,r17
  422f2c:	0424f940 	call	424f94 <_free_r>
  422f30:	8100030b 	ldhu	r4,12(r16)
  422f34:	80000c15 	stw	zero,48(r16)
  422f38:	80c00417 	ldw	r3,16(r16)
  422f3c:	00bff6c4 	movi	r2,-37
  422f40:	1108703a 	and	r4,r2,r4
  422f44:	80000115 	stw	zero,4(r16)
  422f48:	80c00015 	stw	r3,0(r16)
  422f4c:	003fd506 	br	422ea4 <__alt_mem_sdram+0xf8422ea4>
  422f50:	00800244 	movi	r2,9
  422f54:	88800015 	stw	r2,0(r17)
  422f58:	20801014 	ori	r2,r4,64
  422f5c:	8080030d 	sth	r2,12(r16)
  422f60:	00bfffc4 	movi	r2,-1
  422f64:	003fc506 	br	422e7c <__alt_mem_sdram+0xf8422e7c>

00422f68 <quorem>:
  422f68:	defff204 	addi	sp,sp,-56
  422f6c:	ddc00b15 	stw	r23,44(sp)
  422f70:	20800417 	ldw	r2,16(r4)
  422f74:	2dc00417 	ldw	r23,16(r5)
  422f78:	dfc00d15 	stw	ra,52(sp)
  422f7c:	df000c15 	stw	fp,48(sp)
  422f80:	dd800a15 	stw	r22,40(sp)
  422f84:	dd400915 	stw	r21,36(sp)
  422f88:	dd000815 	stw	r20,32(sp)
  422f8c:	dcc00715 	stw	r19,28(sp)
  422f90:	dc800615 	stw	r18,24(sp)
  422f94:	dc400515 	stw	r17,20(sp)
  422f98:	dc000415 	stw	r16,16(sp)
  422f9c:	15c07a16 	blt	r2,r23,423188 <quorem+0x220>
  422fa0:	bdffffc4 	addi	r23,r23,-1
  422fa4:	bde9883a 	add	r20,r23,r23
  422fa8:	28c00504 	addi	r3,r5,20
  422fac:	a529883a 	add	r20,r20,r20
  422fb0:	1d39883a 	add	fp,r3,r20
  422fb4:	24c00504 	addi	r19,r4,20
  422fb8:	d9400215 	stw	r5,8(sp)
  422fbc:	9d29883a 	add	r20,r19,r20
  422fc0:	e1400017 	ldw	r5,0(fp)
  422fc4:	d9000015 	stw	r4,0(sp)
  422fc8:	a1000017 	ldw	r4,0(r20)
  422fcc:	29400044 	addi	r5,r5,1
  422fd0:	d8c00115 	stw	r3,4(sp)
  422fd4:	dd000315 	stw	r20,12(sp)
  422fd8:	042ae400 	call	42ae40 <__udivsi3>
  422fdc:	1025883a 	mov	r18,r2
  422fe0:	10003026 	beq	r2,zero,4230a4 <quorem+0x13c>
  422fe4:	dc400117 	ldw	r17,4(sp)
  422fe8:	9829883a 	mov	r20,r19
  422fec:	002d883a 	mov	r22,zero
  422ff0:	0021883a 	mov	r16,zero
  422ff4:	8d400017 	ldw	r21,0(r17)
  422ff8:	900b883a 	mov	r5,r18
  422ffc:	8c400104 	addi	r17,r17,4
  423000:	a93fffcc 	andi	r4,r21,65535
  423004:	04208600 	call	420860 <__mulsi3>
  423008:	a808d43a 	srli	r4,r21,16
  42300c:	900b883a 	mov	r5,r18
  423010:	15ad883a 	add	r22,r2,r22
  423014:	04208600 	call	420860 <__mulsi3>
  423018:	a1000017 	ldw	r4,0(r20)
  42301c:	b00cd43a 	srli	r6,r22,16
  423020:	b0ffffcc 	andi	r3,r22,65535
  423024:	217fffcc 	andi	r5,r4,65535
  423028:	2c21883a 	add	r16,r5,r16
  42302c:	80c7c83a 	sub	r3,r16,r3
  423030:	2008d43a 	srli	r4,r4,16
  423034:	1185883a 	add	r2,r2,r6
  423038:	1821d43a 	srai	r16,r3,16
  42303c:	117fffcc 	andi	r5,r2,65535
  423040:	2149c83a 	sub	r4,r4,r5
  423044:	2421883a 	add	r16,r4,r16
  423048:	8008943a 	slli	r4,r16,16
  42304c:	18ffffcc 	andi	r3,r3,65535
  423050:	102cd43a 	srli	r22,r2,16
  423054:	20c8b03a 	or	r4,r4,r3
  423058:	a1000015 	stw	r4,0(r20)
  42305c:	8021d43a 	srai	r16,r16,16
  423060:	a5000104 	addi	r20,r20,4
  423064:	e47fe32e 	bgeu	fp,r17,422ff4 <__alt_mem_sdram+0xf8422ff4>
  423068:	d8c00317 	ldw	r3,12(sp)
  42306c:	18800017 	ldw	r2,0(r3)
  423070:	10000c1e 	bne	r2,zero,4230a4 <quorem+0x13c>
  423074:	18bfff04 	addi	r2,r3,-4
  423078:	9880082e 	bgeu	r19,r2,42309c <quorem+0x134>
  42307c:	18ffff17 	ldw	r3,-4(r3)
  423080:	18000326 	beq	r3,zero,423090 <quorem+0x128>
  423084:	00000506 	br	42309c <quorem+0x134>
  423088:	10c00017 	ldw	r3,0(r2)
  42308c:	1800031e 	bne	r3,zero,42309c <quorem+0x134>
  423090:	10bfff04 	addi	r2,r2,-4
  423094:	bdffffc4 	addi	r23,r23,-1
  423098:	98bffb36 	bltu	r19,r2,423088 <__alt_mem_sdram+0xf8423088>
  42309c:	d8c00017 	ldw	r3,0(sp)
  4230a0:	1dc00415 	stw	r23,16(r3)
  4230a4:	d9400217 	ldw	r5,8(sp)
  4230a8:	d9000017 	ldw	r4,0(sp)
  4230ac:	04271cc0 	call	4271cc <__mcmp>
  4230b0:	10002816 	blt	r2,zero,423154 <quorem+0x1ec>
  4230b4:	dc400117 	ldw	r17,4(sp)
  4230b8:	94800044 	addi	r18,r18,1
  4230bc:	980d883a 	mov	r6,r19
  4230c0:	0007883a 	mov	r3,zero
  4230c4:	31000017 	ldw	r4,0(r6)
  4230c8:	89400017 	ldw	r5,0(r17)
  4230cc:	31800104 	addi	r6,r6,4
  4230d0:	20bfffcc 	andi	r2,r4,65535
  4230d4:	10c7883a 	add	r3,r2,r3
  4230d8:	28bfffcc 	andi	r2,r5,65535
  4230dc:	1885c83a 	sub	r2,r3,r2
  4230e0:	280ad43a 	srli	r5,r5,16
  4230e4:	2008d43a 	srli	r4,r4,16
  4230e8:	1007d43a 	srai	r3,r2,16
  4230ec:	10bfffcc 	andi	r2,r2,65535
  4230f0:	2149c83a 	sub	r4,r4,r5
  4230f4:	20c9883a 	add	r4,r4,r3
  4230f8:	200a943a 	slli	r5,r4,16
  4230fc:	8c400104 	addi	r17,r17,4
  423100:	2007d43a 	srai	r3,r4,16
  423104:	2884b03a 	or	r2,r5,r2
  423108:	30bfff15 	stw	r2,-4(r6)
  42310c:	e47fed2e 	bgeu	fp,r17,4230c4 <__alt_mem_sdram+0xf84230c4>
  423110:	bdc5883a 	add	r2,r23,r23
  423114:	1085883a 	add	r2,r2,r2
  423118:	9887883a 	add	r3,r19,r2
  42311c:	18800017 	ldw	r2,0(r3)
  423120:	10000c1e 	bne	r2,zero,423154 <quorem+0x1ec>
  423124:	18bfff04 	addi	r2,r3,-4
  423128:	9880082e 	bgeu	r19,r2,42314c <quorem+0x1e4>
  42312c:	18ffff17 	ldw	r3,-4(r3)
  423130:	18000326 	beq	r3,zero,423140 <quorem+0x1d8>
  423134:	00000506 	br	42314c <quorem+0x1e4>
  423138:	10c00017 	ldw	r3,0(r2)
  42313c:	1800031e 	bne	r3,zero,42314c <quorem+0x1e4>
  423140:	10bfff04 	addi	r2,r2,-4
  423144:	bdffffc4 	addi	r23,r23,-1
  423148:	98bffb36 	bltu	r19,r2,423138 <__alt_mem_sdram+0xf8423138>
  42314c:	d8c00017 	ldw	r3,0(sp)
  423150:	1dc00415 	stw	r23,16(r3)
  423154:	9005883a 	mov	r2,r18
  423158:	dfc00d17 	ldw	ra,52(sp)
  42315c:	df000c17 	ldw	fp,48(sp)
  423160:	ddc00b17 	ldw	r23,44(sp)
  423164:	dd800a17 	ldw	r22,40(sp)
  423168:	dd400917 	ldw	r21,36(sp)
  42316c:	dd000817 	ldw	r20,32(sp)
  423170:	dcc00717 	ldw	r19,28(sp)
  423174:	dc800617 	ldw	r18,24(sp)
  423178:	dc400517 	ldw	r17,20(sp)
  42317c:	dc000417 	ldw	r16,16(sp)
  423180:	dec00e04 	addi	sp,sp,56
  423184:	f800283a 	ret
  423188:	0005883a 	mov	r2,zero
  42318c:	003ff206 	br	423158 <__alt_mem_sdram+0xf8423158>

00423190 <_dtoa_r>:
  423190:	20801017 	ldw	r2,64(r4)
  423194:	deffde04 	addi	sp,sp,-136
  423198:	df002015 	stw	fp,128(sp)
  42319c:	dcc01b15 	stw	r19,108(sp)
  4231a0:	dc801a15 	stw	r18,104(sp)
  4231a4:	dc401915 	stw	r17,100(sp)
  4231a8:	dc001815 	stw	r16,96(sp)
  4231ac:	dfc02115 	stw	ra,132(sp)
  4231b0:	ddc01f15 	stw	r23,124(sp)
  4231b4:	dd801e15 	stw	r22,120(sp)
  4231b8:	dd401d15 	stw	r21,116(sp)
  4231bc:	dd001c15 	stw	r20,112(sp)
  4231c0:	d9c00315 	stw	r7,12(sp)
  4231c4:	2039883a 	mov	fp,r4
  4231c8:	3023883a 	mov	r17,r6
  4231cc:	2825883a 	mov	r18,r5
  4231d0:	dc002417 	ldw	r16,144(sp)
  4231d4:	3027883a 	mov	r19,r6
  4231d8:	10000826 	beq	r2,zero,4231fc <_dtoa_r+0x6c>
  4231dc:	21801117 	ldw	r6,68(r4)
  4231e0:	00c00044 	movi	r3,1
  4231e4:	100b883a 	mov	r5,r2
  4231e8:	1986983a 	sll	r3,r3,r6
  4231ec:	11800115 	stw	r6,4(r2)
  4231f0:	10c00215 	stw	r3,8(r2)
  4231f4:	04268f00 	call	4268f0 <_Bfree>
  4231f8:	e0001015 	stw	zero,64(fp)
  4231fc:	88002e16 	blt	r17,zero,4232b8 <_dtoa_r+0x128>
  423200:	80000015 	stw	zero,0(r16)
  423204:	889ffc2c 	andhi	r2,r17,32752
  423208:	00dffc34 	movhi	r3,32752
  42320c:	10c01c26 	beq	r2,r3,423280 <_dtoa_r+0xf0>
  423210:	000d883a 	mov	r6,zero
  423214:	000f883a 	mov	r7,zero
  423218:	9009883a 	mov	r4,r18
  42321c:	980b883a 	mov	r5,r19
  423220:	042c1780 	call	42c178 <__eqdf2>
  423224:	10002b1e 	bne	r2,zero,4232d4 <_dtoa_r+0x144>
  423228:	d9c02317 	ldw	r7,140(sp)
  42322c:	00800044 	movi	r2,1
  423230:	38800015 	stw	r2,0(r7)
  423234:	d8802517 	ldw	r2,148(sp)
  423238:	10019e26 	beq	r2,zero,4238b4 <_dtoa_r+0x724>
  42323c:	d8c02517 	ldw	r3,148(sp)
  423240:	008010f4 	movhi	r2,67
  423244:	1082ff44 	addi	r2,r2,3069
  423248:	18800015 	stw	r2,0(r3)
  42324c:	10bfffc4 	addi	r2,r2,-1
  423250:	dfc02117 	ldw	ra,132(sp)
  423254:	df002017 	ldw	fp,128(sp)
  423258:	ddc01f17 	ldw	r23,124(sp)
  42325c:	dd801e17 	ldw	r22,120(sp)
  423260:	dd401d17 	ldw	r21,116(sp)
  423264:	dd001c17 	ldw	r20,112(sp)
  423268:	dcc01b17 	ldw	r19,108(sp)
  42326c:	dc801a17 	ldw	r18,104(sp)
  423270:	dc401917 	ldw	r17,100(sp)
  423274:	dc001817 	ldw	r16,96(sp)
  423278:	dec02204 	addi	sp,sp,136
  42327c:	f800283a 	ret
  423280:	d8c02317 	ldw	r3,140(sp)
  423284:	0089c3c4 	movi	r2,9999
  423288:	18800015 	stw	r2,0(r3)
  42328c:	90017726 	beq	r18,zero,42386c <_dtoa_r+0x6dc>
  423290:	008010f4 	movhi	r2,67
  423294:	10830b04 	addi	r2,r2,3116
  423298:	d9002517 	ldw	r4,148(sp)
  42329c:	203fec26 	beq	r4,zero,423250 <__alt_mem_sdram+0xf8423250>
  4232a0:	10c000c7 	ldb	r3,3(r2)
  4232a4:	1801781e 	bne	r3,zero,423888 <_dtoa_r+0x6f8>
  4232a8:	10c000c4 	addi	r3,r2,3
  4232ac:	d9802517 	ldw	r6,148(sp)
  4232b0:	30c00015 	stw	r3,0(r6)
  4232b4:	003fe606 	br	423250 <__alt_mem_sdram+0xf8423250>
  4232b8:	04e00034 	movhi	r19,32768
  4232bc:	9cffffc4 	addi	r19,r19,-1
  4232c0:	00800044 	movi	r2,1
  4232c4:	8ce6703a 	and	r19,r17,r19
  4232c8:	80800015 	stw	r2,0(r16)
  4232cc:	9823883a 	mov	r17,r19
  4232d0:	003fcc06 	br	423204 <__alt_mem_sdram+0xf8423204>
  4232d4:	d8800204 	addi	r2,sp,8
  4232d8:	d8800015 	stw	r2,0(sp)
  4232dc:	d9c00104 	addi	r7,sp,4
  4232e0:	900b883a 	mov	r5,r18
  4232e4:	980d883a 	mov	r6,r19
  4232e8:	e009883a 	mov	r4,fp
  4232ec:	8820d53a 	srli	r16,r17,20
  4232f0:	04275980 	call	427598 <__d2b>
  4232f4:	d8800915 	stw	r2,36(sp)
  4232f8:	8001651e 	bne	r16,zero,423890 <_dtoa_r+0x700>
  4232fc:	dd800217 	ldw	r22,8(sp)
  423300:	dc000117 	ldw	r16,4(sp)
  423304:	00800804 	movi	r2,32
  423308:	b421883a 	add	r16,r22,r16
  42330c:	80c10c84 	addi	r3,r16,1074
  423310:	10c2d10e 	bge	r2,r3,423e58 <_dtoa_r+0xcc8>
  423314:	00801004 	movi	r2,64
  423318:	81010484 	addi	r4,r16,1042
  42331c:	10c7c83a 	sub	r3,r2,r3
  423320:	9108d83a 	srl	r4,r18,r4
  423324:	88e2983a 	sll	r17,r17,r3
  423328:	2448b03a 	or	r4,r4,r17
  42332c:	042d6940 	call	42d694 <__floatunsidf>
  423330:	017f8434 	movhi	r5,65040
  423334:	01800044 	movi	r6,1
  423338:	1009883a 	mov	r4,r2
  42333c:	194b883a 	add	r5,r3,r5
  423340:	843fffc4 	addi	r16,r16,-1
  423344:	d9801115 	stw	r6,68(sp)
  423348:	000d883a 	mov	r6,zero
  42334c:	01cffe34 	movhi	r7,16376
  423350:	042cc3c0 	call	42cc3c <__subdf3>
  423354:	0198dbf4 	movhi	r6,25455
  423358:	01cff4f4 	movhi	r7,16339
  42335c:	3190d844 	addi	r6,r6,17249
  423360:	39e1e9c4 	addi	r7,r7,-30809
  423364:	1009883a 	mov	r4,r2
  423368:	180b883a 	mov	r5,r3
  42336c:	042c3d00 	call	42c3d0 <__muldf3>
  423370:	01a2d874 	movhi	r6,35681
  423374:	01cff1f4 	movhi	r7,16327
  423378:	31b22cc4 	addi	r6,r6,-14157
  42337c:	39e28a04 	addi	r7,r7,-30168
  423380:	180b883a 	mov	r5,r3
  423384:	1009883a 	mov	r4,r2
  423388:	042aefc0 	call	42aefc <__adddf3>
  42338c:	8009883a 	mov	r4,r16
  423390:	1029883a 	mov	r20,r2
  423394:	1823883a 	mov	r17,r3
  423398:	042d5b80 	call	42d5b8 <__floatsidf>
  42339c:	019427f4 	movhi	r6,20639
  4233a0:	01cff4f4 	movhi	r7,16339
  4233a4:	319e7ec4 	addi	r6,r6,31227
  4233a8:	39d104c4 	addi	r7,r7,17427
  4233ac:	1009883a 	mov	r4,r2
  4233b0:	180b883a 	mov	r5,r3
  4233b4:	042c3d00 	call	42c3d0 <__muldf3>
  4233b8:	100d883a 	mov	r6,r2
  4233bc:	180f883a 	mov	r7,r3
  4233c0:	a009883a 	mov	r4,r20
  4233c4:	880b883a 	mov	r5,r17
  4233c8:	042aefc0 	call	42aefc <__adddf3>
  4233cc:	1009883a 	mov	r4,r2
  4233d0:	180b883a 	mov	r5,r3
  4233d4:	1029883a 	mov	r20,r2
  4233d8:	1823883a 	mov	r17,r3
  4233dc:	042d5380 	call	42d538 <__fixdfsi>
  4233e0:	000d883a 	mov	r6,zero
  4233e4:	000f883a 	mov	r7,zero
  4233e8:	a009883a 	mov	r4,r20
  4233ec:	880b883a 	mov	r5,r17
  4233f0:	d8800515 	stw	r2,20(sp)
  4233f4:	042c2dc0 	call	42c2dc <__ledf2>
  4233f8:	10028716 	blt	r2,zero,423e18 <_dtoa_r+0xc88>
  4233fc:	d8c00517 	ldw	r3,20(sp)
  423400:	00800584 	movi	r2,22
  423404:	10c27536 	bltu	r2,r3,423ddc <_dtoa_r+0xc4c>
  423408:	180490fa 	slli	r2,r3,3
  42340c:	00c010f4 	movhi	r3,67
  423410:	18c32704 	addi	r3,r3,3228
  423414:	1885883a 	add	r2,r3,r2
  423418:	11000017 	ldw	r4,0(r2)
  42341c:	11400117 	ldw	r5,4(r2)
  423420:	900d883a 	mov	r6,r18
  423424:	980f883a 	mov	r7,r19
  423428:	042c2000 	call	42c200 <__gedf2>
  42342c:	00828d0e 	bge	zero,r2,423e64 <_dtoa_r+0xcd4>
  423430:	d9000517 	ldw	r4,20(sp)
  423434:	d8000e15 	stw	zero,56(sp)
  423438:	213fffc4 	addi	r4,r4,-1
  42343c:	d9000515 	stw	r4,20(sp)
  423440:	b42dc83a 	sub	r22,r22,r16
  423444:	b5bfffc4 	addi	r22,r22,-1
  423448:	b0026f16 	blt	r22,zero,423e08 <_dtoa_r+0xc78>
  42344c:	d8000815 	stw	zero,32(sp)
  423450:	d9c00517 	ldw	r7,20(sp)
  423454:	38026416 	blt	r7,zero,423de8 <_dtoa_r+0xc58>
  423458:	b1ed883a 	add	r22,r22,r7
  42345c:	d9c00d15 	stw	r7,52(sp)
  423460:	d8000a15 	stw	zero,40(sp)
  423464:	d9800317 	ldw	r6,12(sp)
  423468:	00800244 	movi	r2,9
  42346c:	11811436 	bltu	r2,r6,4238c0 <_dtoa_r+0x730>
  423470:	00800144 	movi	r2,5
  423474:	1184e10e 	bge	r2,r6,4247fc <_dtoa_r+0x166c>
  423478:	31bfff04 	addi	r6,r6,-4
  42347c:	d9800315 	stw	r6,12(sp)
  423480:	0023883a 	mov	r17,zero
  423484:	d9800317 	ldw	r6,12(sp)
  423488:	008000c4 	movi	r2,3
  42348c:	30836726 	beq	r6,r2,42422c <_dtoa_r+0x109c>
  423490:	1183410e 	bge	r2,r6,424198 <_dtoa_r+0x1008>
  423494:	d9c00317 	ldw	r7,12(sp)
  423498:	00800104 	movi	r2,4
  42349c:	38827c26 	beq	r7,r2,423e90 <_dtoa_r+0xd00>
  4234a0:	00800144 	movi	r2,5
  4234a4:	3884c41e 	bne	r7,r2,4247b8 <_dtoa_r+0x1628>
  4234a8:	00800044 	movi	r2,1
  4234ac:	d8800b15 	stw	r2,44(sp)
  4234b0:	d8c00517 	ldw	r3,20(sp)
  4234b4:	d9002217 	ldw	r4,136(sp)
  4234b8:	1907883a 	add	r3,r3,r4
  4234bc:	19800044 	addi	r6,r3,1
  4234c0:	d8c00c15 	stw	r3,48(sp)
  4234c4:	d9800615 	stw	r6,24(sp)
  4234c8:	0183a40e 	bge	zero,r6,42435c <_dtoa_r+0x11cc>
  4234cc:	d9800617 	ldw	r6,24(sp)
  4234d0:	3021883a 	mov	r16,r6
  4234d4:	e0001115 	stw	zero,68(fp)
  4234d8:	008005c4 	movi	r2,23
  4234dc:	1184c92e 	bgeu	r2,r6,424804 <_dtoa_r+0x1674>
  4234e0:	00c00044 	movi	r3,1
  4234e4:	00800104 	movi	r2,4
  4234e8:	1085883a 	add	r2,r2,r2
  4234ec:	11000504 	addi	r4,r2,20
  4234f0:	180b883a 	mov	r5,r3
  4234f4:	18c00044 	addi	r3,r3,1
  4234f8:	313ffb2e 	bgeu	r6,r4,4234e8 <__alt_mem_sdram+0xf84234e8>
  4234fc:	e1401115 	stw	r5,68(fp)
  423500:	e009883a 	mov	r4,fp
  423504:	04268480 	call	426848 <_Balloc>
  423508:	d8800715 	stw	r2,28(sp)
  42350c:	e0801015 	stw	r2,64(fp)
  423510:	00800384 	movi	r2,14
  423514:	1400f736 	bltu	r2,r16,4238f4 <_dtoa_r+0x764>
  423518:	8800f626 	beq	r17,zero,4238f4 <_dtoa_r+0x764>
  42351c:	d9c00517 	ldw	r7,20(sp)
  423520:	01c39a0e 	bge	zero,r7,42438c <_dtoa_r+0x11fc>
  423524:	388003cc 	andi	r2,r7,15
  423528:	100490fa 	slli	r2,r2,3
  42352c:	382bd13a 	srai	r21,r7,4
  423530:	00c010f4 	movhi	r3,67
  423534:	18c32704 	addi	r3,r3,3228
  423538:	1885883a 	add	r2,r3,r2
  42353c:	a8c0040c 	andi	r3,r21,16
  423540:	12400017 	ldw	r9,0(r2)
  423544:	12000117 	ldw	r8,4(r2)
  423548:	18037926 	beq	r3,zero,424330 <_dtoa_r+0x11a0>
  42354c:	008010f4 	movhi	r2,67
  423550:	10831d04 	addi	r2,r2,3188
  423554:	11800817 	ldw	r6,32(r2)
  423558:	11c00917 	ldw	r7,36(r2)
  42355c:	9009883a 	mov	r4,r18
  423560:	980b883a 	mov	r5,r19
  423564:	da001715 	stw	r8,92(sp)
  423568:	da401615 	stw	r9,88(sp)
  42356c:	042b7a80 	call	42b7a8 <__divdf3>
  423570:	da001717 	ldw	r8,92(sp)
  423574:	da401617 	ldw	r9,88(sp)
  423578:	ad4003cc 	andi	r21,r21,15
  42357c:	040000c4 	movi	r16,3
  423580:	1023883a 	mov	r17,r2
  423584:	1829883a 	mov	r20,r3
  423588:	a8001126 	beq	r21,zero,4235d0 <_dtoa_r+0x440>
  42358c:	05c010f4 	movhi	r23,67
  423590:	bdc31d04 	addi	r23,r23,3188
  423594:	4805883a 	mov	r2,r9
  423598:	4007883a 	mov	r3,r8
  42359c:	a980004c 	andi	r6,r21,1
  4235a0:	1009883a 	mov	r4,r2
  4235a4:	a82bd07a 	srai	r21,r21,1
  4235a8:	180b883a 	mov	r5,r3
  4235ac:	30000426 	beq	r6,zero,4235c0 <_dtoa_r+0x430>
  4235b0:	b9800017 	ldw	r6,0(r23)
  4235b4:	b9c00117 	ldw	r7,4(r23)
  4235b8:	84000044 	addi	r16,r16,1
  4235bc:	042c3d00 	call	42c3d0 <__muldf3>
  4235c0:	bdc00204 	addi	r23,r23,8
  4235c4:	a83ff51e 	bne	r21,zero,42359c <__alt_mem_sdram+0xf842359c>
  4235c8:	1013883a 	mov	r9,r2
  4235cc:	1811883a 	mov	r8,r3
  4235d0:	480d883a 	mov	r6,r9
  4235d4:	400f883a 	mov	r7,r8
  4235d8:	8809883a 	mov	r4,r17
  4235dc:	a00b883a 	mov	r5,r20
  4235e0:	042b7a80 	call	42b7a8 <__divdf3>
  4235e4:	d8800f15 	stw	r2,60(sp)
  4235e8:	d8c01015 	stw	r3,64(sp)
  4235ec:	d8c00e17 	ldw	r3,56(sp)
  4235f0:	18000626 	beq	r3,zero,42360c <_dtoa_r+0x47c>
  4235f4:	d9000f17 	ldw	r4,60(sp)
  4235f8:	d9401017 	ldw	r5,64(sp)
  4235fc:	000d883a 	mov	r6,zero
  423600:	01cffc34 	movhi	r7,16368
  423604:	042c2dc0 	call	42c2dc <__ledf2>
  423608:	10040b16 	blt	r2,zero,424638 <_dtoa_r+0x14a8>
  42360c:	8009883a 	mov	r4,r16
  423610:	042d5b80 	call	42d5b8 <__floatsidf>
  423614:	d9800f17 	ldw	r6,60(sp)
  423618:	d9c01017 	ldw	r7,64(sp)
  42361c:	1009883a 	mov	r4,r2
  423620:	180b883a 	mov	r5,r3
  423624:	042c3d00 	call	42c3d0 <__muldf3>
  423628:	000d883a 	mov	r6,zero
  42362c:	01d00734 	movhi	r7,16412
  423630:	1009883a 	mov	r4,r2
  423634:	180b883a 	mov	r5,r3
  423638:	042aefc0 	call	42aefc <__adddf3>
  42363c:	1021883a 	mov	r16,r2
  423640:	d8800617 	ldw	r2,24(sp)
  423644:	047f3034 	movhi	r17,64704
  423648:	1c63883a 	add	r17,r3,r17
  42364c:	10031826 	beq	r2,zero,4242b0 <_dtoa_r+0x1120>
  423650:	d8c00517 	ldw	r3,20(sp)
  423654:	db000617 	ldw	r12,24(sp)
  423658:	d8c01315 	stw	r3,76(sp)
  42365c:	d9000b17 	ldw	r4,44(sp)
  423660:	20038f26 	beq	r4,zero,4244a0 <_dtoa_r+0x1310>
  423664:	60bfffc4 	addi	r2,r12,-1
  423668:	100490fa 	slli	r2,r2,3
  42366c:	00c010f4 	movhi	r3,67
  423670:	18c32704 	addi	r3,r3,3228
  423674:	1885883a 	add	r2,r3,r2
  423678:	11800017 	ldw	r6,0(r2)
  42367c:	11c00117 	ldw	r7,4(r2)
  423680:	d8800717 	ldw	r2,28(sp)
  423684:	0009883a 	mov	r4,zero
  423688:	014ff834 	movhi	r5,16352
  42368c:	db001615 	stw	r12,88(sp)
  423690:	15c00044 	addi	r23,r2,1
  423694:	042b7a80 	call	42b7a8 <__divdf3>
  423698:	800d883a 	mov	r6,r16
  42369c:	880f883a 	mov	r7,r17
  4236a0:	1009883a 	mov	r4,r2
  4236a4:	180b883a 	mov	r5,r3
  4236a8:	042cc3c0 	call	42cc3c <__subdf3>
  4236ac:	d9401017 	ldw	r5,64(sp)
  4236b0:	d9000f17 	ldw	r4,60(sp)
  4236b4:	102b883a 	mov	r21,r2
  4236b8:	d8c01215 	stw	r3,72(sp)
  4236bc:	042d5380 	call	42d538 <__fixdfsi>
  4236c0:	1009883a 	mov	r4,r2
  4236c4:	1029883a 	mov	r20,r2
  4236c8:	042d5b80 	call	42d5b8 <__floatsidf>
  4236cc:	d9000f17 	ldw	r4,60(sp)
  4236d0:	d9401017 	ldw	r5,64(sp)
  4236d4:	100d883a 	mov	r6,r2
  4236d8:	180f883a 	mov	r7,r3
  4236dc:	042cc3c0 	call	42cc3c <__subdf3>
  4236e0:	1823883a 	mov	r17,r3
  4236e4:	d8c00717 	ldw	r3,28(sp)
  4236e8:	d9401217 	ldw	r5,72(sp)
  4236ec:	a2000c04 	addi	r8,r20,48
  4236f0:	1021883a 	mov	r16,r2
  4236f4:	1a000005 	stb	r8,0(r3)
  4236f8:	800d883a 	mov	r6,r16
  4236fc:	880f883a 	mov	r7,r17
  423700:	a809883a 	mov	r4,r21
  423704:	4029883a 	mov	r20,r8
  423708:	042c2000 	call	42c200 <__gedf2>
  42370c:	00841d16 	blt	zero,r2,424784 <_dtoa_r+0x15f4>
  423710:	800d883a 	mov	r6,r16
  423714:	880f883a 	mov	r7,r17
  423718:	0009883a 	mov	r4,zero
  42371c:	014ffc34 	movhi	r5,16368
  423720:	042cc3c0 	call	42cc3c <__subdf3>
  423724:	d9401217 	ldw	r5,72(sp)
  423728:	100d883a 	mov	r6,r2
  42372c:	180f883a 	mov	r7,r3
  423730:	a809883a 	mov	r4,r21
  423734:	042c2000 	call	42c200 <__gedf2>
  423738:	db001617 	ldw	r12,88(sp)
  42373c:	00840e16 	blt	zero,r2,424778 <_dtoa_r+0x15e8>
  423740:	00800044 	movi	r2,1
  423744:	13006b0e 	bge	r2,r12,4238f4 <_dtoa_r+0x764>
  423748:	d9000717 	ldw	r4,28(sp)
  42374c:	dd800f15 	stw	r22,60(sp)
  423750:	dcc01015 	stw	r19,64(sp)
  423754:	2319883a 	add	r12,r4,r12
  423758:	dcc01217 	ldw	r19,72(sp)
  42375c:	602d883a 	mov	r22,r12
  423760:	dc801215 	stw	r18,72(sp)
  423764:	b825883a 	mov	r18,r23
  423768:	00000906 	br	423790 <_dtoa_r+0x600>
  42376c:	042cc3c0 	call	42cc3c <__subdf3>
  423770:	a80d883a 	mov	r6,r21
  423774:	980f883a 	mov	r7,r19
  423778:	1009883a 	mov	r4,r2
  42377c:	180b883a 	mov	r5,r3
  423780:	042c2dc0 	call	42c2dc <__ledf2>
  423784:	1003e816 	blt	r2,zero,424728 <_dtoa_r+0x1598>
  423788:	b825883a 	mov	r18,r23
  42378c:	bd83e926 	beq	r23,r22,424734 <_dtoa_r+0x15a4>
  423790:	a809883a 	mov	r4,r21
  423794:	980b883a 	mov	r5,r19
  423798:	000d883a 	mov	r6,zero
  42379c:	01d00934 	movhi	r7,16420
  4237a0:	042c3d00 	call	42c3d0 <__muldf3>
  4237a4:	000d883a 	mov	r6,zero
  4237a8:	01d00934 	movhi	r7,16420
  4237ac:	8009883a 	mov	r4,r16
  4237b0:	880b883a 	mov	r5,r17
  4237b4:	102b883a 	mov	r21,r2
  4237b8:	1827883a 	mov	r19,r3
  4237bc:	042c3d00 	call	42c3d0 <__muldf3>
  4237c0:	180b883a 	mov	r5,r3
  4237c4:	1009883a 	mov	r4,r2
  4237c8:	1821883a 	mov	r16,r3
  4237cc:	1023883a 	mov	r17,r2
  4237d0:	042d5380 	call	42d538 <__fixdfsi>
  4237d4:	1009883a 	mov	r4,r2
  4237d8:	1029883a 	mov	r20,r2
  4237dc:	042d5b80 	call	42d5b8 <__floatsidf>
  4237e0:	8809883a 	mov	r4,r17
  4237e4:	800b883a 	mov	r5,r16
  4237e8:	100d883a 	mov	r6,r2
  4237ec:	180f883a 	mov	r7,r3
  4237f0:	042cc3c0 	call	42cc3c <__subdf3>
  4237f4:	a5000c04 	addi	r20,r20,48
  4237f8:	a80d883a 	mov	r6,r21
  4237fc:	980f883a 	mov	r7,r19
  423800:	1009883a 	mov	r4,r2
  423804:	180b883a 	mov	r5,r3
  423808:	95000005 	stb	r20,0(r18)
  42380c:	1021883a 	mov	r16,r2
  423810:	1823883a 	mov	r17,r3
  423814:	042c2dc0 	call	42c2dc <__ledf2>
  423818:	bdc00044 	addi	r23,r23,1
  42381c:	800d883a 	mov	r6,r16
  423820:	880f883a 	mov	r7,r17
  423824:	0009883a 	mov	r4,zero
  423828:	014ffc34 	movhi	r5,16368
  42382c:	103fcf0e 	bge	r2,zero,42376c <__alt_mem_sdram+0xf842376c>
  423830:	d8c01317 	ldw	r3,76(sp)
  423834:	d8c00515 	stw	r3,20(sp)
  423838:	d9400917 	ldw	r5,36(sp)
  42383c:	e009883a 	mov	r4,fp
  423840:	04268f00 	call	4268f0 <_Bfree>
  423844:	d9000517 	ldw	r4,20(sp)
  423848:	d9802317 	ldw	r6,140(sp)
  42384c:	d9c02517 	ldw	r7,148(sp)
  423850:	b8000005 	stb	zero,0(r23)
  423854:	20800044 	addi	r2,r4,1
  423858:	30800015 	stw	r2,0(r6)
  42385c:	3802aa26 	beq	r7,zero,424308 <_dtoa_r+0x1178>
  423860:	3dc00015 	stw	r23,0(r7)
  423864:	d8800717 	ldw	r2,28(sp)
  423868:	003e7906 	br	423250 <__alt_mem_sdram+0xf8423250>
  42386c:	00800434 	movhi	r2,16
  423870:	10bfffc4 	addi	r2,r2,-1
  423874:	88a2703a 	and	r17,r17,r2
  423878:	883e851e 	bne	r17,zero,423290 <__alt_mem_sdram+0xf8423290>
  42387c:	008010f4 	movhi	r2,67
  423880:	10830804 	addi	r2,r2,3104
  423884:	003e8406 	br	423298 <__alt_mem_sdram+0xf8423298>
  423888:	10c00204 	addi	r3,r2,8
  42388c:	003e8706 	br	4232ac <__alt_mem_sdram+0xf84232ac>
  423890:	01400434 	movhi	r5,16
  423894:	297fffc4 	addi	r5,r5,-1
  423898:	994a703a 	and	r5,r19,r5
  42389c:	9009883a 	mov	r4,r18
  4238a0:	843f0044 	addi	r16,r16,-1023
  4238a4:	294ffc34 	orhi	r5,r5,16368
  4238a8:	dd800217 	ldw	r22,8(sp)
  4238ac:	d8001115 	stw	zero,68(sp)
  4238b0:	003ea506 	br	423348 <__alt_mem_sdram+0xf8423348>
  4238b4:	008010f4 	movhi	r2,67
  4238b8:	1082ff04 	addi	r2,r2,3068
  4238bc:	003e6406 	br	423250 <__alt_mem_sdram+0xf8423250>
  4238c0:	e0001115 	stw	zero,68(fp)
  4238c4:	000b883a 	mov	r5,zero
  4238c8:	e009883a 	mov	r4,fp
  4238cc:	04268480 	call	426848 <_Balloc>
  4238d0:	01bfffc4 	movi	r6,-1
  4238d4:	01c00044 	movi	r7,1
  4238d8:	d8800715 	stw	r2,28(sp)
  4238dc:	d9800c15 	stw	r6,48(sp)
  4238e0:	e0801015 	stw	r2,64(fp)
  4238e4:	d8000315 	stw	zero,12(sp)
  4238e8:	d9c00b15 	stw	r7,44(sp)
  4238ec:	d9800615 	stw	r6,24(sp)
  4238f0:	d8002215 	stw	zero,136(sp)
  4238f4:	d8800117 	ldw	r2,4(sp)
  4238f8:	10008916 	blt	r2,zero,423b20 <_dtoa_r+0x990>
  4238fc:	d9000517 	ldw	r4,20(sp)
  423900:	00c00384 	movi	r3,14
  423904:	19008616 	blt	r3,r4,423b20 <_dtoa_r+0x990>
  423908:	200490fa 	slli	r2,r4,3
  42390c:	00c010f4 	movhi	r3,67
  423910:	d9802217 	ldw	r6,136(sp)
  423914:	18c32704 	addi	r3,r3,3228
  423918:	1885883a 	add	r2,r3,r2
  42391c:	14000017 	ldw	r16,0(r2)
  423920:	14400117 	ldw	r17,4(r2)
  423924:	30016316 	blt	r6,zero,423eb4 <_dtoa_r+0xd24>
  423928:	800d883a 	mov	r6,r16
  42392c:	880f883a 	mov	r7,r17
  423930:	9009883a 	mov	r4,r18
  423934:	980b883a 	mov	r5,r19
  423938:	042b7a80 	call	42b7a8 <__divdf3>
  42393c:	180b883a 	mov	r5,r3
  423940:	1009883a 	mov	r4,r2
  423944:	042d5380 	call	42d538 <__fixdfsi>
  423948:	1009883a 	mov	r4,r2
  42394c:	102b883a 	mov	r21,r2
  423950:	042d5b80 	call	42d5b8 <__floatsidf>
  423954:	800d883a 	mov	r6,r16
  423958:	880f883a 	mov	r7,r17
  42395c:	1009883a 	mov	r4,r2
  423960:	180b883a 	mov	r5,r3
  423964:	042c3d00 	call	42c3d0 <__muldf3>
  423968:	100d883a 	mov	r6,r2
  42396c:	180f883a 	mov	r7,r3
  423970:	9009883a 	mov	r4,r18
  423974:	980b883a 	mov	r5,r19
  423978:	042cc3c0 	call	42cc3c <__subdf3>
  42397c:	d9c00717 	ldw	r7,28(sp)
  423980:	1009883a 	mov	r4,r2
  423984:	a8800c04 	addi	r2,r21,48
  423988:	38800005 	stb	r2,0(r7)
  42398c:	3dc00044 	addi	r23,r7,1
  423990:	d9c00617 	ldw	r7,24(sp)
  423994:	01800044 	movi	r6,1
  423998:	180b883a 	mov	r5,r3
  42399c:	2005883a 	mov	r2,r4
  4239a0:	39803826 	beq	r7,r6,423a84 <_dtoa_r+0x8f4>
  4239a4:	000d883a 	mov	r6,zero
  4239a8:	01d00934 	movhi	r7,16420
  4239ac:	042c3d00 	call	42c3d0 <__muldf3>
  4239b0:	000d883a 	mov	r6,zero
  4239b4:	000f883a 	mov	r7,zero
  4239b8:	1009883a 	mov	r4,r2
  4239bc:	180b883a 	mov	r5,r3
  4239c0:	1025883a 	mov	r18,r2
  4239c4:	1827883a 	mov	r19,r3
  4239c8:	042c1780 	call	42c178 <__eqdf2>
  4239cc:	103f9a26 	beq	r2,zero,423838 <__alt_mem_sdram+0xf8423838>
  4239d0:	d9c00617 	ldw	r7,24(sp)
  4239d4:	d8c00717 	ldw	r3,28(sp)
  4239d8:	b829883a 	mov	r20,r23
  4239dc:	38bfffc4 	addi	r2,r7,-1
  4239e0:	18ad883a 	add	r22,r3,r2
  4239e4:	00000a06 	br	423a10 <_dtoa_r+0x880>
  4239e8:	042c3d00 	call	42c3d0 <__muldf3>
  4239ec:	000d883a 	mov	r6,zero
  4239f0:	000f883a 	mov	r7,zero
  4239f4:	1009883a 	mov	r4,r2
  4239f8:	180b883a 	mov	r5,r3
  4239fc:	1025883a 	mov	r18,r2
  423a00:	1827883a 	mov	r19,r3
  423a04:	b829883a 	mov	r20,r23
  423a08:	042c1780 	call	42c178 <__eqdf2>
  423a0c:	103f8a26 	beq	r2,zero,423838 <__alt_mem_sdram+0xf8423838>
  423a10:	800d883a 	mov	r6,r16
  423a14:	880f883a 	mov	r7,r17
  423a18:	9009883a 	mov	r4,r18
  423a1c:	980b883a 	mov	r5,r19
  423a20:	042b7a80 	call	42b7a8 <__divdf3>
  423a24:	180b883a 	mov	r5,r3
  423a28:	1009883a 	mov	r4,r2
  423a2c:	042d5380 	call	42d538 <__fixdfsi>
  423a30:	1009883a 	mov	r4,r2
  423a34:	102b883a 	mov	r21,r2
  423a38:	042d5b80 	call	42d5b8 <__floatsidf>
  423a3c:	800d883a 	mov	r6,r16
  423a40:	880f883a 	mov	r7,r17
  423a44:	1009883a 	mov	r4,r2
  423a48:	180b883a 	mov	r5,r3
  423a4c:	042c3d00 	call	42c3d0 <__muldf3>
  423a50:	100d883a 	mov	r6,r2
  423a54:	180f883a 	mov	r7,r3
  423a58:	9009883a 	mov	r4,r18
  423a5c:	980b883a 	mov	r5,r19
  423a60:	042cc3c0 	call	42cc3c <__subdf3>
  423a64:	aa000c04 	addi	r8,r21,48
  423a68:	a2000005 	stb	r8,0(r20)
  423a6c:	000d883a 	mov	r6,zero
  423a70:	01d00934 	movhi	r7,16420
  423a74:	1009883a 	mov	r4,r2
  423a78:	180b883a 	mov	r5,r3
  423a7c:	a5c00044 	addi	r23,r20,1
  423a80:	b53fd91e 	bne	r22,r20,4239e8 <__alt_mem_sdram+0xf84239e8>
  423a84:	100d883a 	mov	r6,r2
  423a88:	180f883a 	mov	r7,r3
  423a8c:	1009883a 	mov	r4,r2
  423a90:	180b883a 	mov	r5,r3
  423a94:	042aefc0 	call	42aefc <__adddf3>
  423a98:	100d883a 	mov	r6,r2
  423a9c:	180f883a 	mov	r7,r3
  423aa0:	8009883a 	mov	r4,r16
  423aa4:	880b883a 	mov	r5,r17
  423aa8:	1027883a 	mov	r19,r2
  423aac:	1825883a 	mov	r18,r3
  423ab0:	042c2dc0 	call	42c2dc <__ledf2>
  423ab4:	10000816 	blt	r2,zero,423ad8 <_dtoa_r+0x948>
  423ab8:	980d883a 	mov	r6,r19
  423abc:	900f883a 	mov	r7,r18
  423ac0:	8009883a 	mov	r4,r16
  423ac4:	880b883a 	mov	r5,r17
  423ac8:	042c1780 	call	42c178 <__eqdf2>
  423acc:	103f5a1e 	bne	r2,zero,423838 <__alt_mem_sdram+0xf8423838>
  423ad0:	ad40004c 	andi	r21,r21,1
  423ad4:	a83f5826 	beq	r21,zero,423838 <__alt_mem_sdram+0xf8423838>
  423ad8:	bd3fffc3 	ldbu	r20,-1(r23)
  423adc:	b8bfffc4 	addi	r2,r23,-1
  423ae0:	1007883a 	mov	r3,r2
  423ae4:	01400e44 	movi	r5,57
  423ae8:	d9800717 	ldw	r6,28(sp)
  423aec:	00000506 	br	423b04 <_dtoa_r+0x974>
  423af0:	18ffffc4 	addi	r3,r3,-1
  423af4:	11824726 	beq	r2,r6,424414 <_dtoa_r+0x1284>
  423af8:	1d000003 	ldbu	r20,0(r3)
  423afc:	102f883a 	mov	r23,r2
  423b00:	10bfffc4 	addi	r2,r2,-1
  423b04:	a1003fcc 	andi	r4,r20,255
  423b08:	2100201c 	xori	r4,r4,128
  423b0c:	213fe004 	addi	r4,r4,-128
  423b10:	217ff726 	beq	r4,r5,423af0 <__alt_mem_sdram+0xf8423af0>
  423b14:	a2000044 	addi	r8,r20,1
  423b18:	12000005 	stb	r8,0(r2)
  423b1c:	003f4606 	br	423838 <__alt_mem_sdram+0xf8423838>
  423b20:	d9000b17 	ldw	r4,44(sp)
  423b24:	2000c826 	beq	r4,zero,423e48 <_dtoa_r+0xcb8>
  423b28:	d9800317 	ldw	r6,12(sp)
  423b2c:	00c00044 	movi	r3,1
  423b30:	1980f90e 	bge	r3,r6,423f18 <_dtoa_r+0xd88>
  423b34:	d8800617 	ldw	r2,24(sp)
  423b38:	d8c00a17 	ldw	r3,40(sp)
  423b3c:	157fffc4 	addi	r21,r2,-1
  423b40:	1d41f316 	blt	r3,r21,424310 <_dtoa_r+0x1180>
  423b44:	1d6bc83a 	sub	r21,r3,r21
  423b48:	d9c00617 	ldw	r7,24(sp)
  423b4c:	3802aa16 	blt	r7,zero,4245f8 <_dtoa_r+0x1468>
  423b50:	dd000817 	ldw	r20,32(sp)
  423b54:	d8800617 	ldw	r2,24(sp)
  423b58:	d8c00817 	ldw	r3,32(sp)
  423b5c:	01400044 	movi	r5,1
  423b60:	e009883a 	mov	r4,fp
  423b64:	1887883a 	add	r3,r3,r2
  423b68:	d8c00815 	stw	r3,32(sp)
  423b6c:	b0ad883a 	add	r22,r22,r2
  423b70:	0426c7c0 	call	426c7c <__i2b>
  423b74:	1023883a 	mov	r17,r2
  423b78:	a0000826 	beq	r20,zero,423b9c <_dtoa_r+0xa0c>
  423b7c:	0580070e 	bge	zero,r22,423b9c <_dtoa_r+0xa0c>
  423b80:	a005883a 	mov	r2,r20
  423b84:	b500b916 	blt	r22,r20,423e6c <_dtoa_r+0xcdc>
  423b88:	d9000817 	ldw	r4,32(sp)
  423b8c:	a0a9c83a 	sub	r20,r20,r2
  423b90:	b0adc83a 	sub	r22,r22,r2
  423b94:	2089c83a 	sub	r4,r4,r2
  423b98:	d9000815 	stw	r4,32(sp)
  423b9c:	d9800a17 	ldw	r6,40(sp)
  423ba0:	0181810e 	bge	zero,r6,4241a8 <_dtoa_r+0x1018>
  423ba4:	d9c00b17 	ldw	r7,44(sp)
  423ba8:	3800b326 	beq	r7,zero,423e78 <_dtoa_r+0xce8>
  423bac:	a800b226 	beq	r21,zero,423e78 <_dtoa_r+0xce8>
  423bb0:	880b883a 	mov	r5,r17
  423bb4:	a80d883a 	mov	r6,r21
  423bb8:	e009883a 	mov	r4,fp
  423bbc:	0426f440 	call	426f44 <__pow5mult>
  423bc0:	d9800917 	ldw	r6,36(sp)
  423bc4:	100b883a 	mov	r5,r2
  423bc8:	e009883a 	mov	r4,fp
  423bcc:	1023883a 	mov	r17,r2
  423bd0:	0426cb80 	call	426cb8 <__multiply>
  423bd4:	1021883a 	mov	r16,r2
  423bd8:	d8800a17 	ldw	r2,40(sp)
  423bdc:	d9400917 	ldw	r5,36(sp)
  423be0:	e009883a 	mov	r4,fp
  423be4:	1545c83a 	sub	r2,r2,r21
  423be8:	d8800a15 	stw	r2,40(sp)
  423bec:	04268f00 	call	4268f0 <_Bfree>
  423bf0:	d8c00a17 	ldw	r3,40(sp)
  423bf4:	18009f1e 	bne	r3,zero,423e74 <_dtoa_r+0xce4>
  423bf8:	05c00044 	movi	r23,1
  423bfc:	e009883a 	mov	r4,fp
  423c00:	b80b883a 	mov	r5,r23
  423c04:	0426c7c0 	call	426c7c <__i2b>
  423c08:	d9000d17 	ldw	r4,52(sp)
  423c0c:	102b883a 	mov	r21,r2
  423c10:	2000ce26 	beq	r4,zero,423f4c <_dtoa_r+0xdbc>
  423c14:	200d883a 	mov	r6,r4
  423c18:	100b883a 	mov	r5,r2
  423c1c:	e009883a 	mov	r4,fp
  423c20:	0426f440 	call	426f44 <__pow5mult>
  423c24:	d9800317 	ldw	r6,12(sp)
  423c28:	102b883a 	mov	r21,r2
  423c2c:	b981810e 	bge	r23,r6,424234 <_dtoa_r+0x10a4>
  423c30:	0027883a 	mov	r19,zero
  423c34:	a8800417 	ldw	r2,16(r21)
  423c38:	05c00804 	movi	r23,32
  423c3c:	10800104 	addi	r2,r2,4
  423c40:	1085883a 	add	r2,r2,r2
  423c44:	1085883a 	add	r2,r2,r2
  423c48:	a885883a 	add	r2,r21,r2
  423c4c:	11000017 	ldw	r4,0(r2)
  423c50:	0426b640 	call	426b64 <__hi0bits>
  423c54:	b885c83a 	sub	r2,r23,r2
  423c58:	1585883a 	add	r2,r2,r22
  423c5c:	108007cc 	andi	r2,r2,31
  423c60:	1000b326 	beq	r2,zero,423f30 <_dtoa_r+0xda0>
  423c64:	00c00804 	movi	r3,32
  423c68:	1887c83a 	sub	r3,r3,r2
  423c6c:	01000104 	movi	r4,4
  423c70:	20c2cd0e 	bge	r4,r3,4247a8 <_dtoa_r+0x1618>
  423c74:	00c00704 	movi	r3,28
  423c78:	1885c83a 	sub	r2,r3,r2
  423c7c:	d8c00817 	ldw	r3,32(sp)
  423c80:	a0a9883a 	add	r20,r20,r2
  423c84:	b0ad883a 	add	r22,r22,r2
  423c88:	1887883a 	add	r3,r3,r2
  423c8c:	d8c00815 	stw	r3,32(sp)
  423c90:	d9800817 	ldw	r6,32(sp)
  423c94:	0180040e 	bge	zero,r6,423ca8 <_dtoa_r+0xb18>
  423c98:	800b883a 	mov	r5,r16
  423c9c:	e009883a 	mov	r4,fp
  423ca0:	04270840 	call	427084 <__lshift>
  423ca4:	1021883a 	mov	r16,r2
  423ca8:	0580050e 	bge	zero,r22,423cc0 <_dtoa_r+0xb30>
  423cac:	a80b883a 	mov	r5,r21
  423cb0:	b00d883a 	mov	r6,r22
  423cb4:	e009883a 	mov	r4,fp
  423cb8:	04270840 	call	427084 <__lshift>
  423cbc:	102b883a 	mov	r21,r2
  423cc0:	d9c00e17 	ldw	r7,56(sp)
  423cc4:	3801211e 	bne	r7,zero,42414c <_dtoa_r+0xfbc>
  423cc8:	d9800617 	ldw	r6,24(sp)
  423ccc:	0181380e 	bge	zero,r6,4241b0 <_dtoa_r+0x1020>
  423cd0:	d8c00b17 	ldw	r3,44(sp)
  423cd4:	1800ab1e 	bne	r3,zero,423f84 <_dtoa_r+0xdf4>
  423cd8:	dc800717 	ldw	r18,28(sp)
  423cdc:	dcc00617 	ldw	r19,24(sp)
  423ce0:	9029883a 	mov	r20,r18
  423ce4:	00000206 	br	423cf0 <_dtoa_r+0xb60>
  423ce8:	04269180 	call	426918 <__multadd>
  423cec:	1021883a 	mov	r16,r2
  423cf0:	a80b883a 	mov	r5,r21
  423cf4:	8009883a 	mov	r4,r16
  423cf8:	0422f680 	call	422f68 <quorem>
  423cfc:	10800c04 	addi	r2,r2,48
  423d00:	90800005 	stb	r2,0(r18)
  423d04:	94800044 	addi	r18,r18,1
  423d08:	9507c83a 	sub	r3,r18,r20
  423d0c:	000f883a 	mov	r7,zero
  423d10:	01800284 	movi	r6,10
  423d14:	800b883a 	mov	r5,r16
  423d18:	e009883a 	mov	r4,fp
  423d1c:	1cfff216 	blt	r3,r19,423ce8 <__alt_mem_sdram+0xf8423ce8>
  423d20:	1011883a 	mov	r8,r2
  423d24:	d8800617 	ldw	r2,24(sp)
  423d28:	0082370e 	bge	zero,r2,424608 <_dtoa_r+0x1478>
  423d2c:	d9000717 	ldw	r4,28(sp)
  423d30:	0025883a 	mov	r18,zero
  423d34:	20af883a 	add	r23,r4,r2
  423d38:	01800044 	movi	r6,1
  423d3c:	800b883a 	mov	r5,r16
  423d40:	e009883a 	mov	r4,fp
  423d44:	da001715 	stw	r8,92(sp)
  423d48:	04270840 	call	427084 <__lshift>
  423d4c:	a80b883a 	mov	r5,r21
  423d50:	1009883a 	mov	r4,r2
  423d54:	d8800915 	stw	r2,36(sp)
  423d58:	04271cc0 	call	4271cc <__mcmp>
  423d5c:	da001717 	ldw	r8,92(sp)
  423d60:	0081800e 	bge	zero,r2,424364 <_dtoa_r+0x11d4>
  423d64:	b93fffc3 	ldbu	r4,-1(r23)
  423d68:	b8bfffc4 	addi	r2,r23,-1
  423d6c:	1007883a 	mov	r3,r2
  423d70:	01800e44 	movi	r6,57
  423d74:	d9c00717 	ldw	r7,28(sp)
  423d78:	00000506 	br	423d90 <_dtoa_r+0xc00>
  423d7c:	18ffffc4 	addi	r3,r3,-1
  423d80:	11c12326 	beq	r2,r7,424210 <_dtoa_r+0x1080>
  423d84:	19000003 	ldbu	r4,0(r3)
  423d88:	102f883a 	mov	r23,r2
  423d8c:	10bfffc4 	addi	r2,r2,-1
  423d90:	21403fcc 	andi	r5,r4,255
  423d94:	2940201c 	xori	r5,r5,128
  423d98:	297fe004 	addi	r5,r5,-128
  423d9c:	29bff726 	beq	r5,r6,423d7c <__alt_mem_sdram+0xf8423d7c>
  423da0:	21000044 	addi	r4,r4,1
  423da4:	11000005 	stb	r4,0(r2)
  423da8:	a80b883a 	mov	r5,r21
  423dac:	e009883a 	mov	r4,fp
  423db0:	04268f00 	call	4268f0 <_Bfree>
  423db4:	883ea026 	beq	r17,zero,423838 <__alt_mem_sdram+0xf8423838>
  423db8:	90000426 	beq	r18,zero,423dcc <_dtoa_r+0xc3c>
  423dbc:	94400326 	beq	r18,r17,423dcc <_dtoa_r+0xc3c>
  423dc0:	900b883a 	mov	r5,r18
  423dc4:	e009883a 	mov	r4,fp
  423dc8:	04268f00 	call	4268f0 <_Bfree>
  423dcc:	880b883a 	mov	r5,r17
  423dd0:	e009883a 	mov	r4,fp
  423dd4:	04268f00 	call	4268f0 <_Bfree>
  423dd8:	003e9706 	br	423838 <__alt_mem_sdram+0xf8423838>
  423ddc:	01800044 	movi	r6,1
  423de0:	d9800e15 	stw	r6,56(sp)
  423de4:	003d9606 	br	423440 <__alt_mem_sdram+0xf8423440>
  423de8:	d8800817 	ldw	r2,32(sp)
  423dec:	d8c00517 	ldw	r3,20(sp)
  423df0:	d8000d15 	stw	zero,52(sp)
  423df4:	10c5c83a 	sub	r2,r2,r3
  423df8:	00c9c83a 	sub	r4,zero,r3
  423dfc:	d8800815 	stw	r2,32(sp)
  423e00:	d9000a15 	stw	r4,40(sp)
  423e04:	003d9706 	br	423464 <__alt_mem_sdram+0xf8423464>
  423e08:	05adc83a 	sub	r22,zero,r22
  423e0c:	dd800815 	stw	r22,32(sp)
  423e10:	002d883a 	mov	r22,zero
  423e14:	003d8e06 	br	423450 <__alt_mem_sdram+0xf8423450>
  423e18:	d9000517 	ldw	r4,20(sp)
  423e1c:	042d5b80 	call	42d5b8 <__floatsidf>
  423e20:	100d883a 	mov	r6,r2
  423e24:	180f883a 	mov	r7,r3
  423e28:	a009883a 	mov	r4,r20
  423e2c:	880b883a 	mov	r5,r17
  423e30:	042c1780 	call	42c178 <__eqdf2>
  423e34:	103d7126 	beq	r2,zero,4233fc <__alt_mem_sdram+0xf84233fc>
  423e38:	d9c00517 	ldw	r7,20(sp)
  423e3c:	39ffffc4 	addi	r7,r7,-1
  423e40:	d9c00515 	stw	r7,20(sp)
  423e44:	003d6d06 	br	4233fc <__alt_mem_sdram+0xf84233fc>
  423e48:	dd400a17 	ldw	r21,40(sp)
  423e4c:	dd000817 	ldw	r20,32(sp)
  423e50:	0023883a 	mov	r17,zero
  423e54:	003f4806 	br	423b78 <__alt_mem_sdram+0xf8423b78>
  423e58:	10e3c83a 	sub	r17,r2,r3
  423e5c:	9448983a 	sll	r4,r18,r17
  423e60:	003d3206 	br	42332c <__alt_mem_sdram+0xf842332c>
  423e64:	d8000e15 	stw	zero,56(sp)
  423e68:	003d7506 	br	423440 <__alt_mem_sdram+0xf8423440>
  423e6c:	b005883a 	mov	r2,r22
  423e70:	003f4506 	br	423b88 <__alt_mem_sdram+0xf8423b88>
  423e74:	dc000915 	stw	r16,36(sp)
  423e78:	d9800a17 	ldw	r6,40(sp)
  423e7c:	d9400917 	ldw	r5,36(sp)
  423e80:	e009883a 	mov	r4,fp
  423e84:	0426f440 	call	426f44 <__pow5mult>
  423e88:	1021883a 	mov	r16,r2
  423e8c:	003f5a06 	br	423bf8 <__alt_mem_sdram+0xf8423bf8>
  423e90:	01c00044 	movi	r7,1
  423e94:	d9c00b15 	stw	r7,44(sp)
  423e98:	d8802217 	ldw	r2,136(sp)
  423e9c:	0081280e 	bge	zero,r2,424340 <_dtoa_r+0x11b0>
  423ea0:	100d883a 	mov	r6,r2
  423ea4:	1021883a 	mov	r16,r2
  423ea8:	d8800c15 	stw	r2,48(sp)
  423eac:	d8800615 	stw	r2,24(sp)
  423eb0:	003d8806 	br	4234d4 <__alt_mem_sdram+0xf84234d4>
  423eb4:	d8800617 	ldw	r2,24(sp)
  423eb8:	00be9b16 	blt	zero,r2,423928 <__alt_mem_sdram+0xf8423928>
  423ebc:	10010f1e 	bne	r2,zero,4242fc <_dtoa_r+0x116c>
  423ec0:	880b883a 	mov	r5,r17
  423ec4:	000d883a 	mov	r6,zero
  423ec8:	01d00534 	movhi	r7,16404
  423ecc:	8009883a 	mov	r4,r16
  423ed0:	042c3d00 	call	42c3d0 <__muldf3>
  423ed4:	900d883a 	mov	r6,r18
  423ed8:	980f883a 	mov	r7,r19
  423edc:	1009883a 	mov	r4,r2
  423ee0:	180b883a 	mov	r5,r3
  423ee4:	042c2000 	call	42c200 <__gedf2>
  423ee8:	002b883a 	mov	r21,zero
  423eec:	0023883a 	mov	r17,zero
  423ef0:	1000bf16 	blt	r2,zero,4241f0 <_dtoa_r+0x1060>
  423ef4:	d9802217 	ldw	r6,136(sp)
  423ef8:	ddc00717 	ldw	r23,28(sp)
  423efc:	018c303a 	nor	r6,zero,r6
  423f00:	d9800515 	stw	r6,20(sp)
  423f04:	a80b883a 	mov	r5,r21
  423f08:	e009883a 	mov	r4,fp
  423f0c:	04268f00 	call	4268f0 <_Bfree>
  423f10:	883e4926 	beq	r17,zero,423838 <__alt_mem_sdram+0xf8423838>
  423f14:	003fad06 	br	423dcc <__alt_mem_sdram+0xf8423dcc>
  423f18:	d9c01117 	ldw	r7,68(sp)
  423f1c:	3801bc26 	beq	r7,zero,424610 <_dtoa_r+0x1480>
  423f20:	10810cc4 	addi	r2,r2,1075
  423f24:	dd400a17 	ldw	r21,40(sp)
  423f28:	dd000817 	ldw	r20,32(sp)
  423f2c:	003f0a06 	br	423b58 <__alt_mem_sdram+0xf8423b58>
  423f30:	00800704 	movi	r2,28
  423f34:	d9000817 	ldw	r4,32(sp)
  423f38:	a0a9883a 	add	r20,r20,r2
  423f3c:	b0ad883a 	add	r22,r22,r2
  423f40:	2089883a 	add	r4,r4,r2
  423f44:	d9000815 	stw	r4,32(sp)
  423f48:	003f5106 	br	423c90 <__alt_mem_sdram+0xf8423c90>
  423f4c:	d8c00317 	ldw	r3,12(sp)
  423f50:	b8c1fc0e 	bge	r23,r3,424744 <_dtoa_r+0x15b4>
  423f54:	0027883a 	mov	r19,zero
  423f58:	b805883a 	mov	r2,r23
  423f5c:	003f3e06 	br	423c58 <__alt_mem_sdram+0xf8423c58>
  423f60:	880b883a 	mov	r5,r17
  423f64:	e009883a 	mov	r4,fp
  423f68:	000f883a 	mov	r7,zero
  423f6c:	01800284 	movi	r6,10
  423f70:	04269180 	call	426918 <__multadd>
  423f74:	d9000c17 	ldw	r4,48(sp)
  423f78:	1023883a 	mov	r17,r2
  423f7c:	0102040e 	bge	zero,r4,424790 <_dtoa_r+0x1600>
  423f80:	d9000615 	stw	r4,24(sp)
  423f84:	0500050e 	bge	zero,r20,423f9c <_dtoa_r+0xe0c>
  423f88:	880b883a 	mov	r5,r17
  423f8c:	a00d883a 	mov	r6,r20
  423f90:	e009883a 	mov	r4,fp
  423f94:	04270840 	call	427084 <__lshift>
  423f98:	1023883a 	mov	r17,r2
  423f9c:	9801241e 	bne	r19,zero,424430 <_dtoa_r+0x12a0>
  423fa0:	8829883a 	mov	r20,r17
  423fa4:	d9000617 	ldw	r4,24(sp)
  423fa8:	dcc00717 	ldw	r19,28(sp)
  423fac:	9480004c 	andi	r18,r18,1
  423fb0:	20bfffc4 	addi	r2,r4,-1
  423fb4:	9885883a 	add	r2,r19,r2
  423fb8:	d8800415 	stw	r2,16(sp)
  423fbc:	dc800615 	stw	r18,24(sp)
  423fc0:	a80b883a 	mov	r5,r21
  423fc4:	8009883a 	mov	r4,r16
  423fc8:	0422f680 	call	422f68 <quorem>
  423fcc:	880b883a 	mov	r5,r17
  423fd0:	8009883a 	mov	r4,r16
  423fd4:	102f883a 	mov	r23,r2
  423fd8:	04271cc0 	call	4271cc <__mcmp>
  423fdc:	a80b883a 	mov	r5,r21
  423fe0:	a00d883a 	mov	r6,r20
  423fe4:	e009883a 	mov	r4,fp
  423fe8:	102d883a 	mov	r22,r2
  423fec:	042722c0 	call	42722c <__mdiff>
  423ff0:	1007883a 	mov	r3,r2
  423ff4:	10800317 	ldw	r2,12(r2)
  423ff8:	bc800c04 	addi	r18,r23,48
  423ffc:	180b883a 	mov	r5,r3
  424000:	10004e1e 	bne	r2,zero,42413c <_dtoa_r+0xfac>
  424004:	8009883a 	mov	r4,r16
  424008:	d8c01615 	stw	r3,88(sp)
  42400c:	04271cc0 	call	4271cc <__mcmp>
  424010:	d8c01617 	ldw	r3,88(sp)
  424014:	e009883a 	mov	r4,fp
  424018:	d8801615 	stw	r2,88(sp)
  42401c:	180b883a 	mov	r5,r3
  424020:	04268f00 	call	4268f0 <_Bfree>
  424024:	d8801617 	ldw	r2,88(sp)
  424028:	1000041e 	bne	r2,zero,42403c <_dtoa_r+0xeac>
  42402c:	d9800317 	ldw	r6,12(sp)
  424030:	3000021e 	bne	r6,zero,42403c <_dtoa_r+0xeac>
  424034:	d8c00617 	ldw	r3,24(sp)
  424038:	18003726 	beq	r3,zero,424118 <_dtoa_r+0xf88>
  42403c:	b0002016 	blt	r22,zero,4240c0 <_dtoa_r+0xf30>
  424040:	b000041e 	bne	r22,zero,424054 <_dtoa_r+0xec4>
  424044:	d9000317 	ldw	r4,12(sp)
  424048:	2000021e 	bne	r4,zero,424054 <_dtoa_r+0xec4>
  42404c:	d8c00617 	ldw	r3,24(sp)
  424050:	18001b26 	beq	r3,zero,4240c0 <_dtoa_r+0xf30>
  424054:	00810716 	blt	zero,r2,424474 <_dtoa_r+0x12e4>
  424058:	d8c00417 	ldw	r3,16(sp)
  42405c:	9d800044 	addi	r22,r19,1
  424060:	9c800005 	stb	r18,0(r19)
  424064:	b02f883a 	mov	r23,r22
  424068:	98c10626 	beq	r19,r3,424484 <_dtoa_r+0x12f4>
  42406c:	800b883a 	mov	r5,r16
  424070:	000f883a 	mov	r7,zero
  424074:	01800284 	movi	r6,10
  424078:	e009883a 	mov	r4,fp
  42407c:	04269180 	call	426918 <__multadd>
  424080:	1021883a 	mov	r16,r2
  424084:	000f883a 	mov	r7,zero
  424088:	01800284 	movi	r6,10
  42408c:	880b883a 	mov	r5,r17
  424090:	e009883a 	mov	r4,fp
  424094:	8d002526 	beq	r17,r20,42412c <_dtoa_r+0xf9c>
  424098:	04269180 	call	426918 <__multadd>
  42409c:	a00b883a 	mov	r5,r20
  4240a0:	000f883a 	mov	r7,zero
  4240a4:	01800284 	movi	r6,10
  4240a8:	e009883a 	mov	r4,fp
  4240ac:	1023883a 	mov	r17,r2
  4240b0:	04269180 	call	426918 <__multadd>
  4240b4:	1029883a 	mov	r20,r2
  4240b8:	b027883a 	mov	r19,r22
  4240bc:	003fc006 	br	423fc0 <__alt_mem_sdram+0xf8423fc0>
  4240c0:	9011883a 	mov	r8,r18
  4240c4:	00800e0e 	bge	zero,r2,424100 <_dtoa_r+0xf70>
  4240c8:	800b883a 	mov	r5,r16
  4240cc:	01800044 	movi	r6,1
  4240d0:	e009883a 	mov	r4,fp
  4240d4:	da001715 	stw	r8,92(sp)
  4240d8:	04270840 	call	427084 <__lshift>
  4240dc:	a80b883a 	mov	r5,r21
  4240e0:	1009883a 	mov	r4,r2
  4240e4:	1021883a 	mov	r16,r2
  4240e8:	04271cc0 	call	4271cc <__mcmp>
  4240ec:	da001717 	ldw	r8,92(sp)
  4240f0:	0081960e 	bge	zero,r2,42474c <_dtoa_r+0x15bc>
  4240f4:	00800e44 	movi	r2,57
  4240f8:	40817026 	beq	r8,r2,4246bc <_dtoa_r+0x152c>
  4240fc:	ba000c44 	addi	r8,r23,49
  424100:	8825883a 	mov	r18,r17
  424104:	9dc00044 	addi	r23,r19,1
  424108:	9a000005 	stb	r8,0(r19)
  42410c:	a023883a 	mov	r17,r20
  424110:	dc000915 	stw	r16,36(sp)
  424114:	003f2406 	br	423da8 <__alt_mem_sdram+0xf8423da8>
  424118:	00800e44 	movi	r2,57
  42411c:	9011883a 	mov	r8,r18
  424120:	90816626 	beq	r18,r2,4246bc <_dtoa_r+0x152c>
  424124:	05bff516 	blt	zero,r22,4240fc <__alt_mem_sdram+0xf84240fc>
  424128:	003ff506 	br	424100 <__alt_mem_sdram+0xf8424100>
  42412c:	04269180 	call	426918 <__multadd>
  424130:	1023883a 	mov	r17,r2
  424134:	1029883a 	mov	r20,r2
  424138:	003fdf06 	br	4240b8 <__alt_mem_sdram+0xf84240b8>
  42413c:	e009883a 	mov	r4,fp
  424140:	04268f00 	call	4268f0 <_Bfree>
  424144:	00800044 	movi	r2,1
  424148:	003fbc06 	br	42403c <__alt_mem_sdram+0xf842403c>
  42414c:	a80b883a 	mov	r5,r21
  424150:	8009883a 	mov	r4,r16
  424154:	04271cc0 	call	4271cc <__mcmp>
  424158:	103edb0e 	bge	r2,zero,423cc8 <__alt_mem_sdram+0xf8423cc8>
  42415c:	800b883a 	mov	r5,r16
  424160:	000f883a 	mov	r7,zero
  424164:	01800284 	movi	r6,10
  424168:	e009883a 	mov	r4,fp
  42416c:	04269180 	call	426918 <__multadd>
  424170:	1021883a 	mov	r16,r2
  424174:	d8800517 	ldw	r2,20(sp)
  424178:	d8c00b17 	ldw	r3,44(sp)
  42417c:	10bfffc4 	addi	r2,r2,-1
  424180:	d8800515 	stw	r2,20(sp)
  424184:	183f761e 	bne	r3,zero,423f60 <__alt_mem_sdram+0xf8423f60>
  424188:	d9000c17 	ldw	r4,48(sp)
  42418c:	0101730e 	bge	zero,r4,42475c <_dtoa_r+0x15cc>
  424190:	d9000615 	stw	r4,24(sp)
  424194:	003ed006 	br	423cd8 <__alt_mem_sdram+0xf8423cd8>
  424198:	00800084 	movi	r2,2
  42419c:	3081861e 	bne	r6,r2,4247b8 <_dtoa_r+0x1628>
  4241a0:	d8000b15 	stw	zero,44(sp)
  4241a4:	003f3c06 	br	423e98 <__alt_mem_sdram+0xf8423e98>
  4241a8:	dc000917 	ldw	r16,36(sp)
  4241ac:	003e9206 	br	423bf8 <__alt_mem_sdram+0xf8423bf8>
  4241b0:	d9c00317 	ldw	r7,12(sp)
  4241b4:	00800084 	movi	r2,2
  4241b8:	11fec50e 	bge	r2,r7,423cd0 <__alt_mem_sdram+0xf8423cd0>
  4241bc:	d9000617 	ldw	r4,24(sp)
  4241c0:	20013c1e 	bne	r4,zero,4246b4 <_dtoa_r+0x1524>
  4241c4:	a80b883a 	mov	r5,r21
  4241c8:	000f883a 	mov	r7,zero
  4241cc:	01800144 	movi	r6,5
  4241d0:	e009883a 	mov	r4,fp
  4241d4:	04269180 	call	426918 <__multadd>
  4241d8:	100b883a 	mov	r5,r2
  4241dc:	8009883a 	mov	r4,r16
  4241e0:	102b883a 	mov	r21,r2
  4241e4:	04271cc0 	call	4271cc <__mcmp>
  4241e8:	dc000915 	stw	r16,36(sp)
  4241ec:	00bf410e 	bge	zero,r2,423ef4 <__alt_mem_sdram+0xf8423ef4>
  4241f0:	d9c00717 	ldw	r7,28(sp)
  4241f4:	00800c44 	movi	r2,49
  4241f8:	38800005 	stb	r2,0(r7)
  4241fc:	d8800517 	ldw	r2,20(sp)
  424200:	3dc00044 	addi	r23,r7,1
  424204:	10800044 	addi	r2,r2,1
  424208:	d8800515 	stw	r2,20(sp)
  42420c:	003f3d06 	br	423f04 <__alt_mem_sdram+0xf8423f04>
  424210:	d9800517 	ldw	r6,20(sp)
  424214:	d9c00717 	ldw	r7,28(sp)
  424218:	00800c44 	movi	r2,49
  42421c:	31800044 	addi	r6,r6,1
  424220:	d9800515 	stw	r6,20(sp)
  424224:	38800005 	stb	r2,0(r7)
  424228:	003edf06 	br	423da8 <__alt_mem_sdram+0xf8423da8>
  42422c:	d8000b15 	stw	zero,44(sp)
  424230:	003c9f06 	br	4234b0 <__alt_mem_sdram+0xf84234b0>
  424234:	903e7e1e 	bne	r18,zero,423c30 <__alt_mem_sdram+0xf8423c30>
  424238:	00800434 	movhi	r2,16
  42423c:	10bfffc4 	addi	r2,r2,-1
  424240:	9884703a 	and	r2,r19,r2
  424244:	1000ea1e 	bne	r2,zero,4245f0 <_dtoa_r+0x1460>
  424248:	9cdffc2c 	andhi	r19,r19,32752
  42424c:	9800e826 	beq	r19,zero,4245f0 <_dtoa_r+0x1460>
  424250:	d9c00817 	ldw	r7,32(sp)
  424254:	b5800044 	addi	r22,r22,1
  424258:	04c00044 	movi	r19,1
  42425c:	39c00044 	addi	r7,r7,1
  424260:	d9c00815 	stw	r7,32(sp)
  424264:	d8800d17 	ldw	r2,52(sp)
  424268:	103e721e 	bne	r2,zero,423c34 <__alt_mem_sdram+0xf8423c34>
  42426c:	00800044 	movi	r2,1
  424270:	003e7906 	br	423c58 <__alt_mem_sdram+0xf8423c58>
  424274:	8009883a 	mov	r4,r16
  424278:	042d5b80 	call	42d5b8 <__floatsidf>
  42427c:	d9800f17 	ldw	r6,60(sp)
  424280:	d9c01017 	ldw	r7,64(sp)
  424284:	1009883a 	mov	r4,r2
  424288:	180b883a 	mov	r5,r3
  42428c:	042c3d00 	call	42c3d0 <__muldf3>
  424290:	000d883a 	mov	r6,zero
  424294:	01d00734 	movhi	r7,16412
  424298:	1009883a 	mov	r4,r2
  42429c:	180b883a 	mov	r5,r3
  4242a0:	042aefc0 	call	42aefc <__adddf3>
  4242a4:	047f3034 	movhi	r17,64704
  4242a8:	1021883a 	mov	r16,r2
  4242ac:	1c63883a 	add	r17,r3,r17
  4242b0:	d9000f17 	ldw	r4,60(sp)
  4242b4:	d9401017 	ldw	r5,64(sp)
  4242b8:	000d883a 	mov	r6,zero
  4242bc:	01d00534 	movhi	r7,16404
  4242c0:	042cc3c0 	call	42cc3c <__subdf3>
  4242c4:	800d883a 	mov	r6,r16
  4242c8:	880f883a 	mov	r7,r17
  4242cc:	1009883a 	mov	r4,r2
  4242d0:	180b883a 	mov	r5,r3
  4242d4:	102b883a 	mov	r21,r2
  4242d8:	1829883a 	mov	r20,r3
  4242dc:	042c2000 	call	42c200 <__gedf2>
  4242e0:	00806c16 	blt	zero,r2,424494 <_dtoa_r+0x1304>
  4242e4:	89e0003c 	xorhi	r7,r17,32768
  4242e8:	800d883a 	mov	r6,r16
  4242ec:	a809883a 	mov	r4,r21
  4242f0:	a00b883a 	mov	r5,r20
  4242f4:	042c2dc0 	call	42c2dc <__ledf2>
  4242f8:	103d7e0e 	bge	r2,zero,4238f4 <__alt_mem_sdram+0xf84238f4>
  4242fc:	002b883a 	mov	r21,zero
  424300:	0023883a 	mov	r17,zero
  424304:	003efb06 	br	423ef4 <__alt_mem_sdram+0xf8423ef4>
  424308:	d8800717 	ldw	r2,28(sp)
  42430c:	003bd006 	br	423250 <__alt_mem_sdram+0xf8423250>
  424310:	d9000a17 	ldw	r4,40(sp)
  424314:	d9800d17 	ldw	r6,52(sp)
  424318:	dd400a15 	stw	r21,40(sp)
  42431c:	a905c83a 	sub	r2,r21,r4
  424320:	308d883a 	add	r6,r6,r2
  424324:	d9800d15 	stw	r6,52(sp)
  424328:	002b883a 	mov	r21,zero
  42432c:	003e0606 	br	423b48 <__alt_mem_sdram+0xf8423b48>
  424330:	9023883a 	mov	r17,r18
  424334:	9829883a 	mov	r20,r19
  424338:	04000084 	movi	r16,2
  42433c:	003c9206 	br	423588 <__alt_mem_sdram+0xf8423588>
  424340:	04000044 	movi	r16,1
  424344:	dc000c15 	stw	r16,48(sp)
  424348:	dc000615 	stw	r16,24(sp)
  42434c:	dc002215 	stw	r16,136(sp)
  424350:	e0001115 	stw	zero,68(fp)
  424354:	000b883a 	mov	r5,zero
  424358:	003c6906 	br	423500 <__alt_mem_sdram+0xf8423500>
  42435c:	3021883a 	mov	r16,r6
  424360:	003ffb06 	br	424350 <__alt_mem_sdram+0xf8424350>
  424364:	1000021e 	bne	r2,zero,424370 <_dtoa_r+0x11e0>
  424368:	4200004c 	andi	r8,r8,1
  42436c:	403e7d1e 	bne	r8,zero,423d64 <__alt_mem_sdram+0xf8423d64>
  424370:	01000c04 	movi	r4,48
  424374:	00000106 	br	42437c <_dtoa_r+0x11ec>
  424378:	102f883a 	mov	r23,r2
  42437c:	b8bfffc4 	addi	r2,r23,-1
  424380:	10c00007 	ldb	r3,0(r2)
  424384:	193ffc26 	beq	r3,r4,424378 <__alt_mem_sdram+0xf8424378>
  424388:	003e8706 	br	423da8 <__alt_mem_sdram+0xf8423da8>
  42438c:	d8800517 	ldw	r2,20(sp)
  424390:	00a3c83a 	sub	r17,zero,r2
  424394:	8800a426 	beq	r17,zero,424628 <_dtoa_r+0x1498>
  424398:	888003cc 	andi	r2,r17,15
  42439c:	100490fa 	slli	r2,r2,3
  4243a0:	00c010f4 	movhi	r3,67
  4243a4:	18c32704 	addi	r3,r3,3228
  4243a8:	1885883a 	add	r2,r3,r2
  4243ac:	11800017 	ldw	r6,0(r2)
  4243b0:	11c00117 	ldw	r7,4(r2)
  4243b4:	9009883a 	mov	r4,r18
  4243b8:	980b883a 	mov	r5,r19
  4243bc:	8823d13a 	srai	r17,r17,4
  4243c0:	042c3d00 	call	42c3d0 <__muldf3>
  4243c4:	d8800f15 	stw	r2,60(sp)
  4243c8:	d8c01015 	stw	r3,64(sp)
  4243cc:	8800e826 	beq	r17,zero,424770 <_dtoa_r+0x15e0>
  4243d0:	050010f4 	movhi	r20,67
  4243d4:	a5031d04 	addi	r20,r20,3188
  4243d8:	04000084 	movi	r16,2
  4243dc:	8980004c 	andi	r6,r17,1
  4243e0:	1009883a 	mov	r4,r2
  4243e4:	8823d07a 	srai	r17,r17,1
  4243e8:	180b883a 	mov	r5,r3
  4243ec:	30000426 	beq	r6,zero,424400 <_dtoa_r+0x1270>
  4243f0:	a1800017 	ldw	r6,0(r20)
  4243f4:	a1c00117 	ldw	r7,4(r20)
  4243f8:	84000044 	addi	r16,r16,1
  4243fc:	042c3d00 	call	42c3d0 <__muldf3>
  424400:	a5000204 	addi	r20,r20,8
  424404:	883ff51e 	bne	r17,zero,4243dc <__alt_mem_sdram+0xf84243dc>
  424408:	d8800f15 	stw	r2,60(sp)
  42440c:	d8c01015 	stw	r3,64(sp)
  424410:	003c7606 	br	4235ec <__alt_mem_sdram+0xf84235ec>
  424414:	00c00c04 	movi	r3,48
  424418:	10c00005 	stb	r3,0(r2)
  42441c:	d8c00517 	ldw	r3,20(sp)
  424420:	bd3fffc3 	ldbu	r20,-1(r23)
  424424:	18c00044 	addi	r3,r3,1
  424428:	d8c00515 	stw	r3,20(sp)
  42442c:	003db906 	br	423b14 <__alt_mem_sdram+0xf8423b14>
  424430:	89400117 	ldw	r5,4(r17)
  424434:	e009883a 	mov	r4,fp
  424438:	04268480 	call	426848 <_Balloc>
  42443c:	89800417 	ldw	r6,16(r17)
  424440:	89400304 	addi	r5,r17,12
  424444:	11000304 	addi	r4,r2,12
  424448:	31800084 	addi	r6,r6,2
  42444c:	318d883a 	add	r6,r6,r6
  424450:	318d883a 	add	r6,r6,r6
  424454:	1027883a 	mov	r19,r2
  424458:	042647c0 	call	42647c <memcpy>
  42445c:	01800044 	movi	r6,1
  424460:	980b883a 	mov	r5,r19
  424464:	e009883a 	mov	r4,fp
  424468:	04270840 	call	427084 <__lshift>
  42446c:	1029883a 	mov	r20,r2
  424470:	003ecc06 	br	423fa4 <__alt_mem_sdram+0xf8423fa4>
  424474:	00800e44 	movi	r2,57
  424478:	90809026 	beq	r18,r2,4246bc <_dtoa_r+0x152c>
  42447c:	92000044 	addi	r8,r18,1
  424480:	003f1f06 	br	424100 <__alt_mem_sdram+0xf8424100>
  424484:	9011883a 	mov	r8,r18
  424488:	8825883a 	mov	r18,r17
  42448c:	a023883a 	mov	r17,r20
  424490:	003e2906 	br	423d38 <__alt_mem_sdram+0xf8423d38>
  424494:	002b883a 	mov	r21,zero
  424498:	0023883a 	mov	r17,zero
  42449c:	003f5406 	br	4241f0 <__alt_mem_sdram+0xf84241f0>
  4244a0:	61bfffc4 	addi	r6,r12,-1
  4244a4:	300490fa 	slli	r2,r6,3
  4244a8:	00c010f4 	movhi	r3,67
  4244ac:	18c32704 	addi	r3,r3,3228
  4244b0:	1885883a 	add	r2,r3,r2
  4244b4:	11000017 	ldw	r4,0(r2)
  4244b8:	11400117 	ldw	r5,4(r2)
  4244bc:	d8800717 	ldw	r2,28(sp)
  4244c0:	880f883a 	mov	r7,r17
  4244c4:	d9801215 	stw	r6,72(sp)
  4244c8:	800d883a 	mov	r6,r16
  4244cc:	db001615 	stw	r12,88(sp)
  4244d0:	15c00044 	addi	r23,r2,1
  4244d4:	042c3d00 	call	42c3d0 <__muldf3>
  4244d8:	d9401017 	ldw	r5,64(sp)
  4244dc:	d9000f17 	ldw	r4,60(sp)
  4244e0:	d8c01515 	stw	r3,84(sp)
  4244e4:	d8801415 	stw	r2,80(sp)
  4244e8:	042d5380 	call	42d538 <__fixdfsi>
  4244ec:	1009883a 	mov	r4,r2
  4244f0:	1021883a 	mov	r16,r2
  4244f4:	042d5b80 	call	42d5b8 <__floatsidf>
  4244f8:	d9000f17 	ldw	r4,60(sp)
  4244fc:	d9401017 	ldw	r5,64(sp)
  424500:	100d883a 	mov	r6,r2
  424504:	180f883a 	mov	r7,r3
  424508:	042cc3c0 	call	42cc3c <__subdf3>
  42450c:	1829883a 	mov	r20,r3
  424510:	d8c00717 	ldw	r3,28(sp)
  424514:	84000c04 	addi	r16,r16,48
  424518:	1023883a 	mov	r17,r2
  42451c:	1c000005 	stb	r16,0(r3)
  424520:	db001617 	ldw	r12,88(sp)
  424524:	00800044 	movi	r2,1
  424528:	60802226 	beq	r12,r2,4245b4 <_dtoa_r+0x1424>
  42452c:	d9c00717 	ldw	r7,28(sp)
  424530:	8805883a 	mov	r2,r17
  424534:	b82b883a 	mov	r21,r23
  424538:	3b19883a 	add	r12,r7,r12
  42453c:	6023883a 	mov	r17,r12
  424540:	a007883a 	mov	r3,r20
  424544:	dc800f15 	stw	r18,60(sp)
  424548:	000d883a 	mov	r6,zero
  42454c:	01d00934 	movhi	r7,16420
  424550:	1009883a 	mov	r4,r2
  424554:	180b883a 	mov	r5,r3
  424558:	042c3d00 	call	42c3d0 <__muldf3>
  42455c:	180b883a 	mov	r5,r3
  424560:	1009883a 	mov	r4,r2
  424564:	1829883a 	mov	r20,r3
  424568:	1025883a 	mov	r18,r2
  42456c:	042d5380 	call	42d538 <__fixdfsi>
  424570:	1009883a 	mov	r4,r2
  424574:	1021883a 	mov	r16,r2
  424578:	042d5b80 	call	42d5b8 <__floatsidf>
  42457c:	100d883a 	mov	r6,r2
  424580:	180f883a 	mov	r7,r3
  424584:	9009883a 	mov	r4,r18
  424588:	a00b883a 	mov	r5,r20
  42458c:	84000c04 	addi	r16,r16,48
  424590:	042cc3c0 	call	42cc3c <__subdf3>
  424594:	ad400044 	addi	r21,r21,1
  424598:	ac3fffc5 	stb	r16,-1(r21)
  42459c:	ac7fea1e 	bne	r21,r17,424548 <__alt_mem_sdram+0xf8424548>
  4245a0:	1023883a 	mov	r17,r2
  4245a4:	d8801217 	ldw	r2,72(sp)
  4245a8:	dc800f17 	ldw	r18,60(sp)
  4245ac:	1829883a 	mov	r20,r3
  4245b0:	b8af883a 	add	r23,r23,r2
  4245b4:	d9001417 	ldw	r4,80(sp)
  4245b8:	d9401517 	ldw	r5,84(sp)
  4245bc:	000d883a 	mov	r6,zero
  4245c0:	01cff834 	movhi	r7,16352
  4245c4:	042aefc0 	call	42aefc <__adddf3>
  4245c8:	880d883a 	mov	r6,r17
  4245cc:	a00f883a 	mov	r7,r20
  4245d0:	1009883a 	mov	r4,r2
  4245d4:	180b883a 	mov	r5,r3
  4245d8:	042c2dc0 	call	42c2dc <__ledf2>
  4245dc:	10003e0e 	bge	r2,zero,4246d8 <_dtoa_r+0x1548>
  4245e0:	d9001317 	ldw	r4,76(sp)
  4245e4:	bd3fffc3 	ldbu	r20,-1(r23)
  4245e8:	d9000515 	stw	r4,20(sp)
  4245ec:	003d3b06 	br	423adc <__alt_mem_sdram+0xf8423adc>
  4245f0:	0027883a 	mov	r19,zero
  4245f4:	003f1b06 	br	424264 <__alt_mem_sdram+0xf8424264>
  4245f8:	d8800817 	ldw	r2,32(sp)
  4245fc:	11e9c83a 	sub	r20,r2,r7
  424600:	0005883a 	mov	r2,zero
  424604:	003d5406 	br	423b58 <__alt_mem_sdram+0xf8423b58>
  424608:	00800044 	movi	r2,1
  42460c:	003dc706 	br	423d2c <__alt_mem_sdram+0xf8423d2c>
  424610:	d8c00217 	ldw	r3,8(sp)
  424614:	00800d84 	movi	r2,54
  424618:	dd400a17 	ldw	r21,40(sp)
  42461c:	10c5c83a 	sub	r2,r2,r3
  424620:	dd000817 	ldw	r20,32(sp)
  424624:	003d4c06 	br	423b58 <__alt_mem_sdram+0xf8423b58>
  424628:	dc800f15 	stw	r18,60(sp)
  42462c:	dcc01015 	stw	r19,64(sp)
  424630:	04000084 	movi	r16,2
  424634:	003bed06 	br	4235ec <__alt_mem_sdram+0xf84235ec>
  424638:	d9000617 	ldw	r4,24(sp)
  42463c:	203f0d26 	beq	r4,zero,424274 <__alt_mem_sdram+0xf8424274>
  424640:	d9800c17 	ldw	r6,48(sp)
  424644:	01bcab0e 	bge	zero,r6,4238f4 <__alt_mem_sdram+0xf84238f4>
  424648:	d9401017 	ldw	r5,64(sp)
  42464c:	d9000f17 	ldw	r4,60(sp)
  424650:	000d883a 	mov	r6,zero
  424654:	01d00934 	movhi	r7,16420
  424658:	042c3d00 	call	42c3d0 <__muldf3>
  42465c:	81000044 	addi	r4,r16,1
  424660:	d8800f15 	stw	r2,60(sp)
  424664:	d8c01015 	stw	r3,64(sp)
  424668:	042d5b80 	call	42d5b8 <__floatsidf>
  42466c:	d9800f17 	ldw	r6,60(sp)
  424670:	d9c01017 	ldw	r7,64(sp)
  424674:	1009883a 	mov	r4,r2
  424678:	180b883a 	mov	r5,r3
  42467c:	042c3d00 	call	42c3d0 <__muldf3>
  424680:	01d00734 	movhi	r7,16412
  424684:	000d883a 	mov	r6,zero
  424688:	1009883a 	mov	r4,r2
  42468c:	180b883a 	mov	r5,r3
  424690:	042aefc0 	call	42aefc <__adddf3>
  424694:	d9c00517 	ldw	r7,20(sp)
  424698:	047f3034 	movhi	r17,64704
  42469c:	1021883a 	mov	r16,r2
  4246a0:	39ffffc4 	addi	r7,r7,-1
  4246a4:	d9c01315 	stw	r7,76(sp)
  4246a8:	1c63883a 	add	r17,r3,r17
  4246ac:	db000c17 	ldw	r12,48(sp)
  4246b0:	003bea06 	br	42365c <__alt_mem_sdram+0xf842365c>
  4246b4:	dc000915 	stw	r16,36(sp)
  4246b8:	003e0e06 	br	423ef4 <__alt_mem_sdram+0xf8423ef4>
  4246bc:	01000e44 	movi	r4,57
  4246c0:	8825883a 	mov	r18,r17
  4246c4:	9dc00044 	addi	r23,r19,1
  4246c8:	99000005 	stb	r4,0(r19)
  4246cc:	a023883a 	mov	r17,r20
  4246d0:	dc000915 	stw	r16,36(sp)
  4246d4:	003da406 	br	423d68 <__alt_mem_sdram+0xf8423d68>
  4246d8:	d9801417 	ldw	r6,80(sp)
  4246dc:	d9c01517 	ldw	r7,84(sp)
  4246e0:	0009883a 	mov	r4,zero
  4246e4:	014ff834 	movhi	r5,16352
  4246e8:	042cc3c0 	call	42cc3c <__subdf3>
  4246ec:	880d883a 	mov	r6,r17
  4246f0:	a00f883a 	mov	r7,r20
  4246f4:	1009883a 	mov	r4,r2
  4246f8:	180b883a 	mov	r5,r3
  4246fc:	042c2000 	call	42c200 <__gedf2>
  424700:	00bc7c0e 	bge	zero,r2,4238f4 <__alt_mem_sdram+0xf84238f4>
  424704:	01000c04 	movi	r4,48
  424708:	00000106 	br	424710 <_dtoa_r+0x1580>
  42470c:	102f883a 	mov	r23,r2
  424710:	b8bfffc4 	addi	r2,r23,-1
  424714:	10c00007 	ldb	r3,0(r2)
  424718:	193ffc26 	beq	r3,r4,42470c <__alt_mem_sdram+0xf842470c>
  42471c:	d9801317 	ldw	r6,76(sp)
  424720:	d9800515 	stw	r6,20(sp)
  424724:	003c4406 	br	423838 <__alt_mem_sdram+0xf8423838>
  424728:	d9801317 	ldw	r6,76(sp)
  42472c:	d9800515 	stw	r6,20(sp)
  424730:	003cea06 	br	423adc <__alt_mem_sdram+0xf8423adc>
  424734:	dd800f17 	ldw	r22,60(sp)
  424738:	dcc01017 	ldw	r19,64(sp)
  42473c:	dc801217 	ldw	r18,72(sp)
  424740:	003c6c06 	br	4238f4 <__alt_mem_sdram+0xf84238f4>
  424744:	903e031e 	bne	r18,zero,423f54 <__alt_mem_sdram+0xf8423f54>
  424748:	003ebb06 	br	424238 <__alt_mem_sdram+0xf8424238>
  42474c:	103e6c1e 	bne	r2,zero,424100 <__alt_mem_sdram+0xf8424100>
  424750:	4080004c 	andi	r2,r8,1
  424754:	103e6a26 	beq	r2,zero,424100 <__alt_mem_sdram+0xf8424100>
  424758:	003e6606 	br	4240f4 <__alt_mem_sdram+0xf84240f4>
  42475c:	d8c00317 	ldw	r3,12(sp)
  424760:	00800084 	movi	r2,2
  424764:	10c02916 	blt	r2,r3,42480c <_dtoa_r+0x167c>
  424768:	d9000c17 	ldw	r4,48(sp)
  42476c:	003e8806 	br	424190 <__alt_mem_sdram+0xf8424190>
  424770:	04000084 	movi	r16,2
  424774:	003b9d06 	br	4235ec <__alt_mem_sdram+0xf84235ec>
  424778:	d9001317 	ldw	r4,76(sp)
  42477c:	d9000515 	stw	r4,20(sp)
  424780:	003cd606 	br	423adc <__alt_mem_sdram+0xf8423adc>
  424784:	d8801317 	ldw	r2,76(sp)
  424788:	d8800515 	stw	r2,20(sp)
  42478c:	003c2a06 	br	423838 <__alt_mem_sdram+0xf8423838>
  424790:	d9800317 	ldw	r6,12(sp)
  424794:	00800084 	movi	r2,2
  424798:	11801516 	blt	r2,r6,4247f0 <_dtoa_r+0x1660>
  42479c:	d9c00c17 	ldw	r7,48(sp)
  4247a0:	d9c00615 	stw	r7,24(sp)
  4247a4:	003df706 	br	423f84 <__alt_mem_sdram+0xf8423f84>
  4247a8:	193d3926 	beq	r3,r4,423c90 <__alt_mem_sdram+0xf8423c90>
  4247ac:	00c00f04 	movi	r3,60
  4247b0:	1885c83a 	sub	r2,r3,r2
  4247b4:	003ddf06 	br	423f34 <__alt_mem_sdram+0xf8423f34>
  4247b8:	e009883a 	mov	r4,fp
  4247bc:	e0001115 	stw	zero,68(fp)
  4247c0:	000b883a 	mov	r5,zero
  4247c4:	04268480 	call	426848 <_Balloc>
  4247c8:	d8800715 	stw	r2,28(sp)
  4247cc:	d8c00717 	ldw	r3,28(sp)
  4247d0:	00bfffc4 	movi	r2,-1
  4247d4:	01000044 	movi	r4,1
  4247d8:	d8800c15 	stw	r2,48(sp)
  4247dc:	e0c01015 	stw	r3,64(fp)
  4247e0:	d9000b15 	stw	r4,44(sp)
  4247e4:	d8800615 	stw	r2,24(sp)
  4247e8:	d8002215 	stw	zero,136(sp)
  4247ec:	003c4106 	br	4238f4 <__alt_mem_sdram+0xf84238f4>
  4247f0:	d8c00c17 	ldw	r3,48(sp)
  4247f4:	d8c00615 	stw	r3,24(sp)
  4247f8:	003e7006 	br	4241bc <__alt_mem_sdram+0xf84241bc>
  4247fc:	04400044 	movi	r17,1
  424800:	003b2006 	br	423484 <__alt_mem_sdram+0xf8423484>
  424804:	000b883a 	mov	r5,zero
  424808:	003b3d06 	br	423500 <__alt_mem_sdram+0xf8423500>
  42480c:	d8800c17 	ldw	r2,48(sp)
  424810:	d8800615 	stw	r2,24(sp)
  424814:	003e6906 	br	4241bc <__alt_mem_sdram+0xf84241bc>

00424818 <__sflush_r>:
  424818:	2880030b 	ldhu	r2,12(r5)
  42481c:	defffb04 	addi	sp,sp,-20
  424820:	dcc00315 	stw	r19,12(sp)
  424824:	dc400115 	stw	r17,4(sp)
  424828:	dfc00415 	stw	ra,16(sp)
  42482c:	dc800215 	stw	r18,8(sp)
  424830:	dc000015 	stw	r16,0(sp)
  424834:	10c0020c 	andi	r3,r2,8
  424838:	2823883a 	mov	r17,r5
  42483c:	2027883a 	mov	r19,r4
  424840:	1800311e 	bne	r3,zero,424908 <__sflush_r+0xf0>
  424844:	28c00117 	ldw	r3,4(r5)
  424848:	10820014 	ori	r2,r2,2048
  42484c:	2880030d 	sth	r2,12(r5)
  424850:	00c04b0e 	bge	zero,r3,424980 <__sflush_r+0x168>
  424854:	8a000a17 	ldw	r8,40(r17)
  424858:	40002326 	beq	r8,zero,4248e8 <__sflush_r+0xd0>
  42485c:	9c000017 	ldw	r16,0(r19)
  424860:	10c4000c 	andi	r3,r2,4096
  424864:	98000015 	stw	zero,0(r19)
  424868:	18004826 	beq	r3,zero,42498c <__sflush_r+0x174>
  42486c:	89801417 	ldw	r6,80(r17)
  424870:	10c0010c 	andi	r3,r2,4
  424874:	18000626 	beq	r3,zero,424890 <__sflush_r+0x78>
  424878:	88c00117 	ldw	r3,4(r17)
  42487c:	88800c17 	ldw	r2,48(r17)
  424880:	30cdc83a 	sub	r6,r6,r3
  424884:	10000226 	beq	r2,zero,424890 <__sflush_r+0x78>
  424888:	88800f17 	ldw	r2,60(r17)
  42488c:	308dc83a 	sub	r6,r6,r2
  424890:	89400717 	ldw	r5,28(r17)
  424894:	000f883a 	mov	r7,zero
  424898:	9809883a 	mov	r4,r19
  42489c:	403ee83a 	callr	r8
  4248a0:	00ffffc4 	movi	r3,-1
  4248a4:	10c04426 	beq	r2,r3,4249b8 <__sflush_r+0x1a0>
  4248a8:	88c0030b 	ldhu	r3,12(r17)
  4248ac:	89000417 	ldw	r4,16(r17)
  4248b0:	88000115 	stw	zero,4(r17)
  4248b4:	197dffcc 	andi	r5,r3,63487
  4248b8:	8940030d 	sth	r5,12(r17)
  4248bc:	89000015 	stw	r4,0(r17)
  4248c0:	18c4000c 	andi	r3,r3,4096
  4248c4:	18002c1e 	bne	r3,zero,424978 <__sflush_r+0x160>
  4248c8:	89400c17 	ldw	r5,48(r17)
  4248cc:	9c000015 	stw	r16,0(r19)
  4248d0:	28000526 	beq	r5,zero,4248e8 <__sflush_r+0xd0>
  4248d4:	88801004 	addi	r2,r17,64
  4248d8:	28800226 	beq	r5,r2,4248e4 <__sflush_r+0xcc>
  4248dc:	9809883a 	mov	r4,r19
  4248e0:	0424f940 	call	424f94 <_free_r>
  4248e4:	88000c15 	stw	zero,48(r17)
  4248e8:	0005883a 	mov	r2,zero
  4248ec:	dfc00417 	ldw	ra,16(sp)
  4248f0:	dcc00317 	ldw	r19,12(sp)
  4248f4:	dc800217 	ldw	r18,8(sp)
  4248f8:	dc400117 	ldw	r17,4(sp)
  4248fc:	dc000017 	ldw	r16,0(sp)
  424900:	dec00504 	addi	sp,sp,20
  424904:	f800283a 	ret
  424908:	2c800417 	ldw	r18,16(r5)
  42490c:	903ff626 	beq	r18,zero,4248e8 <__alt_mem_sdram+0xf84248e8>
  424910:	2c000017 	ldw	r16,0(r5)
  424914:	108000cc 	andi	r2,r2,3
  424918:	2c800015 	stw	r18,0(r5)
  42491c:	84a1c83a 	sub	r16,r16,r18
  424920:	1000131e 	bne	r2,zero,424970 <__sflush_r+0x158>
  424924:	28800517 	ldw	r2,20(r5)
  424928:	88800215 	stw	r2,8(r17)
  42492c:	04000316 	blt	zero,r16,42493c <__sflush_r+0x124>
  424930:	003fed06 	br	4248e8 <__alt_mem_sdram+0xf84248e8>
  424934:	90a5883a 	add	r18,r18,r2
  424938:	043feb0e 	bge	zero,r16,4248e8 <__alt_mem_sdram+0xf84248e8>
  42493c:	88800917 	ldw	r2,36(r17)
  424940:	89400717 	ldw	r5,28(r17)
  424944:	800f883a 	mov	r7,r16
  424948:	900d883a 	mov	r6,r18
  42494c:	9809883a 	mov	r4,r19
  424950:	103ee83a 	callr	r2
  424954:	80a1c83a 	sub	r16,r16,r2
  424958:	00bff616 	blt	zero,r2,424934 <__alt_mem_sdram+0xf8424934>
  42495c:	88c0030b 	ldhu	r3,12(r17)
  424960:	00bfffc4 	movi	r2,-1
  424964:	18c01014 	ori	r3,r3,64
  424968:	88c0030d 	sth	r3,12(r17)
  42496c:	003fdf06 	br	4248ec <__alt_mem_sdram+0xf84248ec>
  424970:	0005883a 	mov	r2,zero
  424974:	003fec06 	br	424928 <__alt_mem_sdram+0xf8424928>
  424978:	88801415 	stw	r2,80(r17)
  42497c:	003fd206 	br	4248c8 <__alt_mem_sdram+0xf84248c8>
  424980:	28c00f17 	ldw	r3,60(r5)
  424984:	00ffb316 	blt	zero,r3,424854 <__alt_mem_sdram+0xf8424854>
  424988:	003fd706 	br	4248e8 <__alt_mem_sdram+0xf84248e8>
  42498c:	89400717 	ldw	r5,28(r17)
  424990:	000d883a 	mov	r6,zero
  424994:	01c00044 	movi	r7,1
  424998:	9809883a 	mov	r4,r19
  42499c:	403ee83a 	callr	r8
  4249a0:	100d883a 	mov	r6,r2
  4249a4:	00bfffc4 	movi	r2,-1
  4249a8:	30801426 	beq	r6,r2,4249fc <__sflush_r+0x1e4>
  4249ac:	8880030b 	ldhu	r2,12(r17)
  4249b0:	8a000a17 	ldw	r8,40(r17)
  4249b4:	003fae06 	br	424870 <__alt_mem_sdram+0xf8424870>
  4249b8:	98c00017 	ldw	r3,0(r19)
  4249bc:	183fba26 	beq	r3,zero,4248a8 <__alt_mem_sdram+0xf84248a8>
  4249c0:	01000744 	movi	r4,29
  4249c4:	19000626 	beq	r3,r4,4249e0 <__sflush_r+0x1c8>
  4249c8:	01000584 	movi	r4,22
  4249cc:	19000426 	beq	r3,r4,4249e0 <__sflush_r+0x1c8>
  4249d0:	88c0030b 	ldhu	r3,12(r17)
  4249d4:	18c01014 	ori	r3,r3,64
  4249d8:	88c0030d 	sth	r3,12(r17)
  4249dc:	003fc306 	br	4248ec <__alt_mem_sdram+0xf84248ec>
  4249e0:	8880030b 	ldhu	r2,12(r17)
  4249e4:	88c00417 	ldw	r3,16(r17)
  4249e8:	88000115 	stw	zero,4(r17)
  4249ec:	10bdffcc 	andi	r2,r2,63487
  4249f0:	8880030d 	sth	r2,12(r17)
  4249f4:	88c00015 	stw	r3,0(r17)
  4249f8:	003fb306 	br	4248c8 <__alt_mem_sdram+0xf84248c8>
  4249fc:	98800017 	ldw	r2,0(r19)
  424a00:	103fea26 	beq	r2,zero,4249ac <__alt_mem_sdram+0xf84249ac>
  424a04:	00c00744 	movi	r3,29
  424a08:	10c00226 	beq	r2,r3,424a14 <__sflush_r+0x1fc>
  424a0c:	00c00584 	movi	r3,22
  424a10:	10c0031e 	bne	r2,r3,424a20 <__sflush_r+0x208>
  424a14:	9c000015 	stw	r16,0(r19)
  424a18:	0005883a 	mov	r2,zero
  424a1c:	003fb306 	br	4248ec <__alt_mem_sdram+0xf84248ec>
  424a20:	88c0030b 	ldhu	r3,12(r17)
  424a24:	3005883a 	mov	r2,r6
  424a28:	18c01014 	ori	r3,r3,64
  424a2c:	88c0030d 	sth	r3,12(r17)
  424a30:	003fae06 	br	4248ec <__alt_mem_sdram+0xf84248ec>

00424a34 <_fflush_r>:
  424a34:	defffd04 	addi	sp,sp,-12
  424a38:	dc000115 	stw	r16,4(sp)
  424a3c:	dfc00215 	stw	ra,8(sp)
  424a40:	2021883a 	mov	r16,r4
  424a44:	20000226 	beq	r4,zero,424a50 <_fflush_r+0x1c>
  424a48:	20800e17 	ldw	r2,56(r4)
  424a4c:	10000c26 	beq	r2,zero,424a80 <_fflush_r+0x4c>
  424a50:	2880030f 	ldh	r2,12(r5)
  424a54:	1000051e 	bne	r2,zero,424a6c <_fflush_r+0x38>
  424a58:	0005883a 	mov	r2,zero
  424a5c:	dfc00217 	ldw	ra,8(sp)
  424a60:	dc000117 	ldw	r16,4(sp)
  424a64:	dec00304 	addi	sp,sp,12
  424a68:	f800283a 	ret
  424a6c:	8009883a 	mov	r4,r16
  424a70:	dfc00217 	ldw	ra,8(sp)
  424a74:	dc000117 	ldw	r16,4(sp)
  424a78:	dec00304 	addi	sp,sp,12
  424a7c:	04248181 	jmpi	424818 <__sflush_r>
  424a80:	d9400015 	stw	r5,0(sp)
  424a84:	0424e200 	call	424e20 <__sinit>
  424a88:	d9400017 	ldw	r5,0(sp)
  424a8c:	003ff006 	br	424a50 <__alt_mem_sdram+0xf8424a50>

00424a90 <fflush>:
  424a90:	20000526 	beq	r4,zero,424aa8 <fflush+0x18>
  424a94:	008010f4 	movhi	r2,67
  424a98:	108a5a04 	addi	r2,r2,10600
  424a9c:	200b883a 	mov	r5,r4
  424aa0:	11000017 	ldw	r4,0(r2)
  424aa4:	0424a341 	jmpi	424a34 <_fflush_r>
  424aa8:	008010f4 	movhi	r2,67
  424aac:	108a5904 	addi	r2,r2,10596
  424ab0:	11000017 	ldw	r4,0(r2)
  424ab4:	014010b4 	movhi	r5,66
  424ab8:	29528d04 	addi	r5,r5,18996
  424abc:	04258301 	jmpi	425830 <_fwalk_reent>

00424ac0 <__fp_unlock>:
  424ac0:	0005883a 	mov	r2,zero
  424ac4:	f800283a 	ret

00424ac8 <_cleanup_r>:
  424ac8:	014010f4 	movhi	r5,67
  424acc:	29667304 	addi	r5,r5,-26164
  424ad0:	04258301 	jmpi	425830 <_fwalk_reent>

00424ad4 <__sinit.part.1>:
  424ad4:	defff704 	addi	sp,sp,-36
  424ad8:	00c010b4 	movhi	r3,66
  424adc:	dfc00815 	stw	ra,32(sp)
  424ae0:	ddc00715 	stw	r23,28(sp)
  424ae4:	dd800615 	stw	r22,24(sp)
  424ae8:	dd400515 	stw	r21,20(sp)
  424aec:	dd000415 	stw	r20,16(sp)
  424af0:	dcc00315 	stw	r19,12(sp)
  424af4:	dc800215 	stw	r18,8(sp)
  424af8:	dc400115 	stw	r17,4(sp)
  424afc:	dc000015 	stw	r16,0(sp)
  424b00:	18d2b204 	addi	r3,r3,19144
  424b04:	24000117 	ldw	r16,4(r4)
  424b08:	20c00f15 	stw	r3,60(r4)
  424b0c:	2080bb04 	addi	r2,r4,748
  424b10:	00c000c4 	movi	r3,3
  424b14:	20c0b915 	stw	r3,740(r4)
  424b18:	2080ba15 	stw	r2,744(r4)
  424b1c:	2000b815 	stw	zero,736(r4)
  424b20:	05c00204 	movi	r23,8
  424b24:	00800104 	movi	r2,4
  424b28:	2025883a 	mov	r18,r4
  424b2c:	b80d883a 	mov	r6,r23
  424b30:	81001704 	addi	r4,r16,92
  424b34:	000b883a 	mov	r5,zero
  424b38:	80000015 	stw	zero,0(r16)
  424b3c:	80000115 	stw	zero,4(r16)
  424b40:	80000215 	stw	zero,8(r16)
  424b44:	8080030d 	sth	r2,12(r16)
  424b48:	80001915 	stw	zero,100(r16)
  424b4c:	8000038d 	sth	zero,14(r16)
  424b50:	80000415 	stw	zero,16(r16)
  424b54:	80000515 	stw	zero,20(r16)
  424b58:	80000615 	stw	zero,24(r16)
  424b5c:	04267200 	call	426720 <memset>
  424b60:	058010b4 	movhi	r22,66
  424b64:	94400217 	ldw	r17,8(r18)
  424b68:	054010b4 	movhi	r21,66
  424b6c:	050010f4 	movhi	r20,67
  424b70:	04c010f4 	movhi	r19,67
  424b74:	b59fcb04 	addi	r22,r22,32556
  424b78:	ad5fe204 	addi	r21,r21,32648
  424b7c:	a5200104 	addi	r20,r20,-32764
  424b80:	9ce01804 	addi	r19,r19,-32672
  424b84:	85800815 	stw	r22,32(r16)
  424b88:	85400915 	stw	r21,36(r16)
  424b8c:	85000a15 	stw	r20,40(r16)
  424b90:	84c00b15 	stw	r19,44(r16)
  424b94:	84000715 	stw	r16,28(r16)
  424b98:	00800284 	movi	r2,10
  424b9c:	8880030d 	sth	r2,12(r17)
  424ba0:	00800044 	movi	r2,1
  424ba4:	b80d883a 	mov	r6,r23
  424ba8:	89001704 	addi	r4,r17,92
  424bac:	000b883a 	mov	r5,zero
  424bb0:	88000015 	stw	zero,0(r17)
  424bb4:	88000115 	stw	zero,4(r17)
  424bb8:	88000215 	stw	zero,8(r17)
  424bbc:	88001915 	stw	zero,100(r17)
  424bc0:	8880038d 	sth	r2,14(r17)
  424bc4:	88000415 	stw	zero,16(r17)
  424bc8:	88000515 	stw	zero,20(r17)
  424bcc:	88000615 	stw	zero,24(r17)
  424bd0:	04267200 	call	426720 <memset>
  424bd4:	94000317 	ldw	r16,12(r18)
  424bd8:	00800484 	movi	r2,18
  424bdc:	8c400715 	stw	r17,28(r17)
  424be0:	8d800815 	stw	r22,32(r17)
  424be4:	8d400915 	stw	r21,36(r17)
  424be8:	8d000a15 	stw	r20,40(r17)
  424bec:	8cc00b15 	stw	r19,44(r17)
  424bf0:	8080030d 	sth	r2,12(r16)
  424bf4:	00800084 	movi	r2,2
  424bf8:	80000015 	stw	zero,0(r16)
  424bfc:	80000115 	stw	zero,4(r16)
  424c00:	80000215 	stw	zero,8(r16)
  424c04:	80001915 	stw	zero,100(r16)
  424c08:	8080038d 	sth	r2,14(r16)
  424c0c:	80000415 	stw	zero,16(r16)
  424c10:	80000515 	stw	zero,20(r16)
  424c14:	80000615 	stw	zero,24(r16)
  424c18:	b80d883a 	mov	r6,r23
  424c1c:	000b883a 	mov	r5,zero
  424c20:	81001704 	addi	r4,r16,92
  424c24:	04267200 	call	426720 <memset>
  424c28:	00800044 	movi	r2,1
  424c2c:	84000715 	stw	r16,28(r16)
  424c30:	85800815 	stw	r22,32(r16)
  424c34:	85400915 	stw	r21,36(r16)
  424c38:	85000a15 	stw	r20,40(r16)
  424c3c:	84c00b15 	stw	r19,44(r16)
  424c40:	90800e15 	stw	r2,56(r18)
  424c44:	dfc00817 	ldw	ra,32(sp)
  424c48:	ddc00717 	ldw	r23,28(sp)
  424c4c:	dd800617 	ldw	r22,24(sp)
  424c50:	dd400517 	ldw	r21,20(sp)
  424c54:	dd000417 	ldw	r20,16(sp)
  424c58:	dcc00317 	ldw	r19,12(sp)
  424c5c:	dc800217 	ldw	r18,8(sp)
  424c60:	dc400117 	ldw	r17,4(sp)
  424c64:	dc000017 	ldw	r16,0(sp)
  424c68:	dec00904 	addi	sp,sp,36
  424c6c:	f800283a 	ret

00424c70 <__fp_lock>:
  424c70:	0005883a 	mov	r2,zero
  424c74:	f800283a 	ret

00424c78 <__sfmoreglue>:
  424c78:	defffc04 	addi	sp,sp,-16
  424c7c:	dc800215 	stw	r18,8(sp)
  424c80:	2825883a 	mov	r18,r5
  424c84:	dc000015 	stw	r16,0(sp)
  424c88:	01401a04 	movi	r5,104
  424c8c:	2021883a 	mov	r16,r4
  424c90:	913fffc4 	addi	r4,r18,-1
  424c94:	dfc00315 	stw	ra,12(sp)
  424c98:	dc400115 	stw	r17,4(sp)
  424c9c:	04208600 	call	420860 <__mulsi3>
  424ca0:	8009883a 	mov	r4,r16
  424ca4:	11401d04 	addi	r5,r2,116
  424ca8:	1023883a 	mov	r17,r2
  424cac:	0425b8c0 	call	425b8c <_malloc_r>
  424cb0:	1021883a 	mov	r16,r2
  424cb4:	10000726 	beq	r2,zero,424cd4 <__sfmoreglue+0x5c>
  424cb8:	11000304 	addi	r4,r2,12
  424cbc:	10000015 	stw	zero,0(r2)
  424cc0:	14800115 	stw	r18,4(r2)
  424cc4:	11000215 	stw	r4,8(r2)
  424cc8:	89801a04 	addi	r6,r17,104
  424ccc:	000b883a 	mov	r5,zero
  424cd0:	04267200 	call	426720 <memset>
  424cd4:	8005883a 	mov	r2,r16
  424cd8:	dfc00317 	ldw	ra,12(sp)
  424cdc:	dc800217 	ldw	r18,8(sp)
  424ce0:	dc400117 	ldw	r17,4(sp)
  424ce4:	dc000017 	ldw	r16,0(sp)
  424ce8:	dec00404 	addi	sp,sp,16
  424cec:	f800283a 	ret

00424cf0 <__sfp>:
  424cf0:	defffb04 	addi	sp,sp,-20
  424cf4:	dc000015 	stw	r16,0(sp)
  424cf8:	040010f4 	movhi	r16,67
  424cfc:	840a5904 	addi	r16,r16,10596
  424d00:	dcc00315 	stw	r19,12(sp)
  424d04:	2027883a 	mov	r19,r4
  424d08:	81000017 	ldw	r4,0(r16)
  424d0c:	dfc00415 	stw	ra,16(sp)
  424d10:	dc800215 	stw	r18,8(sp)
  424d14:	20800e17 	ldw	r2,56(r4)
  424d18:	dc400115 	stw	r17,4(sp)
  424d1c:	1000021e 	bne	r2,zero,424d28 <__sfp+0x38>
  424d20:	0424ad40 	call	424ad4 <__sinit.part.1>
  424d24:	81000017 	ldw	r4,0(r16)
  424d28:	2480b804 	addi	r18,r4,736
  424d2c:	047fffc4 	movi	r17,-1
  424d30:	91000117 	ldw	r4,4(r18)
  424d34:	94000217 	ldw	r16,8(r18)
  424d38:	213fffc4 	addi	r4,r4,-1
  424d3c:	20000a16 	blt	r4,zero,424d68 <__sfp+0x78>
  424d40:	8080030f 	ldh	r2,12(r16)
  424d44:	10000c26 	beq	r2,zero,424d78 <__sfp+0x88>
  424d48:	80c01d04 	addi	r3,r16,116
  424d4c:	00000206 	br	424d58 <__sfp+0x68>
  424d50:	18bfe60f 	ldh	r2,-104(r3)
  424d54:	10000826 	beq	r2,zero,424d78 <__sfp+0x88>
  424d58:	213fffc4 	addi	r4,r4,-1
  424d5c:	1c3ffd04 	addi	r16,r3,-12
  424d60:	18c01a04 	addi	r3,r3,104
  424d64:	247ffa1e 	bne	r4,r17,424d50 <__alt_mem_sdram+0xf8424d50>
  424d68:	90800017 	ldw	r2,0(r18)
  424d6c:	10001d26 	beq	r2,zero,424de4 <__sfp+0xf4>
  424d70:	1025883a 	mov	r18,r2
  424d74:	003fee06 	br	424d30 <__alt_mem_sdram+0xf8424d30>
  424d78:	00bfffc4 	movi	r2,-1
  424d7c:	8080038d 	sth	r2,14(r16)
  424d80:	00800044 	movi	r2,1
  424d84:	8080030d 	sth	r2,12(r16)
  424d88:	80001915 	stw	zero,100(r16)
  424d8c:	80000015 	stw	zero,0(r16)
  424d90:	80000215 	stw	zero,8(r16)
  424d94:	80000115 	stw	zero,4(r16)
  424d98:	80000415 	stw	zero,16(r16)
  424d9c:	80000515 	stw	zero,20(r16)
  424da0:	80000615 	stw	zero,24(r16)
  424da4:	01800204 	movi	r6,8
  424da8:	000b883a 	mov	r5,zero
  424dac:	81001704 	addi	r4,r16,92
  424db0:	04267200 	call	426720 <memset>
  424db4:	8005883a 	mov	r2,r16
  424db8:	80000c15 	stw	zero,48(r16)
  424dbc:	80000d15 	stw	zero,52(r16)
  424dc0:	80001115 	stw	zero,68(r16)
  424dc4:	80001215 	stw	zero,72(r16)
  424dc8:	dfc00417 	ldw	ra,16(sp)
  424dcc:	dcc00317 	ldw	r19,12(sp)
  424dd0:	dc800217 	ldw	r18,8(sp)
  424dd4:	dc400117 	ldw	r17,4(sp)
  424dd8:	dc000017 	ldw	r16,0(sp)
  424ddc:	dec00504 	addi	sp,sp,20
  424de0:	f800283a 	ret
  424de4:	01400104 	movi	r5,4
  424de8:	9809883a 	mov	r4,r19
  424dec:	0424c780 	call	424c78 <__sfmoreglue>
  424df0:	90800015 	stw	r2,0(r18)
  424df4:	103fde1e 	bne	r2,zero,424d70 <__alt_mem_sdram+0xf8424d70>
  424df8:	00800304 	movi	r2,12
  424dfc:	98800015 	stw	r2,0(r19)
  424e00:	0005883a 	mov	r2,zero
  424e04:	003ff006 	br	424dc8 <__alt_mem_sdram+0xf8424dc8>

00424e08 <_cleanup>:
  424e08:	008010f4 	movhi	r2,67
  424e0c:	108a5904 	addi	r2,r2,10596
  424e10:	11000017 	ldw	r4,0(r2)
  424e14:	014010f4 	movhi	r5,67
  424e18:	29667304 	addi	r5,r5,-26164
  424e1c:	04258301 	jmpi	425830 <_fwalk_reent>

00424e20 <__sinit>:
  424e20:	20800e17 	ldw	r2,56(r4)
  424e24:	10000126 	beq	r2,zero,424e2c <__sinit+0xc>
  424e28:	f800283a 	ret
  424e2c:	0424ad41 	jmpi	424ad4 <__sinit.part.1>

00424e30 <__sfp_lock_acquire>:
  424e30:	f800283a 	ret

00424e34 <__sfp_lock_release>:
  424e34:	f800283a 	ret

00424e38 <__sinit_lock_acquire>:
  424e38:	f800283a 	ret

00424e3c <__sinit_lock_release>:
  424e3c:	f800283a 	ret

00424e40 <__fp_lock_all>:
  424e40:	008010f4 	movhi	r2,67
  424e44:	108a5a04 	addi	r2,r2,10600
  424e48:	11000017 	ldw	r4,0(r2)
  424e4c:	014010b4 	movhi	r5,66
  424e50:	29531c04 	addi	r5,r5,19568
  424e54:	042576c1 	jmpi	42576c <_fwalk>

00424e58 <__fp_unlock_all>:
  424e58:	008010f4 	movhi	r2,67
  424e5c:	108a5a04 	addi	r2,r2,10600
  424e60:	11000017 	ldw	r4,0(r2)
  424e64:	014010b4 	movhi	r5,66
  424e68:	2952b004 	addi	r5,r5,19136
  424e6c:	042576c1 	jmpi	42576c <_fwalk>

00424e70 <_malloc_trim_r>:
  424e70:	defffb04 	addi	sp,sp,-20
  424e74:	dcc00315 	stw	r19,12(sp)
  424e78:	04c010f4 	movhi	r19,67
  424e7c:	dc800215 	stw	r18,8(sp)
  424e80:	dc400115 	stw	r17,4(sp)
  424e84:	dc000015 	stw	r16,0(sp)
  424e88:	dfc00415 	stw	ra,16(sp)
  424e8c:	2821883a 	mov	r16,r5
  424e90:	9cc4d104 	addi	r19,r19,4932
  424e94:	2025883a 	mov	r18,r4
  424e98:	042dbfc0 	call	42dbfc <__malloc_lock>
  424e9c:	98800217 	ldw	r2,8(r19)
  424ea0:	14400117 	ldw	r17,4(r2)
  424ea4:	00bfff04 	movi	r2,-4
  424ea8:	88a2703a 	and	r17,r17,r2
  424eac:	8c21c83a 	sub	r16,r17,r16
  424eb0:	8403fbc4 	addi	r16,r16,4079
  424eb4:	8020d33a 	srli	r16,r16,12
  424eb8:	0083ffc4 	movi	r2,4095
  424ebc:	843fffc4 	addi	r16,r16,-1
  424ec0:	8020933a 	slli	r16,r16,12
  424ec4:	1400060e 	bge	r2,r16,424ee0 <_malloc_trim_r+0x70>
  424ec8:	000b883a 	mov	r5,zero
  424ecc:	9009883a 	mov	r4,r18
  424ed0:	0427ed80 	call	427ed8 <_sbrk_r>
  424ed4:	98c00217 	ldw	r3,8(r19)
  424ed8:	1c47883a 	add	r3,r3,r17
  424edc:	10c00a26 	beq	r2,r3,424f08 <_malloc_trim_r+0x98>
  424ee0:	9009883a 	mov	r4,r18
  424ee4:	042dc000 	call	42dc00 <__malloc_unlock>
  424ee8:	0005883a 	mov	r2,zero
  424eec:	dfc00417 	ldw	ra,16(sp)
  424ef0:	dcc00317 	ldw	r19,12(sp)
  424ef4:	dc800217 	ldw	r18,8(sp)
  424ef8:	dc400117 	ldw	r17,4(sp)
  424efc:	dc000017 	ldw	r16,0(sp)
  424f00:	dec00504 	addi	sp,sp,20
  424f04:	f800283a 	ret
  424f08:	040bc83a 	sub	r5,zero,r16
  424f0c:	9009883a 	mov	r4,r18
  424f10:	0427ed80 	call	427ed8 <_sbrk_r>
  424f14:	00ffffc4 	movi	r3,-1
  424f18:	10c00d26 	beq	r2,r3,424f50 <_malloc_trim_r+0xe0>
  424f1c:	00c010f4 	movhi	r3,67
  424f20:	18d13604 	addi	r3,r3,17624
  424f24:	18800017 	ldw	r2,0(r3)
  424f28:	99000217 	ldw	r4,8(r19)
  424f2c:	8c23c83a 	sub	r17,r17,r16
  424f30:	8c400054 	ori	r17,r17,1
  424f34:	1421c83a 	sub	r16,r2,r16
  424f38:	24400115 	stw	r17,4(r4)
  424f3c:	9009883a 	mov	r4,r18
  424f40:	1c000015 	stw	r16,0(r3)
  424f44:	042dc000 	call	42dc00 <__malloc_unlock>
  424f48:	00800044 	movi	r2,1
  424f4c:	003fe706 	br	424eec <__alt_mem_sdram+0xf8424eec>
  424f50:	000b883a 	mov	r5,zero
  424f54:	9009883a 	mov	r4,r18
  424f58:	0427ed80 	call	427ed8 <_sbrk_r>
  424f5c:	99000217 	ldw	r4,8(r19)
  424f60:	014003c4 	movi	r5,15
  424f64:	1107c83a 	sub	r3,r2,r4
  424f68:	28ffdd0e 	bge	r5,r3,424ee0 <__alt_mem_sdram+0xf8424ee0>
  424f6c:	014010f4 	movhi	r5,67
  424f70:	294a5c04 	addi	r5,r5,10608
  424f74:	29400017 	ldw	r5,0(r5)
  424f78:	18c00054 	ori	r3,r3,1
  424f7c:	20c00115 	stw	r3,4(r4)
  424f80:	00c010f4 	movhi	r3,67
  424f84:	1145c83a 	sub	r2,r2,r5
  424f88:	18d13604 	addi	r3,r3,17624
  424f8c:	18800015 	stw	r2,0(r3)
  424f90:	003fd306 	br	424ee0 <__alt_mem_sdram+0xf8424ee0>

00424f94 <_free_r>:
  424f94:	28004126 	beq	r5,zero,42509c <_free_r+0x108>
  424f98:	defffd04 	addi	sp,sp,-12
  424f9c:	dc400115 	stw	r17,4(sp)
  424fa0:	dc000015 	stw	r16,0(sp)
  424fa4:	2023883a 	mov	r17,r4
  424fa8:	2821883a 	mov	r16,r5
  424fac:	dfc00215 	stw	ra,8(sp)
  424fb0:	042dbfc0 	call	42dbfc <__malloc_lock>
  424fb4:	81ffff17 	ldw	r7,-4(r16)
  424fb8:	00bfff84 	movi	r2,-2
  424fbc:	010010f4 	movhi	r4,67
  424fc0:	81bffe04 	addi	r6,r16,-8
  424fc4:	3884703a 	and	r2,r7,r2
  424fc8:	2104d104 	addi	r4,r4,4932
  424fcc:	308b883a 	add	r5,r6,r2
  424fd0:	2a400117 	ldw	r9,4(r5)
  424fd4:	22000217 	ldw	r8,8(r4)
  424fd8:	00ffff04 	movi	r3,-4
  424fdc:	48c6703a 	and	r3,r9,r3
  424fe0:	2a005726 	beq	r5,r8,425140 <_free_r+0x1ac>
  424fe4:	28c00115 	stw	r3,4(r5)
  424fe8:	39c0004c 	andi	r7,r7,1
  424fec:	3800091e 	bne	r7,zero,425014 <_free_r+0x80>
  424ff0:	823ffe17 	ldw	r8,-8(r16)
  424ff4:	22400204 	addi	r9,r4,8
  424ff8:	320dc83a 	sub	r6,r6,r8
  424ffc:	31c00217 	ldw	r7,8(r6)
  425000:	1205883a 	add	r2,r2,r8
  425004:	3a406526 	beq	r7,r9,42519c <_free_r+0x208>
  425008:	32000317 	ldw	r8,12(r6)
  42500c:	3a000315 	stw	r8,12(r7)
  425010:	41c00215 	stw	r7,8(r8)
  425014:	28cf883a 	add	r7,r5,r3
  425018:	39c00117 	ldw	r7,4(r7)
  42501c:	39c0004c 	andi	r7,r7,1
  425020:	38003a26 	beq	r7,zero,42510c <_free_r+0x178>
  425024:	10c00054 	ori	r3,r2,1
  425028:	30c00115 	stw	r3,4(r6)
  42502c:	3087883a 	add	r3,r6,r2
  425030:	18800015 	stw	r2,0(r3)
  425034:	00c07fc4 	movi	r3,511
  425038:	18801936 	bltu	r3,r2,4250a0 <_free_r+0x10c>
  42503c:	1004d0fa 	srli	r2,r2,3
  425040:	01c00044 	movi	r7,1
  425044:	21400117 	ldw	r5,4(r4)
  425048:	10c00044 	addi	r3,r2,1
  42504c:	18c7883a 	add	r3,r3,r3
  425050:	1005d0ba 	srai	r2,r2,2
  425054:	18c7883a 	add	r3,r3,r3
  425058:	18c7883a 	add	r3,r3,r3
  42505c:	1907883a 	add	r3,r3,r4
  425060:	3884983a 	sll	r2,r7,r2
  425064:	19c00017 	ldw	r7,0(r3)
  425068:	1a3ffe04 	addi	r8,r3,-8
  42506c:	1144b03a 	or	r2,r2,r5
  425070:	32000315 	stw	r8,12(r6)
  425074:	31c00215 	stw	r7,8(r6)
  425078:	20800115 	stw	r2,4(r4)
  42507c:	19800015 	stw	r6,0(r3)
  425080:	39800315 	stw	r6,12(r7)
  425084:	8809883a 	mov	r4,r17
  425088:	dfc00217 	ldw	ra,8(sp)
  42508c:	dc400117 	ldw	r17,4(sp)
  425090:	dc000017 	ldw	r16,0(sp)
  425094:	dec00304 	addi	sp,sp,12
  425098:	042dc001 	jmpi	42dc00 <__malloc_unlock>
  42509c:	f800283a 	ret
  4250a0:	100ad27a 	srli	r5,r2,9
  4250a4:	00c00104 	movi	r3,4
  4250a8:	19404a36 	bltu	r3,r5,4251d4 <_free_r+0x240>
  4250ac:	100ad1ba 	srli	r5,r2,6
  4250b0:	28c00e44 	addi	r3,r5,57
  4250b4:	18c7883a 	add	r3,r3,r3
  4250b8:	29400e04 	addi	r5,r5,56
  4250bc:	18c7883a 	add	r3,r3,r3
  4250c0:	18c7883a 	add	r3,r3,r3
  4250c4:	1909883a 	add	r4,r3,r4
  4250c8:	20c00017 	ldw	r3,0(r4)
  4250cc:	01c010f4 	movhi	r7,67
  4250d0:	213ffe04 	addi	r4,r4,-8
  4250d4:	39c4d104 	addi	r7,r7,4932
  4250d8:	20c04426 	beq	r4,r3,4251ec <_free_r+0x258>
  4250dc:	01ffff04 	movi	r7,-4
  4250e0:	19400117 	ldw	r5,4(r3)
  4250e4:	29ca703a 	and	r5,r5,r7
  4250e8:	1140022e 	bgeu	r2,r5,4250f4 <_free_r+0x160>
  4250ec:	18c00217 	ldw	r3,8(r3)
  4250f0:	20fffb1e 	bne	r4,r3,4250e0 <__alt_mem_sdram+0xf84250e0>
  4250f4:	19000317 	ldw	r4,12(r3)
  4250f8:	31000315 	stw	r4,12(r6)
  4250fc:	30c00215 	stw	r3,8(r6)
  425100:	21800215 	stw	r6,8(r4)
  425104:	19800315 	stw	r6,12(r3)
  425108:	003fde06 	br	425084 <__alt_mem_sdram+0xf8425084>
  42510c:	29c00217 	ldw	r7,8(r5)
  425110:	10c5883a 	add	r2,r2,r3
  425114:	00c010f4 	movhi	r3,67
  425118:	18c4d304 	addi	r3,r3,4940
  42511c:	38c03b26 	beq	r7,r3,42520c <_free_r+0x278>
  425120:	2a000317 	ldw	r8,12(r5)
  425124:	11400054 	ori	r5,r2,1
  425128:	3087883a 	add	r3,r6,r2
  42512c:	3a000315 	stw	r8,12(r7)
  425130:	41c00215 	stw	r7,8(r8)
  425134:	31400115 	stw	r5,4(r6)
  425138:	18800015 	stw	r2,0(r3)
  42513c:	003fbd06 	br	425034 <__alt_mem_sdram+0xf8425034>
  425140:	39c0004c 	andi	r7,r7,1
  425144:	10c5883a 	add	r2,r2,r3
  425148:	3800071e 	bne	r7,zero,425168 <_free_r+0x1d4>
  42514c:	81fffe17 	ldw	r7,-8(r16)
  425150:	31cdc83a 	sub	r6,r6,r7
  425154:	30c00317 	ldw	r3,12(r6)
  425158:	31400217 	ldw	r5,8(r6)
  42515c:	11c5883a 	add	r2,r2,r7
  425160:	28c00315 	stw	r3,12(r5)
  425164:	19400215 	stw	r5,8(r3)
  425168:	10c00054 	ori	r3,r2,1
  42516c:	30c00115 	stw	r3,4(r6)
  425170:	00c010f4 	movhi	r3,67
  425174:	18ca5d04 	addi	r3,r3,10612
  425178:	18c00017 	ldw	r3,0(r3)
  42517c:	21800215 	stw	r6,8(r4)
  425180:	10ffc036 	bltu	r2,r3,425084 <__alt_mem_sdram+0xf8425084>
  425184:	008010f4 	movhi	r2,67
  425188:	10912d04 	addi	r2,r2,17588
  42518c:	11400017 	ldw	r5,0(r2)
  425190:	8809883a 	mov	r4,r17
  425194:	0424e700 	call	424e70 <_malloc_trim_r>
  425198:	003fba06 	br	425084 <__alt_mem_sdram+0xf8425084>
  42519c:	28c9883a 	add	r4,r5,r3
  4251a0:	21000117 	ldw	r4,4(r4)
  4251a4:	2100004c 	andi	r4,r4,1
  4251a8:	2000391e 	bne	r4,zero,425290 <_free_r+0x2fc>
  4251ac:	29c00217 	ldw	r7,8(r5)
  4251b0:	29000317 	ldw	r4,12(r5)
  4251b4:	1885883a 	add	r2,r3,r2
  4251b8:	10c00054 	ori	r3,r2,1
  4251bc:	39000315 	stw	r4,12(r7)
  4251c0:	21c00215 	stw	r7,8(r4)
  4251c4:	30c00115 	stw	r3,4(r6)
  4251c8:	308d883a 	add	r6,r6,r2
  4251cc:	30800015 	stw	r2,0(r6)
  4251d0:	003fac06 	br	425084 <__alt_mem_sdram+0xf8425084>
  4251d4:	00c00504 	movi	r3,20
  4251d8:	19401536 	bltu	r3,r5,425230 <_free_r+0x29c>
  4251dc:	28c01704 	addi	r3,r5,92
  4251e0:	18c7883a 	add	r3,r3,r3
  4251e4:	294016c4 	addi	r5,r5,91
  4251e8:	003fb406 	br	4250bc <__alt_mem_sdram+0xf84250bc>
  4251ec:	280bd0ba 	srai	r5,r5,2
  4251f0:	00c00044 	movi	r3,1
  4251f4:	38800117 	ldw	r2,4(r7)
  4251f8:	194a983a 	sll	r5,r3,r5
  4251fc:	2007883a 	mov	r3,r4
  425200:	2884b03a 	or	r2,r5,r2
  425204:	38800115 	stw	r2,4(r7)
  425208:	003fbb06 	br	4250f8 <__alt_mem_sdram+0xf84250f8>
  42520c:	21800515 	stw	r6,20(r4)
  425210:	21800415 	stw	r6,16(r4)
  425214:	10c00054 	ori	r3,r2,1
  425218:	31c00315 	stw	r7,12(r6)
  42521c:	31c00215 	stw	r7,8(r6)
  425220:	30c00115 	stw	r3,4(r6)
  425224:	308d883a 	add	r6,r6,r2
  425228:	30800015 	stw	r2,0(r6)
  42522c:	003f9506 	br	425084 <__alt_mem_sdram+0xf8425084>
  425230:	00c01504 	movi	r3,84
  425234:	19400536 	bltu	r3,r5,42524c <_free_r+0x2b8>
  425238:	100ad33a 	srli	r5,r2,12
  42523c:	28c01bc4 	addi	r3,r5,111
  425240:	18c7883a 	add	r3,r3,r3
  425244:	29401b84 	addi	r5,r5,110
  425248:	003f9c06 	br	4250bc <__alt_mem_sdram+0xf84250bc>
  42524c:	00c05504 	movi	r3,340
  425250:	19400536 	bltu	r3,r5,425268 <_free_r+0x2d4>
  425254:	100ad3fa 	srli	r5,r2,15
  425258:	28c01e04 	addi	r3,r5,120
  42525c:	18c7883a 	add	r3,r3,r3
  425260:	29401dc4 	addi	r5,r5,119
  425264:	003f9506 	br	4250bc <__alt_mem_sdram+0xf84250bc>
  425268:	00c15504 	movi	r3,1364
  42526c:	19400536 	bltu	r3,r5,425284 <_free_r+0x2f0>
  425270:	100ad4ba 	srli	r5,r2,18
  425274:	28c01f44 	addi	r3,r5,125
  425278:	18c7883a 	add	r3,r3,r3
  42527c:	29401f04 	addi	r5,r5,124
  425280:	003f8e06 	br	4250bc <__alt_mem_sdram+0xf84250bc>
  425284:	00c03f84 	movi	r3,254
  425288:	01401f84 	movi	r5,126
  42528c:	003f8b06 	br	4250bc <__alt_mem_sdram+0xf84250bc>
  425290:	10c00054 	ori	r3,r2,1
  425294:	30c00115 	stw	r3,4(r6)
  425298:	308d883a 	add	r6,r6,r2
  42529c:	30800015 	stw	r2,0(r6)
  4252a0:	003f7806 	br	425084 <__alt_mem_sdram+0xf8425084>

004252a4 <__sfvwrite_r>:
  4252a4:	30800217 	ldw	r2,8(r6)
  4252a8:	10006726 	beq	r2,zero,425448 <__sfvwrite_r+0x1a4>
  4252ac:	28c0030b 	ldhu	r3,12(r5)
  4252b0:	defff404 	addi	sp,sp,-48
  4252b4:	dd400715 	stw	r21,28(sp)
  4252b8:	dd000615 	stw	r20,24(sp)
  4252bc:	dc000215 	stw	r16,8(sp)
  4252c0:	dfc00b15 	stw	ra,44(sp)
  4252c4:	df000a15 	stw	fp,40(sp)
  4252c8:	ddc00915 	stw	r23,36(sp)
  4252cc:	dd800815 	stw	r22,32(sp)
  4252d0:	dcc00515 	stw	r19,20(sp)
  4252d4:	dc800415 	stw	r18,16(sp)
  4252d8:	dc400315 	stw	r17,12(sp)
  4252dc:	1880020c 	andi	r2,r3,8
  4252e0:	2821883a 	mov	r16,r5
  4252e4:	202b883a 	mov	r21,r4
  4252e8:	3029883a 	mov	r20,r6
  4252ec:	10002726 	beq	r2,zero,42538c <__sfvwrite_r+0xe8>
  4252f0:	28800417 	ldw	r2,16(r5)
  4252f4:	10002526 	beq	r2,zero,42538c <__sfvwrite_r+0xe8>
  4252f8:	1880008c 	andi	r2,r3,2
  4252fc:	a4400017 	ldw	r17,0(r20)
  425300:	10002a26 	beq	r2,zero,4253ac <__sfvwrite_r+0x108>
  425304:	05a00034 	movhi	r22,32768
  425308:	0027883a 	mov	r19,zero
  42530c:	0025883a 	mov	r18,zero
  425310:	b5bf0004 	addi	r22,r22,-1024
  425314:	980d883a 	mov	r6,r19
  425318:	a809883a 	mov	r4,r21
  42531c:	90004626 	beq	r18,zero,425438 <__sfvwrite_r+0x194>
  425320:	900f883a 	mov	r7,r18
  425324:	b480022e 	bgeu	r22,r18,425330 <__sfvwrite_r+0x8c>
  425328:	01e00034 	movhi	r7,32768
  42532c:	39ff0004 	addi	r7,r7,-1024
  425330:	80800917 	ldw	r2,36(r16)
  425334:	81400717 	ldw	r5,28(r16)
  425338:	103ee83a 	callr	r2
  42533c:	00805a0e 	bge	zero,r2,4254a8 <__sfvwrite_r+0x204>
  425340:	a0c00217 	ldw	r3,8(r20)
  425344:	98a7883a 	add	r19,r19,r2
  425348:	90a5c83a 	sub	r18,r18,r2
  42534c:	1885c83a 	sub	r2,r3,r2
  425350:	a0800215 	stw	r2,8(r20)
  425354:	103fef1e 	bne	r2,zero,425314 <__alt_mem_sdram+0xf8425314>
  425358:	0005883a 	mov	r2,zero
  42535c:	dfc00b17 	ldw	ra,44(sp)
  425360:	df000a17 	ldw	fp,40(sp)
  425364:	ddc00917 	ldw	r23,36(sp)
  425368:	dd800817 	ldw	r22,32(sp)
  42536c:	dd400717 	ldw	r21,28(sp)
  425370:	dd000617 	ldw	r20,24(sp)
  425374:	dcc00517 	ldw	r19,20(sp)
  425378:	dc800417 	ldw	r18,16(sp)
  42537c:	dc400317 	ldw	r17,12(sp)
  425380:	dc000217 	ldw	r16,8(sp)
  425384:	dec00c04 	addi	sp,sp,48
  425388:	f800283a 	ret
  42538c:	800b883a 	mov	r5,r16
  425390:	a809883a 	mov	r4,r21
  425394:	0422e140 	call	422e14 <__swsetup_r>
  425398:	1000ee1e 	bne	r2,zero,425754 <__sfvwrite_r+0x4b0>
  42539c:	80c0030b 	ldhu	r3,12(r16)
  4253a0:	a4400017 	ldw	r17,0(r20)
  4253a4:	1880008c 	andi	r2,r3,2
  4253a8:	103fd61e 	bne	r2,zero,425304 <__alt_mem_sdram+0xf8425304>
  4253ac:	1880004c 	andi	r2,r3,1
  4253b0:	1000421e 	bne	r2,zero,4254bc <__sfvwrite_r+0x218>
  4253b4:	0039883a 	mov	fp,zero
  4253b8:	0025883a 	mov	r18,zero
  4253bc:	90001a26 	beq	r18,zero,425428 <__sfvwrite_r+0x184>
  4253c0:	1880800c 	andi	r2,r3,512
  4253c4:	84c00217 	ldw	r19,8(r16)
  4253c8:	10002126 	beq	r2,zero,425450 <__sfvwrite_r+0x1ac>
  4253cc:	982f883a 	mov	r23,r19
  4253d0:	94c09636 	bltu	r18,r19,42562c <__sfvwrite_r+0x388>
  4253d4:	1881200c 	andi	r2,r3,1152
  4253d8:	1000a11e 	bne	r2,zero,425660 <__sfvwrite_r+0x3bc>
  4253dc:	81000017 	ldw	r4,0(r16)
  4253e0:	b80d883a 	mov	r6,r23
  4253e4:	e00b883a 	mov	r5,fp
  4253e8:	04265c40 	call	4265c4 <memmove>
  4253ec:	80c00217 	ldw	r3,8(r16)
  4253f0:	81000017 	ldw	r4,0(r16)
  4253f4:	9005883a 	mov	r2,r18
  4253f8:	1ce7c83a 	sub	r19,r3,r19
  4253fc:	25cf883a 	add	r7,r4,r23
  425400:	84c00215 	stw	r19,8(r16)
  425404:	81c00015 	stw	r7,0(r16)
  425408:	a0c00217 	ldw	r3,8(r20)
  42540c:	e0b9883a 	add	fp,fp,r2
  425410:	90a5c83a 	sub	r18,r18,r2
  425414:	18a7c83a 	sub	r19,r3,r2
  425418:	a4c00215 	stw	r19,8(r20)
  42541c:	983fce26 	beq	r19,zero,425358 <__alt_mem_sdram+0xf8425358>
  425420:	80c0030b 	ldhu	r3,12(r16)
  425424:	903fe61e 	bne	r18,zero,4253c0 <__alt_mem_sdram+0xf84253c0>
  425428:	8f000017 	ldw	fp,0(r17)
  42542c:	8c800117 	ldw	r18,4(r17)
  425430:	8c400204 	addi	r17,r17,8
  425434:	003fe106 	br	4253bc <__alt_mem_sdram+0xf84253bc>
  425438:	8cc00017 	ldw	r19,0(r17)
  42543c:	8c800117 	ldw	r18,4(r17)
  425440:	8c400204 	addi	r17,r17,8
  425444:	003fb306 	br	425314 <__alt_mem_sdram+0xf8425314>
  425448:	0005883a 	mov	r2,zero
  42544c:	f800283a 	ret
  425450:	81000017 	ldw	r4,0(r16)
  425454:	80800417 	ldw	r2,16(r16)
  425458:	11005a36 	bltu	r2,r4,4255c4 <__sfvwrite_r+0x320>
  42545c:	85c00517 	ldw	r23,20(r16)
  425460:	95c05836 	bltu	r18,r23,4255c4 <__sfvwrite_r+0x320>
  425464:	00a00034 	movhi	r2,32768
  425468:	10bfffc4 	addi	r2,r2,-1
  42546c:	9009883a 	mov	r4,r18
  425470:	1480012e 	bgeu	r2,r18,425478 <__sfvwrite_r+0x1d4>
  425474:	1009883a 	mov	r4,r2
  425478:	b80b883a 	mov	r5,r23
  42547c:	042ad480 	call	42ad48 <__divsi3>
  425480:	b80b883a 	mov	r5,r23
  425484:	1009883a 	mov	r4,r2
  425488:	04208600 	call	420860 <__mulsi3>
  42548c:	81400717 	ldw	r5,28(r16)
  425490:	80c00917 	ldw	r3,36(r16)
  425494:	100f883a 	mov	r7,r2
  425498:	e00d883a 	mov	r6,fp
  42549c:	a809883a 	mov	r4,r21
  4254a0:	183ee83a 	callr	r3
  4254a4:	00bfd816 	blt	zero,r2,425408 <__alt_mem_sdram+0xf8425408>
  4254a8:	8080030b 	ldhu	r2,12(r16)
  4254ac:	10801014 	ori	r2,r2,64
  4254b0:	8080030d 	sth	r2,12(r16)
  4254b4:	00bfffc4 	movi	r2,-1
  4254b8:	003fa806 	br	42535c <__alt_mem_sdram+0xf842535c>
  4254bc:	0027883a 	mov	r19,zero
  4254c0:	0011883a 	mov	r8,zero
  4254c4:	0039883a 	mov	fp,zero
  4254c8:	0025883a 	mov	r18,zero
  4254cc:	90001f26 	beq	r18,zero,42554c <__sfvwrite_r+0x2a8>
  4254d0:	40005a26 	beq	r8,zero,42563c <__sfvwrite_r+0x398>
  4254d4:	982d883a 	mov	r22,r19
  4254d8:	94c0012e 	bgeu	r18,r19,4254e0 <__sfvwrite_r+0x23c>
  4254dc:	902d883a 	mov	r22,r18
  4254e0:	81000017 	ldw	r4,0(r16)
  4254e4:	80800417 	ldw	r2,16(r16)
  4254e8:	b02f883a 	mov	r23,r22
  4254ec:	81c00517 	ldw	r7,20(r16)
  4254f0:	1100032e 	bgeu	r2,r4,425500 <__sfvwrite_r+0x25c>
  4254f4:	80c00217 	ldw	r3,8(r16)
  4254f8:	38c7883a 	add	r3,r7,r3
  4254fc:	1d801816 	blt	r3,r22,425560 <__sfvwrite_r+0x2bc>
  425500:	b1c03e16 	blt	r22,r7,4255fc <__sfvwrite_r+0x358>
  425504:	80800917 	ldw	r2,36(r16)
  425508:	81400717 	ldw	r5,28(r16)
  42550c:	e00d883a 	mov	r6,fp
  425510:	da000115 	stw	r8,4(sp)
  425514:	a809883a 	mov	r4,r21
  425518:	103ee83a 	callr	r2
  42551c:	102f883a 	mov	r23,r2
  425520:	da000117 	ldw	r8,4(sp)
  425524:	00bfe00e 	bge	zero,r2,4254a8 <__alt_mem_sdram+0xf84254a8>
  425528:	9de7c83a 	sub	r19,r19,r23
  42552c:	98001f26 	beq	r19,zero,4255ac <__sfvwrite_r+0x308>
  425530:	a0800217 	ldw	r2,8(r20)
  425534:	e5f9883a 	add	fp,fp,r23
  425538:	95e5c83a 	sub	r18,r18,r23
  42553c:	15efc83a 	sub	r23,r2,r23
  425540:	a5c00215 	stw	r23,8(r20)
  425544:	b83f8426 	beq	r23,zero,425358 <__alt_mem_sdram+0xf8425358>
  425548:	903fe11e 	bne	r18,zero,4254d0 <__alt_mem_sdram+0xf84254d0>
  42554c:	8f000017 	ldw	fp,0(r17)
  425550:	8c800117 	ldw	r18,4(r17)
  425554:	0011883a 	mov	r8,zero
  425558:	8c400204 	addi	r17,r17,8
  42555c:	003fdb06 	br	4254cc <__alt_mem_sdram+0xf84254cc>
  425560:	180d883a 	mov	r6,r3
  425564:	e00b883a 	mov	r5,fp
  425568:	da000115 	stw	r8,4(sp)
  42556c:	d8c00015 	stw	r3,0(sp)
  425570:	04265c40 	call	4265c4 <memmove>
  425574:	d8c00017 	ldw	r3,0(sp)
  425578:	80800017 	ldw	r2,0(r16)
  42557c:	800b883a 	mov	r5,r16
  425580:	a809883a 	mov	r4,r21
  425584:	10c5883a 	add	r2,r2,r3
  425588:	80800015 	stw	r2,0(r16)
  42558c:	d8c00015 	stw	r3,0(sp)
  425590:	0424a340 	call	424a34 <_fflush_r>
  425594:	d8c00017 	ldw	r3,0(sp)
  425598:	da000117 	ldw	r8,4(sp)
  42559c:	103fc21e 	bne	r2,zero,4254a8 <__alt_mem_sdram+0xf84254a8>
  4255a0:	182f883a 	mov	r23,r3
  4255a4:	9de7c83a 	sub	r19,r19,r23
  4255a8:	983fe11e 	bne	r19,zero,425530 <__alt_mem_sdram+0xf8425530>
  4255ac:	800b883a 	mov	r5,r16
  4255b0:	a809883a 	mov	r4,r21
  4255b4:	0424a340 	call	424a34 <_fflush_r>
  4255b8:	103fbb1e 	bne	r2,zero,4254a8 <__alt_mem_sdram+0xf84254a8>
  4255bc:	0011883a 	mov	r8,zero
  4255c0:	003fdb06 	br	425530 <__alt_mem_sdram+0xf8425530>
  4255c4:	94c0012e 	bgeu	r18,r19,4255cc <__sfvwrite_r+0x328>
  4255c8:	9027883a 	mov	r19,r18
  4255cc:	980d883a 	mov	r6,r19
  4255d0:	e00b883a 	mov	r5,fp
  4255d4:	04265c40 	call	4265c4 <memmove>
  4255d8:	80800217 	ldw	r2,8(r16)
  4255dc:	80c00017 	ldw	r3,0(r16)
  4255e0:	14c5c83a 	sub	r2,r2,r19
  4255e4:	1cc7883a 	add	r3,r3,r19
  4255e8:	80800215 	stw	r2,8(r16)
  4255ec:	80c00015 	stw	r3,0(r16)
  4255f0:	10004326 	beq	r2,zero,425700 <__sfvwrite_r+0x45c>
  4255f4:	9805883a 	mov	r2,r19
  4255f8:	003f8306 	br	425408 <__alt_mem_sdram+0xf8425408>
  4255fc:	b00d883a 	mov	r6,r22
  425600:	e00b883a 	mov	r5,fp
  425604:	da000115 	stw	r8,4(sp)
  425608:	04265c40 	call	4265c4 <memmove>
  42560c:	80800217 	ldw	r2,8(r16)
  425610:	80c00017 	ldw	r3,0(r16)
  425614:	da000117 	ldw	r8,4(sp)
  425618:	1585c83a 	sub	r2,r2,r22
  42561c:	1dad883a 	add	r22,r3,r22
  425620:	80800215 	stw	r2,8(r16)
  425624:	85800015 	stw	r22,0(r16)
  425628:	003fbf06 	br	425528 <__alt_mem_sdram+0xf8425528>
  42562c:	81000017 	ldw	r4,0(r16)
  425630:	9027883a 	mov	r19,r18
  425634:	902f883a 	mov	r23,r18
  425638:	003f6906 	br	4253e0 <__alt_mem_sdram+0xf84253e0>
  42563c:	900d883a 	mov	r6,r18
  425640:	01400284 	movi	r5,10
  425644:	e009883a 	mov	r4,fp
  425648:	04263980 	call	426398 <memchr>
  42564c:	10003e26 	beq	r2,zero,425748 <__sfvwrite_r+0x4a4>
  425650:	10800044 	addi	r2,r2,1
  425654:	1727c83a 	sub	r19,r2,fp
  425658:	02000044 	movi	r8,1
  42565c:	003f9d06 	br	4254d4 <__alt_mem_sdram+0xf84254d4>
  425660:	80800517 	ldw	r2,20(r16)
  425664:	81400417 	ldw	r5,16(r16)
  425668:	81c00017 	ldw	r7,0(r16)
  42566c:	10a7883a 	add	r19,r2,r2
  425670:	9885883a 	add	r2,r19,r2
  425674:	1026d7fa 	srli	r19,r2,31
  425678:	396dc83a 	sub	r22,r7,r5
  42567c:	b1000044 	addi	r4,r22,1
  425680:	9885883a 	add	r2,r19,r2
  425684:	1027d07a 	srai	r19,r2,1
  425688:	2485883a 	add	r2,r4,r18
  42568c:	980d883a 	mov	r6,r19
  425690:	9880022e 	bgeu	r19,r2,42569c <__sfvwrite_r+0x3f8>
  425694:	1027883a 	mov	r19,r2
  425698:	100d883a 	mov	r6,r2
  42569c:	18c1000c 	andi	r3,r3,1024
  4256a0:	18001c26 	beq	r3,zero,425714 <__sfvwrite_r+0x470>
  4256a4:	300b883a 	mov	r5,r6
  4256a8:	a809883a 	mov	r4,r21
  4256ac:	0425b8c0 	call	425b8c <_malloc_r>
  4256b0:	102f883a 	mov	r23,r2
  4256b4:	10002926 	beq	r2,zero,42575c <__sfvwrite_r+0x4b8>
  4256b8:	81400417 	ldw	r5,16(r16)
  4256bc:	b00d883a 	mov	r6,r22
  4256c0:	1009883a 	mov	r4,r2
  4256c4:	042647c0 	call	42647c <memcpy>
  4256c8:	8080030b 	ldhu	r2,12(r16)
  4256cc:	00fedfc4 	movi	r3,-1153
  4256d0:	10c4703a 	and	r2,r2,r3
  4256d4:	10802014 	ori	r2,r2,128
  4256d8:	8080030d 	sth	r2,12(r16)
  4256dc:	bd89883a 	add	r4,r23,r22
  4256e0:	9d8fc83a 	sub	r7,r19,r22
  4256e4:	85c00415 	stw	r23,16(r16)
  4256e8:	84c00515 	stw	r19,20(r16)
  4256ec:	81000015 	stw	r4,0(r16)
  4256f0:	9027883a 	mov	r19,r18
  4256f4:	81c00215 	stw	r7,8(r16)
  4256f8:	902f883a 	mov	r23,r18
  4256fc:	003f3806 	br	4253e0 <__alt_mem_sdram+0xf84253e0>
  425700:	800b883a 	mov	r5,r16
  425704:	a809883a 	mov	r4,r21
  425708:	0424a340 	call	424a34 <_fflush_r>
  42570c:	103fb926 	beq	r2,zero,4255f4 <__alt_mem_sdram+0xf84255f4>
  425710:	003f6506 	br	4254a8 <__alt_mem_sdram+0xf84254a8>
  425714:	a809883a 	mov	r4,r21
  425718:	04279000 	call	427900 <_realloc_r>
  42571c:	102f883a 	mov	r23,r2
  425720:	103fee1e 	bne	r2,zero,4256dc <__alt_mem_sdram+0xf84256dc>
  425724:	81400417 	ldw	r5,16(r16)
  425728:	a809883a 	mov	r4,r21
  42572c:	0424f940 	call	424f94 <_free_r>
  425730:	8080030b 	ldhu	r2,12(r16)
  425734:	00ffdfc4 	movi	r3,-129
  425738:	1884703a 	and	r2,r3,r2
  42573c:	00c00304 	movi	r3,12
  425740:	a8c00015 	stw	r3,0(r21)
  425744:	003f5906 	br	4254ac <__alt_mem_sdram+0xf84254ac>
  425748:	94c00044 	addi	r19,r18,1
  42574c:	02000044 	movi	r8,1
  425750:	003f6006 	br	4254d4 <__alt_mem_sdram+0xf84254d4>
  425754:	00bfffc4 	movi	r2,-1
  425758:	003f0006 	br	42535c <__alt_mem_sdram+0xf842535c>
  42575c:	00800304 	movi	r2,12
  425760:	a8800015 	stw	r2,0(r21)
  425764:	8080030b 	ldhu	r2,12(r16)
  425768:	003f5006 	br	4254ac <__alt_mem_sdram+0xf84254ac>

0042576c <_fwalk>:
  42576c:	defff704 	addi	sp,sp,-36
  425770:	dd000415 	stw	r20,16(sp)
  425774:	dfc00815 	stw	ra,32(sp)
  425778:	ddc00715 	stw	r23,28(sp)
  42577c:	dd800615 	stw	r22,24(sp)
  425780:	dd400515 	stw	r21,20(sp)
  425784:	dcc00315 	stw	r19,12(sp)
  425788:	dc800215 	stw	r18,8(sp)
  42578c:	dc400115 	stw	r17,4(sp)
  425790:	dc000015 	stw	r16,0(sp)
  425794:	2500b804 	addi	r20,r4,736
  425798:	a0002326 	beq	r20,zero,425828 <_fwalk+0xbc>
  42579c:	282b883a 	mov	r21,r5
  4257a0:	002f883a 	mov	r23,zero
  4257a4:	05800044 	movi	r22,1
  4257a8:	04ffffc4 	movi	r19,-1
  4257ac:	a4400117 	ldw	r17,4(r20)
  4257b0:	a4800217 	ldw	r18,8(r20)
  4257b4:	8c7fffc4 	addi	r17,r17,-1
  4257b8:	88000d16 	blt	r17,zero,4257f0 <_fwalk+0x84>
  4257bc:	94000304 	addi	r16,r18,12
  4257c0:	94800384 	addi	r18,r18,14
  4257c4:	8080000b 	ldhu	r2,0(r16)
  4257c8:	8c7fffc4 	addi	r17,r17,-1
  4257cc:	813ffd04 	addi	r4,r16,-12
  4257d0:	b080042e 	bgeu	r22,r2,4257e4 <_fwalk+0x78>
  4257d4:	9080000f 	ldh	r2,0(r18)
  4257d8:	14c00226 	beq	r2,r19,4257e4 <_fwalk+0x78>
  4257dc:	a83ee83a 	callr	r21
  4257e0:	b8aeb03a 	or	r23,r23,r2
  4257e4:	84001a04 	addi	r16,r16,104
  4257e8:	94801a04 	addi	r18,r18,104
  4257ec:	8cfff51e 	bne	r17,r19,4257c4 <__alt_mem_sdram+0xf84257c4>
  4257f0:	a5000017 	ldw	r20,0(r20)
  4257f4:	a03fed1e 	bne	r20,zero,4257ac <__alt_mem_sdram+0xf84257ac>
  4257f8:	b805883a 	mov	r2,r23
  4257fc:	dfc00817 	ldw	ra,32(sp)
  425800:	ddc00717 	ldw	r23,28(sp)
  425804:	dd800617 	ldw	r22,24(sp)
  425808:	dd400517 	ldw	r21,20(sp)
  42580c:	dd000417 	ldw	r20,16(sp)
  425810:	dcc00317 	ldw	r19,12(sp)
  425814:	dc800217 	ldw	r18,8(sp)
  425818:	dc400117 	ldw	r17,4(sp)
  42581c:	dc000017 	ldw	r16,0(sp)
  425820:	dec00904 	addi	sp,sp,36
  425824:	f800283a 	ret
  425828:	002f883a 	mov	r23,zero
  42582c:	003ff206 	br	4257f8 <__alt_mem_sdram+0xf84257f8>

00425830 <_fwalk_reent>:
  425830:	defff704 	addi	sp,sp,-36
  425834:	dd000415 	stw	r20,16(sp)
  425838:	dfc00815 	stw	ra,32(sp)
  42583c:	ddc00715 	stw	r23,28(sp)
  425840:	dd800615 	stw	r22,24(sp)
  425844:	dd400515 	stw	r21,20(sp)
  425848:	dcc00315 	stw	r19,12(sp)
  42584c:	dc800215 	stw	r18,8(sp)
  425850:	dc400115 	stw	r17,4(sp)
  425854:	dc000015 	stw	r16,0(sp)
